
lab72.elf:     file format elf32-littlenios2
lab72.elf
architecture: nios2:r1, flags 0x00000112:
EXEC_P, HAS_SYMS, D_PAGED
start address 0x08000224

Program Header:
    LOAD off    0x00001000 vaddr 0x08000000 paddr 0x08000000 align 2**12
         filesz 0x00000020 memsz 0x00000020 flags r-x
    LOAD off    0x00001020 vaddr 0x08000020 paddr 0x08000020 align 2**12
         filesz 0x0000e180 memsz 0x0000e180 flags r-x
    LOAD off    0x0000f1a0 vaddr 0x0800e1a0 paddr 0x080101d4 align 2**12
         filesz 0x00002034 memsz 0x00002034 flags rw-
    LOAD off    0x00011208 vaddr 0x08012208 paddr 0x08012208 align 2**12
         filesz 0x00000000 memsz 0x00000158 flags rw-

Sections:
Idx Name          Size      VMA       LMA       File off  Algn
  0 .entry        00000020  08000000  08000000  00001000  2**5
                  CONTENTS, ALLOC, LOAD, READONLY, CODE
  1 .exceptions   00000204  08000020  08000020  00001020  2**2
                  CONTENTS, ALLOC, LOAD, READONLY, CODE
  2 .text         0000d9a8  08000224  08000224  00001224  2**2
                  CONTENTS, ALLOC, LOAD, READONLY, CODE
  3 .rodata       000005d4  0800dbcc  0800dbcc  0000ebcc  2**2
                  CONTENTS, ALLOC, LOAD, READONLY, DATA
  4 .rwdata       00002034  0800e1a0  080101d4  0000f1a0  2**2
                  CONTENTS, ALLOC, LOAD, DATA, SMALL_DATA
  5 .bss          00000158  08012208  08012208  00011208  2**2
                  ALLOC, SMALL_DATA
  6 .onchip_memory2_0 00000000  00000000  00000000  000111d4  2**0
                  CONTENTS
  7 .sdram        00000000  08012360  08012360  000111d4  2**0
                  CONTENTS
  8 .comment      0000002c  00000000  00000000  000111d4  2**0
                  CONTENTS, READONLY
  9 .debug_aranges 00000c10  00000000  00000000  00011200  2**3
                  CONTENTS, READONLY, DEBUGGING
 10 .debug_info   00035ad5  00000000  00000000  00011e10  2**0
                  CONTENTS, READONLY, DEBUGGING
 11 .debug_abbrev 0000b071  00000000  00000000  000478e5  2**0
                  CONTENTS, READONLY, DEBUGGING
 12 .debug_line   000133ef  00000000  00000000  00052956  2**0
                  CONTENTS, READONLY, DEBUGGING
 13 .debug_frame  000018ac  00000000  00000000  00065d48  2**2
                  CONTENTS, READONLY, DEBUGGING
 14 .debug_str    000038f2  00000000  00000000  000675f4  2**0
                  CONTENTS, READONLY, DEBUGGING
 15 .debug_loc    00018ac8  00000000  00000000  0006aee6  2**0
                  CONTENTS, READONLY, DEBUGGING
 16 .debug_alt_sim_info 00000040  00000000  00000000  000839b0  2**2
                  CONTENTS, READONLY, DEBUGGING
 17 .debug_ranges 00001730  00000000  00000000  000839f0  2**3
                  CONTENTS, READONLY, DEBUGGING
 18 .thread_model 00000003  00000000  00000000  00087c22  2**0
                  CONTENTS, READONLY
 19 .cpu          0000000c  00000000  00000000  00087c25  2**0
                  CONTENTS, READONLY
 20 .qsys         00000001  00000000  00000000  00087c31  2**0
                  CONTENTS, READONLY
 21 .simulation_enabled 00000001  00000000  00000000  00087c32  2**0
                  CONTENTS, READONLY
 22 .sysid_hash   00000004  00000000  00000000  00087c33  2**0
                  CONTENTS, READONLY
 23 .sysid_base   00000004  00000000  00000000  00087c37  2**0
                  CONTENTS, READONLY
 24 .sysid_time   00000004  00000000  00000000  00087c3b  2**0
                  CONTENTS, READONLY
 25 .stderr_dev   0000000b  00000000  00000000  00087c3f  2**0
                  CONTENTS, READONLY
 26 .stdin_dev    0000000b  00000000  00000000  00087c4a  2**0
                  CONTENTS, READONLY
 27 .stdout_dev   0000000b  00000000  00000000  00087c55  2**0
                  CONTENTS, READONLY
 28 .sopc_system_name 00000008  00000000  00000000  00087c60  2**0
                  CONTENTS, READONLY
 29 .quartus_project_dir 00000031  00000000  00000000  00087c68  2**0
                  CONTENTS, READONLY
 30 .jdi          00004e82  00000000  00000000  00087c99  2**0
                  CONTENTS, READONLY
 31 .sopcinfo     0008af3c  00000000  00000000  0008cb1b  2**0
                  CONTENTS, READONLY
SYMBOL TABLE:
08000000 l    d  .entry	00000000 .entry
08000020 l    d  .exceptions	00000000 .exceptions
08000224 l    d  .text	00000000 .text
0800dbcc l    d  .rodata	00000000 .rodata
0800e1a0 l    d  .rwdata	00000000 .rwdata
08012208 l    d  .bss	00000000 .bss
00000000 l    d  .onchip_memory2_0	00000000 .onchip_memory2_0
08012360 l    d  .sdram	00000000 .sdram
00000000 l    d  .comment	00000000 .comment
00000000 l    d  .debug_aranges	00000000 .debug_aranges
00000000 l    d  .debug_info	00000000 .debug_info
00000000 l    d  .debug_abbrev	00000000 .debug_abbrev
00000000 l    d  .debug_line	00000000 .debug_line
00000000 l    d  .debug_frame	00000000 .debug_frame
00000000 l    d  .debug_str	00000000 .debug_str
00000000 l    d  .debug_loc	00000000 .debug_loc
00000000 l    d  .debug_alt_sim_info	00000000 .debug_alt_sim_info
00000000 l    d  .debug_ranges	00000000 .debug_ranges
00000000 l    df *ABS*	00000000 ../lab72_bsp//obj/HAL/src/crt0.o
0800025c l       .text	00000000 alt_after_alt_main
00000000 l    df *ABS*	00000000 alt_irq_handler.c
00000000 l    df *ABS*	00000000 alt_instruction_exception_entry.c
00000000 l    df *ABS*	00000000 main.c
08010190 l     O .rwdata	00000004 vga_ctrl
0800e1a0 l     O .rwdata	00000170 colors
00000000 l    df *ABS*	00000000 palette_test.c
08010194 l     O .rwdata	00000004 vga_ctrl
0800e310 l     O .rwdata	00000170 colors
00000000 l    df *ABS*	00000000 text_mode_vga_color.c
08010198 l     O .rwdata	00000004 vga_ctrl
0800e480 l     O .rwdata	00000170 colors
00000000 l    df *ABS*	00000000 lib2-divmod.c
00000000 l    df *ABS*	00000000 lib2-mul.c
00000000 l    df *ABS*	00000000 rand.c
00000000 l    df *ABS*	00000000 sprintf.c
00000000 l    df *ABS*	00000000 strlen.c
00000000 l    df *ABS*	00000000 vfprintf.c
0800dc72 l     O .rodata	00000010 blanks.5207
0800dc62 l     O .rodata	00000010 zeroes.5208
00000000 l    df *ABS*	00000000 dtoa.c
08002df8 l     F .text	00000234 quorem
00000000 l    df *ABS*	00000000 impure.c
0800e5f0 l     O .rwdata	00000424 impure_data
00000000 l    df *ABS*	00000000 localeconv.c
00000000 l    df *ABS*	00000000 mallocr.c
00000000 l    df *ABS*	00000000 memchr.c
00000000 l    df *ABS*	00000000 memcpy.c
00000000 l    df *ABS*	00000000 mprec.c
0800dc94 l     O .rodata	0000000c p05.4024
00000000 l    df *ABS*	00000000 sbrkr.c
00000000 l    df *ABS*	00000000 vfprintf.c
0800ddc8 l     O .rodata	00000010 blanks.5187
0800ddb8 l     O .rodata	00000010 zeroes.5188
00000000 l    df *ABS*	00000000 mallocr.c
00000000 l    df *ABS*	00000000 mallocr.c
00000000 l    df *ABS*	00000000 int_errno.c
00000000 l    df *ABS*	00000000 locale.c
00000000 l    df *ABS*	00000000 mbtowc_r.c
00000000 l    df *ABS*	00000000 memmove.c
00000000 l    df *ABS*	00000000 memset.c
00000000 l    df *ABS*	00000000 mallocr.c
00000000 l    df *ABS*	00000000 strcmp.c
00000000 l    df *ABS*	00000000 wctomb_r.c
00000000 l    df *ABS*	00000000 ctype_.c
00000000 l    df *ABS*	00000000 libgcc2.c
00000000 l    df *ABS*	00000000 libgcc2.c
00000000 l    df *ABS*	00000000 libgcc2.c
00000000 l    df *ABS*	00000000 adddf3.c
00000000 l    df *ABS*	00000000 divdf3.c
00000000 l    df *ABS*	00000000 eqdf2.c
00000000 l    df *ABS*	00000000 gedf2.c
00000000 l    df *ABS*	00000000 ledf2.c
00000000 l    df *ABS*	00000000 muldf3.c
00000000 l    df *ABS*	00000000 subdf3.c
00000000 l    df *ABS*	00000000 unorddf2.c
00000000 l    df *ABS*	00000000 fixdfsi.c
00000000 l    df *ABS*	00000000 floatsidf.c
00000000 l    df *ABS*	00000000 floatunsidf.c
00000000 l    df *ABS*	00000000 libgcc2.c
00000000 l    df *ABS*	00000000 libgcc2.c
00000000 l    df *ABS*	00000000 alt_load.c
0800b940 l     F .text	00000068 alt_load_section
00000000 l    df *ABS*	00000000 alt_main.c
00000000 l    df *ABS*	00000000 alt_malloc_lock.c
00000000 l    df *ABS*	00000000 alt_sbrk.c
080101ac l     O .rwdata	00000004 heap_end
00000000 l    df *ABS*	00000000 alt_usleep.c
00000000 l    df *ABS*	00000000 alt_sys_init.c
0800bbd0 l     F .text	00000034 alt_dev_reg
0800ef88 l     O .rwdata	00001060 jtag_uart_0
00000000 l    df *ABS*	00000000 altera_avalon_jtag_uart_fd.c
00000000 l    df *ABS*	00000000 altera_avalon_jtag_uart_init.c
0800bec4 l     F .text	00000204 altera_avalon_jtag_uart_irq
0800c0c8 l     F .text	000000a0 altera_avalon_jtag_uart_timeout
00000000 l    df *ABS*	00000000 altera_avalon_jtag_uart_ioctl.c
00000000 l    df *ABS*	00000000 altera_avalon_jtag_uart_read.c
00000000 l    df *ABS*	00000000 altera_avalon_jtag_uart_write.c
00000000 l    df *ABS*	00000000 altera_avalon_timer_sc.c
0800c704 l     F .text	00000078 alt_avalon_timer_sc_irq
00000000 l    df *ABS*	00000000 alt_alarm_start.c
00000000 l    df *ABS*	00000000 alt_busy_sleep.c
00000000 l    df *ABS*	00000000 alt_close.c
0800ca7c l     F .text	0000003c alt_get_errno
00000000 l    df *ABS*	00000000 alt_dcache_flush_all.c
00000000 l    df *ABS*	00000000 alt_dev.c
0800cbb4 l     F .text	0000002c alt_dev_null_write
00000000 l    df *ABS*	00000000 alt_dev_llist_insert.c
0800cbe0 l     F .text	0000003c alt_get_errno
00000000 l    df *ABS*	00000000 alt_do_ctors.c
00000000 l    df *ABS*	00000000 alt_do_dtors.c
00000000 l    df *ABS*	00000000 alt_errno.c
00000000 l    df *ABS*	00000000 alt_icache_flush_all.c
00000000 l    df *ABS*	00000000 alt_iic.c
00000000 l    df *ABS*	00000000 alt_iic_isr_register.c
00000000 l    df *ABS*	00000000 alt_io_redirect.c
0800d034 l     F .text	000000d4 alt_open_fd
00000000 l    df *ABS*	00000000 alt_irq_vars.c
00000000 l    df *ABS*	00000000 alt_open.c
0800d184 l     F .text	0000003c alt_get_errno
0800d1c0 l     F .text	000000dc alt_file_locked
00000000 l    df *ABS*	00000000 alt_release_fd.c
00000000 l    df *ABS*	00000000 alt_tick.c
00000000 l    df *ABS*	00000000 altera_nios2_gen2_irq.c
00000000 l    df *ABS*	00000000 alt_find_dev.c
00000000 l    df *ABS*	00000000 alt_find_file.c
00000000 l    df *ABS*	00000000 alt_get_fd.c
00000000 l    df *ABS*	00000000 atexit.c
00000000 l    df *ABS*	00000000 exit.c
00000000 l    df *ABS*	00000000 memcmp.c
00000000 l    df *ABS*	00000000 __atexit.c
00000000 l    df *ABS*	00000000 __call_atexit.c
00000000 l    df *ABS*	00000000 alt_exit.c
08012234 g     O .bss	00000004 alt_instruction_exception_handler
08005f50 g     F .text	00000074 _mprec_log10
08006030 g     F .text	00000074 __any_on
0800dca0 g     O .rodata	00000028 __mprec_tinytens
0800ba2c g     F .text	0000007c alt_main
08012260 g     O .bss	00000100 alt_irq
080101d4 g       *ABS*	00000000 __flash_rwdata_start
0800a308 g     F .text	00000080 .hidden __eqdf2
08012360 g       *ABS*	00000000 __alt_heap_start
080078dc g     F .text	00000070 _setlocale_r
0800bacc g     F .text	00000024 __malloc_unlock
080006b8 g     F .text	0000025c textVGAColorScreenSaver
080079bc g     F .text	0000012c memmove
080050f0 g     F .text	000000a4 _Balloc
0800a388 g     F .text	000000f0 .hidden __gtdf2
0800d610 g     F .text	00000024 altera_nios2_gen2_irq_init
08000000 g     F .entry	0000000c __reset
080046f4 g     F .text	00000008 __localeconv_l
08000020 g       *ABS*	00000000 __flash_exceptions_start
08012214 g     O .bss	00000004 errno
080062c0 g     F .text	00001138 ___svfiprintf_internal_r
08012220 g     O .bss	00000004 alt_argv
08018190 g       *ABS*	00000000 _gp
0800bba0 g     F .text	00000030 usleep
08000440 g     F .text	00000050 textVGAColorClr
08010010 g     O .rwdata	00000180 alt_fd_list
0800d634 g     F .text	00000090 alt_find_dev
08004ff0 g     F .text	00000100 memcpy
0800b788 g     F .text	000000c8 .hidden __floatsidf
0800d108 g     F .text	0000007c alt_io_redirect
0800a478 g     F .text	000000f0 .hidden __ltdf2
0800dbcc g       *ABS*	00000000 __DTOR_END__
0800d884 g     F .text	00000098 alt_exception_cause_generated_bad_addr
08005eac g     F .text	000000a4 __ratio
0800c2c4 g     F .text	0000021c altera_avalon_jtag_uart_read
00000000 g       *ABS*	00000000 __alt_mem_onchip_memory2_0
08000a0c g     F .text	00000064 .hidden __udivsi3
0800dcf0 g     O .rodata	000000c8 __mprec_tens
08012210 g     O .bss	00000004 __malloc_top_pad
080046fc g     F .text	0000000c _localeconv_r
08005518 g     F .text	00000034 __i2b
080060a4 g     F .text	00000058 _sbrk_r
080101c0 g     O .rwdata	00000004 alt_max_fd
0801220c g     O .bss	00000004 __malloc_max_sbrked_mem
08009004 g     F .text	000009a0 .hidden __adddf3
08005c60 g     F .text	00000104 __b2d
08008a3c g     F .text	000005c8 .hidden __umoddi3
0801019c g     O .rwdata	00000004 _global_impure_ptr
08007bd8 g     F .text	0000062c _realloc_r
08012360 g       *ABS*	00000000 __bss_end
0800cf50 g     F .text	000000e4 alt_iic_isr_register
0800d508 g     F .text	00000108 alt_tick
08008420 g     F .text	0000061c .hidden __udivdi3
0800dcc8 g     O .rodata	00000028 __mprec_bigtens
080052f4 g     F .text	00000110 __s2b
0800b850 g     F .text	0000009c .hidden __floatunsidf
080059f0 g     F .text	00000058 __mcmp
0800cf04 g     F .text	0000004c alt_ic_irq_enabled
0800d46c g     F .text	0000009c alt_alarm_stop
08012228 g     O .bss	00000004 alt_irq_active
080000fc g     F .exceptions	000000c8 alt_irq_handler
0800ffe8 g     O .rwdata	00000028 alt_dev_null
0800cb94 g     F .text	00000020 alt_dcache_flush_all
08005404 g     F .text	00000064 __hi0bits
0800b708 g     F .text	00000080 .hidden __fixdfsi
080101d4 g       *ABS*	00000000 __ram_rwdata_end
080101b8 g     O .rwdata	00000008 alt_dev_list
0800e1a0 g       *ABS*	00000000 __ram_rodata_end
0800a478 g     F .text	000000f0 .hidden __ledf2
0800578c g     F .text	00000128 __pow5mult
08000a70 g     F .text	0000005c .hidden __umodsi3
08012360 g       *ABS*	00000000 end
0800be04 g     F .text	000000c0 altera_avalon_jtag_uart_init
080001c4 g     F .exceptions	00000060 alt_instruction_exception_entry
0800dbcc g       *ABS*	00000000 __CTOR_LIST__
0c000000 g       *ABS*	00000000 __alt_stack_pointer
0800c77c g     F .text	0000007c alt_avalon_timer_sc_init
0800b8ec g     F .text	00000054 .hidden __clzsi2
0800c4e0 g     F .text	00000224 altera_avalon_jtag_uart_write
08004f08 g     F .text	000000e8 memchr
08000b68 g     F .text	00000054 _sprintf_r
080075e0 g     F .text	000002fc _free_r
0800dee9 g     O .rodata	00000180 _ctype_b
0800794c g     F .text	0000000c __locale_mb_cur_max
0800da80 g     F .text	00000118 __call_exitprocs
080101a4 g     O .rwdata	00000004 __malloc_sbrk_base
08000224 g     F .text	0000003c _start
0801222c g     O .bss	00000004 _alt_tick_rate
08000b08 g     F .text	00000060 rand
080058b4 g     F .text	0000013c __lshift
08012230 g     O .bss	00000004 _alt_nticks
0800bc3c g     F .text	00000064 alt_sys_init
080060fc g     F .text	000001c4 __ssprint_r
0800d9f0 g     F .text	00000090 __register_exitproc
0800554c g     F .text	00000240 __multiply
0800c168 g     F .text	00000068 altera_avalon_jtag_uart_close
08000acc g     F .text	00000028 .hidden __mulsi3
0800e1a0 g       *ABS*	00000000 __ram_rwdata_start
0800dbcc g       *ABS*	00000000 __ram_rodata_start
08012238 g     O .bss	00000028 __malloc_current_mallinfo
08005d64 g     F .text	00000148 __d2b
0800bca0 g     F .text	00000060 altera_avalon_jtag_uart_read_fd
0800d7cc g     F .text	000000b8 alt_get_fd
0800c924 g     F .text	00000158 alt_busy_sleep
0800d964 g     F .text	0000008c memcmp
0800bd60 g     F .text	00000050 altera_avalon_jtag_uart_close_fd
08012360 g       *ABS*	00000000 __alt_stack_base
0800bdb0 g     F .text	00000054 altera_avalon_jtag_uart_ioctl_fd
080099a4 g     F .text	00000964 .hidden __divdf3
08005fc4 g     F .text	0000006c __copybits
0800ea14 g     O .rwdata	00000408 __malloc_av_
0800a568 g     F .text	000007e0 .hidden __muldf3
0800d6c4 g     F .text	00000108 alt_find_file
0800cc1c g     F .text	000000a4 alt_dev_llist_insert
0800baa8 g     F .text	00000024 __malloc_lock
0800baf0 g     F .text	000000b0 sbrk
08000cb8 g     F .text	00002140 ___svfprintf_internal_r
080073f8 g     F .text	000000cc _calloc_r
08012208 g       *ABS*	00000000 __bss_start
08007ae8 g     F .text	000000f0 memset
08000260 g     F .text	0000002c main
08012224 g     O .bss	00000004 alt_envp
08012208 g     O .bss	00000004 __malloc_max_total_mem
0800bd00 g     F .text	00000060 altera_avalon_jtag_uart_write_fd
08000af4 g     F .text	00000014 srand
0c000000 g       *ABS*	00000000 __alt_heap_limit
0800302c g     F .text	000016c8 _dtoa_r
08004714 g     F .text	000007f4 _malloc_r
080082e8 g     F .text	00000030 __ascii_wctomb
080101c4 g     O .rwdata	00000004 alt_errno
0800796c g     F .text	0000000c _mbtowc_r
08000914 g     F .text	00000080 .hidden __divsi3
080005ac g     F .text	0000010c setColorPalette
080074c4 g     F .text	0000011c _malloc_trim_r
0800dbcc g       *ABS*	00000000 __CTOR_END__
08008204 g     F .text	000000d8 strcmp
0800dbcc g       *ABS*	00000000 __flash_rodata_start
0800dbcc g       *ABS*	00000000 __DTOR_LIST__
0800a308 g     F .text	00000080 .hidden __nedf2
0800bc04 g     F .text	00000038 alt_irq_init
0800d3fc g     F .text	00000070 alt_release_fd
08000bbc g     F .text	00000064 sprintf
0800e069 g     O .rodata	00000100 .hidden __clz_tab
08012218 g     O .bss	00000004 _PathLocale
0800d91c g     F .text	00000014 atexit
08007958 g     F .text	00000014 setlocale
080101a0 g     O .rwdata	00000004 _impure_ptr
0801221c g     O .bss	00000004 alt_argc
0800cd20 g     F .text	00000060 _do_dtors
08000020 g       .exceptions	00000000 alt_irq_entry
08007978 g     F .text	00000044 __ascii_mbtowc
08005c04 g     F .text	0000005c __ulp
080101b0 g     O .rwdata	00000008 alt_fs_list
08000020 g       *ABS*	00000000 __ram_exceptions_start
08004708 g     F .text	0000000c localeconv
0800cda0 g     F .text	00000050 alt_ic_isr_register
080101d4 g       *ABS*	00000000 _edata
08012360 g       *ABS*	00000000 _end
08000224 g       *ABS*	00000000 __ram_exceptions_end
0800c1d0 g     F .text	000000f4 altera_avalon_jtag_uart_ioctl
08000490 g     F .text	0000011c textVGADrawColorText
0800ce78 g     F .text	0000008c alt_ic_irq_disable
080101a8 g     O .rwdata	00000004 __malloc_trim_threshold
0800d930 g     F .text	00000034 exit
08005a48 g     F .text	000001bc __mdiff
08000994 g     F .text	00000078 .hidden __modsi3
0c000000 g       *ABS*	00000000 __alt_data_end
08000020 g     F .exceptions	00000000 alt_exception
08000000 g       *ABS*	00000000 __alt_mem_sdram
0800dde8 g     O .rodata	00000101 _ctype_
0800b6b4 g     F .text	00000054 .hidden __unorddf2
0800db98 g     F .text	00000034 _exit
0800c7f8 g     F .text	0000012c alt_alarm_start
08008318 g     F .text	00000108 .hidden __muldi3
08000c20 g     F .text	00000098 strlen
0800d29c g     F .text	00000160 open
0800a388 g     F .text	000000f0 .hidden __gedf2
0800cd80 g     F .text	00000020 alt_icache_flush_all
080101c8 g     O .rwdata	00000004 alt_priority_mask
0800cdf0 g     F .text	00000088 alt_ic_irq_enable
080082dc g     F .text	0000000c _wctomb_r
0800ad48 g     F .text	0000096c .hidden __subdf3
08005468 g     F .text	000000b0 __lo0bits
080101cc g     O .rwdata	00000008 alt_alarm_list
0800ccc0 g     F .text	00000060 _do_ctors
0800cab8 g     F .text	000000dc close
0800ee1c g     O .rwdata	0000016c __global_locale
0800028c g     F .text	000001b4 paletteTest
0800b9a8 g     F .text	00000084 alt_load
080051b8 g     F .text	0000013c __multadd
08005194 g     F .text	00000024 _Bfree



Disassembly of section .entry:

08000000 <__reset>:
 * Jump to the _start entry point in the .text section if reset code
 * is allowed or if optimizing for RTL simulation.
 */
#if defined(ALT_ALLOW_CODE_AT_RESET) || defined(ALT_SIM_OPTIMIZE)
    /* Jump to the _start entry point in the .text section. */
    movhi r1, %hi(_start)
 8000000:	00420034 	movhi	at,2048
    ori r1, r1, %lo(_start)
 8000004:	08408914 	ori	at,at,548
    jmp r1
 8000008:	0800683a 	jmp	at
	...

Disassembly of section .exceptions:

08000020 <alt_exception>:

#else /* ALT_EXCEPTION_STACK disabled */
        /* 
         * Reserve space on normal stack for registers about to be pushed.
         */
        addi  sp, sp, -76
 8000020:	deffed04 	addi	sp,sp,-76
         * documentation for details).
         *
         * Leave a gap in the stack frame at 4(sp) for the muldiv handler to
         * store zero into.
         */
        stw   ra,  0(sp)
 8000024:	dfc00015 	stw	ra,0(sp)
        stw   r1,   8(sp)
 8000028:	d8400215 	stw	at,8(sp)
        stw   r2,  12(sp)
 800002c:	d8800315 	stw	r2,12(sp)
        stw   r3,  16(sp)
 8000030:	d8c00415 	stw	r3,16(sp)
        stw   r4,  20(sp)
 8000034:	d9000515 	stw	r4,20(sp)
        stw   r5,  24(sp)
 8000038:	d9400615 	stw	r5,24(sp)
        stw   r6,  28(sp)
 800003c:	d9800715 	stw	r6,28(sp)
        stw   r7,  32(sp)
 8000040:	d9c00815 	stw	r7,32(sp)
        rdctl r5, estatus   /* Read early to avoid usage stall */
 8000044:	000b307a 	rdctl	r5,estatus
        stw   r8,  36(sp)
 8000048:	da000915 	stw	r8,36(sp)
        stw   r9,  40(sp)
 800004c:	da400a15 	stw	r9,40(sp)
        stw   r10, 44(sp)
 8000050:	da800b15 	stw	r10,44(sp)
        stw   r11, 48(sp)
 8000054:	dac00c15 	stw	r11,48(sp)
        stw   r12, 52(sp)
 8000058:	db000d15 	stw	r12,52(sp)
        stw   r13, 56(sp)
 800005c:	db400e15 	stw	r13,56(sp)
        stw   r14, 60(sp)
 8000060:	db800f15 	stw	r14,60(sp)
        stw   r15, 64(sp)
 8000064:	dbc01015 	stw	r15,64(sp)
        /*
         * ea-4 contains the address of the instruction being executed
         * when the exception occured. For interrupt exceptions, we will
         * will be re-issue the isntruction. Store it in 72(sp)
         */
        stw   r5,  68(sp)  /* estatus */
 8000068:	d9401115 	stw	r5,68(sp)
        addi  r15, ea, -4  /* instruction that caused exception */
 800006c:	ebffff04 	addi	r15,ea,-4
        stw   r15,  72(sp)
 8000070:	dbc01215 	stw	r15,72(sp)
#else
        /*
         * Test to see if the exception was a software exception or caused 
         * by an external interrupt, and vector accordingly.
         */
        rdctl r4, ipending
 8000074:	0009313a 	rdctl	r4,ipending
        andi  r2, r5, 1
 8000078:	2880004c 	andi	r2,r5,1
        beq   r2, zero, .Lnot_irq
 800007c:	10000326 	beq	r2,zero,800008c <alt_exception+0x6c>
        beq   r4, zero, .Lnot_irq
 8000080:	20000226 	beq	r4,zero,800008c <alt_exception+0x6c>
        /*
         * Now that all necessary registers have been preserved, call 
         * alt_irq_handler() to process the interrupts.
         */

        call alt_irq_handler
 8000084:	80000fc0 	call	80000fc <alt_irq_handler>

        .section .exceptions.irqreturn, "xa"

        br    .Lexception_exit
 8000088:	00000706 	br	80000a8 <alt_exception+0x88>
         * upon completion, so we write ea (address of instruction *after*
         * the one where the exception occured) into 72(sp). The actual
         * instruction that caused the exception is written in r2, which these
         * handlers will utilize.
         */
        stw ea, 72(sp) /* EA is PC+4 so will skip over instruction causing exception */
 800008c:	df401215 	stw	ea,72(sp)
.Lunknown_16bit:
        addi.n r4, r4, 2 /* Need PC+2 to skip over instruction causing exception */
        stw r4, 72(sp)

#else /* CDX is not Enabled and all instructions are 32bits */
        ldw r2, -4(ea) /* Instruction value that caused exception */
 8000090:	e8bfff17 	ldw	r2,-4(ea)
         * debugger is present) or go into an infinite loop since the
         * handling behavior is undefined; in that case we will not return here.
         */

        /* Load exception-causing address as first argument (r4) */
        addi   r4, ea, -4
 8000094:	e93fff04 	addi	r4,ea,-4

        /* Call the instruction-exception entry */
        call   alt_instruction_exception_entry
 8000098:	80001c40 	call	80001c4 <alt_instruction_exception_entry>
         * instruction
         *
         * Return code was 0: Skip. The instruction after the exception is
         * already stored in 72(sp).
         */
        bne   r2, r0, .Lexception_exit
 800009c:	1000021e 	bne	r2,zero,80000a8 <alt_exception+0x88>

        /*
         * Otherwise, modify 72(sp) to re-issue the instruction that caused the
         * exception.
         */
        addi  r15, ea, -4  /* instruction that caused exception */
 80000a0:	ebffff04 	addi	r15,ea,-4
        stw   r15,  72(sp)
 80000a4:	dbc01215 	stw	r15,72(sp)
        /* 
         * Restore the saved registers, so that all general purpose registers 
         * have been restored to their state at the time the interrupt occured.
         */

        ldw   r5,  68(sp)
 80000a8:	d9401117 	ldw	r5,68(sp)
        ldw   ea,  72(sp)  /* This becomes the PC once eret is executed */
 80000ac:	df401217 	ldw	ea,72(sp)
        ldw   ra,   0(sp)
 80000b0:	dfc00017 	ldw	ra,0(sp)

        wrctl estatus, r5
 80000b4:	2801707a 	wrctl	estatus,r5

        ldw   r1,   8(sp)
 80000b8:	d8400217 	ldw	at,8(sp)
        ldw   r2,  12(sp)
 80000bc:	d8800317 	ldw	r2,12(sp)
        ldw   r3,  16(sp)
 80000c0:	d8c00417 	ldw	r3,16(sp)
        ldw   r4,  20(sp)
 80000c4:	d9000517 	ldw	r4,20(sp)
        ldw   r5,  24(sp)
 80000c8:	d9400617 	ldw	r5,24(sp)
        ldw   r6,  28(sp)
 80000cc:	d9800717 	ldw	r6,28(sp)
        ldw   r7,  32(sp)
 80000d0:	d9c00817 	ldw	r7,32(sp)

#if defined(ALT_EXCEPTION_STACK) && defined(ALT_STACK_CHECK)
        ldw   et, %gprel(alt_exception_old_stack_limit)(gp)
#endif

        ldw   r8,  36(sp)
 80000d4:	da000917 	ldw	r8,36(sp)
        ldw   r9,  40(sp)
 80000d8:	da400a17 	ldw	r9,40(sp)
        ldw   r10, 44(sp)
 80000dc:	da800b17 	ldw	r10,44(sp)
        ldw   r11, 48(sp)
 80000e0:	dac00c17 	ldw	r11,48(sp)
        ldw   r12, 52(sp)
 80000e4:	db000d17 	ldw	r12,52(sp)
        ldw   r13, 56(sp)
 80000e8:	db400e17 	ldw	r13,56(sp)
        ldw   r14, 60(sp)
 80000ec:	db800f17 	ldw	r14,60(sp)
        ldw   r15, 64(sp)
 80000f0:	dbc01017 	ldw	r15,64(sp)
        stw   et, %gprel(alt_stack_limit_value)(gp)
        stw   zero, %gprel(alt_exception_old_stack_limit)(gp)
#endif /* ALT_STACK_CHECK */
        ldw   sp,  76(sp)
#else /* ALT_EXCEPTION_STACK disabled */
        addi  sp, sp, 76
 80000f4:	dec01304 	addi	sp,sp,76

        /*
         * Return to the interrupted instruction.
         */

        eret
 80000f8:	ef80083a 	eret

080000fc <alt_irq_handler>:
 * instruction is present if the macro ALT_CI_INTERRUPT_VECTOR defined.
 */

void alt_irq_handler (void) __attribute__ ((section (".exceptions")));
void alt_irq_handler (void)
{
 80000fc:	defff904 	addi	sp,sp,-28
 8000100:	dfc00615 	stw	ra,24(sp)
 8000104:	df000515 	stw	fp,20(sp)
 8000108:	df000504 	addi	fp,sp,20
  
  /*
   * Notify the operating system that we are at interrupt level.
   */ 
  
  ALT_OS_INT_ENTER();
 800010c:	0001883a 	nop
#ifndef NIOS2_EIC_PRESENT
static ALT_INLINE alt_u32 ALT_ALWAYS_INLINE alt_irq_pending (void)
{
  alt_u32 active;

  NIOS2_READ_IPENDING (active);
 8000110:	0005313a 	rdctl	r2,ipending
 8000114:	e0bffc15 	stw	r2,-16(fp)

  return active;
 8000118:	e0bffc17 	ldw	r2,-16(fp)
   * Consider the case where the high priority interupt is asserted during
   * the interrupt entry sequence for a lower priority interrupt to see why
   * this is the case.
   */

  active = alt_irq_pending ();
 800011c:	e0bfff15 	stw	r2,-4(fp)

  do
  {
    i = 0;
 8000120:	e03ffd15 	stw	zero,-12(fp)
    mask = 1;
 8000124:	00800044 	movi	r2,1
 8000128:	e0bffe15 	stw	r2,-8(fp)
     * called to clear the interrupt condition.
     */

    do
    {
      if (active & mask)
 800012c:	e0ffff17 	ldw	r3,-4(fp)
 8000130:	e0bffe17 	ldw	r2,-8(fp)
 8000134:	1884703a 	and	r2,r3,r2
 8000138:	10001126 	beq	r2,zero,8000180 <alt_irq_handler+0x84>
      { 
#ifdef ALT_ENHANCED_INTERRUPT_API_PRESENT
        alt_irq[i].handler(alt_irq[i].context); 
 800013c:	e0bffd17 	ldw	r2,-12(fp)
 8000140:	100690fa 	slli	r3,r2,3
 8000144:	00820074 	movhi	r2,2049
 8000148:	1885883a 	add	r2,r3,r2
 800014c:	10c89817 	ldw	r3,8800(r2)
 8000150:	e0bffd17 	ldw	r2,-12(fp)
 8000154:	100890fa 	slli	r4,r2,3
 8000158:	00820074 	movhi	r2,2049
 800015c:	2085883a 	add	r2,r4,r2
 8000160:	10889917 	ldw	r2,8804(r2)
 8000164:	1009883a 	mov	r4,r2
 8000168:	183ee83a 	callr	r3
#else
        alt_irq[i].handler(alt_irq[i].context, i); 
#endif
        break;
 800016c:	0001883a 	nop
  NIOS2_READ_IPENDING (active);
 8000170:	0005313a 	rdctl	r2,ipending
 8000174:	e0bffb15 	stw	r2,-20(fp)
  return active;
 8000178:	e0bffb17 	ldw	r2,-20(fp)
 800017c:	00000706 	br	800019c <alt_irq_handler+0xa0>
      }
      mask <<= 1;
 8000180:	e0bffe17 	ldw	r2,-8(fp)
 8000184:	1085883a 	add	r2,r2,r2
 8000188:	e0bffe15 	stw	r2,-8(fp)
      i++;
 800018c:	e0bffd17 	ldw	r2,-12(fp)
 8000190:	10800044 	addi	r2,r2,1
 8000194:	e0bffd15 	stw	r2,-12(fp)
      if (active & mask)
 8000198:	003fe406 	br	800012c <alt_irq_handler+0x30>

    } while (1);

    active = alt_irq_pending ();
 800019c:	e0bfff15 	stw	r2,-4(fp)
    
  } while (active);
 80001a0:	e0bfff17 	ldw	r2,-4(fp)
 80001a4:	103fde1e 	bne	r2,zero,8000120 <alt_irq_handler+0x24>

  /*
   * Notify the operating system that interrupt processing is complete.
   */ 

  ALT_OS_INT_EXIT();
 80001a8:	0001883a 	nop
}
 80001ac:	0001883a 	nop
 80001b0:	e037883a 	mov	sp,fp
 80001b4:	dfc00117 	ldw	ra,4(sp)
 80001b8:	df000017 	ldw	fp,0(sp)
 80001bc:	dec00204 	addi	sp,sp,8
 80001c0:	f800283a 	ret

080001c4 <alt_instruction_exception_entry>:
 * that handler if it has been registered. Absent a handler, it will
 * break break or hang as discussed below.
 */
int 
alt_instruction_exception_entry (alt_u32 exception_pc)
{
 80001c4:	defffb04 	addi	sp,sp,-20
 80001c8:	dfc00415 	stw	ra,16(sp)
 80001cc:	df000315 	stw	fp,12(sp)
 80001d0:	df000304 	addi	fp,sp,12
 80001d4:	e13ffd15 	stw	r4,-12(fp)
  cause = ( (cause & NIOS2_EXCEPTION_REG_CAUSE_MASK) >>
              NIOS2_EXCEPTION_REG_CAUSE_OFST );

  NIOS2_READ_BADADDR(badaddr);
#else
  cause = NIOS2_EXCEPTION_CAUSE_NOT_PRESENT;
 80001d8:	00bfffc4 	movi	r2,-1
 80001dc:	e0bfff15 	stw	r2,-4(fp)
  badaddr = 0;
 80001e0:	e03ffe15 	stw	zero,-8(fp)
#endif /* NIOS2_HAS_EXTRA_EXCEPTION_INFO */

  if(alt_instruction_exception_handler) {
 80001e4:	d0a82917 	ldw	r2,-24412(gp)
 80001e8:	10000726 	beq	r2,zero,8000208 <alt_instruction_exception_entry+0x44>
     * Call handler. Its return value indicates whether the exception-causing
     * instruction should be re-issued. The code that called us,
     * alt_eceptions_entry.S, will look at this value and adjust the ea
     * register as necessary
     */
    return alt_instruction_exception_handler(cause, exception_pc, badaddr);
 80001ec:	d0a82917 	ldw	r2,-24412(gp)
 80001f0:	e0ffff17 	ldw	r3,-4(fp)
 80001f4:	e1bffe17 	ldw	r6,-8(fp)
 80001f8:	e17ffd17 	ldw	r5,-12(fp)
 80001fc:	1809883a 	mov	r4,r3
 8000200:	103ee83a 	callr	r2
 8000204:	00000206 	br	8000210 <alt_instruction_exception_entry+0x4c>
   *    (a peripheral which negates its interrupt output before its
   *    interrupt handler has been executed will cause spurious interrupts)
   */
  else {
#ifdef NIOS2_HAS_DEBUG_STUB
    NIOS2_BREAK();
 8000208:	003da03a 	break	0
      ;
#endif /* NIOS2_HAS_DEBUG_STUB */
  }

  /* We should not get here. Remove compiler warning. */
  return NIOS2_EXCEPTION_RETURN_REISSUE_INST;
 800020c:	0005883a 	mov	r2,zero
}
 8000210:	e037883a 	mov	sp,fp
 8000214:	dfc00117 	ldw	ra,4(sp)
 8000218:	df000017 	ldw	fp,0(sp)
 800021c:	dec00204 	addi	sp,sp,8
 8000220:	f800283a 	ret

Disassembly of section .text:

08000224 <_start>:

    /*
     * Now that the caches are initialized, set up the stack pointer and global pointer.
     * The values provided by the linker are assumed to be correctly aligned.
     */
    movhi sp, %hi(__alt_stack_pointer)
 8000224:	06c30034 	movhi	sp,3072
    ori sp, sp, %lo(__alt_stack_pointer)
 8000228:	dec00014 	ori	sp,sp,0
    movhi gp, %hi(_gp)
 800022c:	06820074 	movhi	gp,2049
    ori gp, gp, %lo(_gp)
 8000230:	d6a06414 	ori	gp,gp,33168
 */
#ifndef ALT_SIM_OPTIMIZE
    /* Log that the BSS is about to be cleared. */
    ALT_LOG_PUTS(alt_log_msg_bss)

    movhi r2, %hi(__bss_start)
 8000234:	00820074 	movhi	r2,2049
    ori r2, r2, %lo(__bss_start)
 8000238:	10888214 	ori	r2,r2,8712

    movhi r3, %hi(__bss_end)
 800023c:	00c20074 	movhi	r3,2049
    ori r3, r3, %lo(__bss_end)
 8000240:	18c8d814 	ori	r3,r3,9056

    beq r2, r3, 1f
 8000244:	10c00326 	beq	r2,r3,8000254 <_start+0x30>

0:
    stw zero, (r2)
 8000248:	10000015 	stw	zero,0(r2)
    addi r2, r2, 4
 800024c:	10800104 	addi	r2,r2,4
    bltu r2, r3, 0b
 8000250:	10fffd36 	bltu	r2,r3,8000248 <_start+0x24>
     * section aren't defined until alt_load() has been called).
     */
    mov   et, zero
#endif

    call alt_load
 8000254:	800b9a80 	call	800b9a8 <alt_load>

    /* Log that alt_main is about to be called. */
    ALT_LOG_PUTS(alt_log_msg_alt_main)

    /* Call the C entry point. It should never return. */
    call alt_main
 8000258:	800ba2c0 	call	800ba2c <alt_main>

0800025c <alt_after_alt_main>:

    /* Wait in infinite loop in case alt_main does return. */
alt_after_alt_main:
    br alt_after_alt_main
 800025c:	003fff06 	br	800025c <alt_after_alt_main>

08000260 <main>:
 */
#include "text_mode_vga_color.h"
#include <system.h>
#include <alt_types.h>

int main(){
 8000260:	defffe04 	addi	sp,sp,-8
 8000264:	dfc00115 	stw	ra,4(sp)
 8000268:	df000015 	stw	fp,0(sp)
 800026c:	d839883a 	mov	fp,sp
	textVGAColorScreenSaver();
 8000270:	80006b80 	call	80006b8 <textVGAColorScreenSaver>
    return 1;
 8000274:	00800044 	movi	r2,1
}
 8000278:	e037883a 	mov	sp,fp
 800027c:	dfc00117 	ldw	ra,4(sp)
 8000280:	df000017 	ldw	fp,0(sp)
 8000284:	dec00204 	addi	sp,sp,8
 8000288:	f800283a 	ret

0800028c <paletteTest>:

#include "text_mode_vga_color.h"


void paletteTest()
{
 800028c:	defffa04 	addi	sp,sp,-24
 8000290:	dfc00515 	stw	ra,20(sp)
 8000294:	df000415 	stw	fp,16(sp)
 8000298:	dc400315 	stw	r17,12(sp)
 800029c:	dc000215 	stw	r16,8(sp)
 80002a0:	df000404 	addi	fp,sp,16
	textVGAColorClr();
 80002a4:	80004400 	call	8000440 <textVGAColorClr>
	textVGADrawColorText ("This text should cycle through random colors", 0, 0, 0, 1);
 80002a8:	00800044 	movi	r2,1
 80002ac:	d8800015 	stw	r2,0(sp)
 80002b0:	000f883a 	mov	r7,zero
 80002b4:	000d883a 	mov	r6,zero
 80002b8:	000b883a 	mov	r5,zero
 80002bc:	01020074 	movhi	r4,2049
 80002c0:	2136f304 	addi	r4,r4,-9268
 80002c4:	80004900 	call	8000490 <textVGADrawColorText>

	for (int i = 0; i < 100; i ++)
 80002c8:	e03ffd15 	stw	zero,-12(fp)
 80002cc:	00005106 	br	8000414 <paletteTest+0x188>
	{
		usleep (20000);
 80002d0:	01138804 	movi	r4,20000
 80002d4:	800bba00 	call	800bba0 <usleep>
		setColorPalette(0, 	rand() % 16, rand() % 16,rand() % 16); //set color 0 to random color;
 80002d8:	8000b080 	call	8000b08 <rand>
 80002dc:	1007883a 	mov	r3,r2
 80002e0:	00a00034 	movhi	r2,32768
 80002e4:	108003c4 	addi	r2,r2,15
 80002e8:	1884703a 	and	r2,r3,r2
 80002ec:	1000040e 	bge	r2,zero,8000300 <paletteTest+0x74>
 80002f0:	10bfffc4 	addi	r2,r2,-1
 80002f4:	00fffc04 	movi	r3,-16
 80002f8:	10c4b03a 	or	r2,r2,r3
 80002fc:	10800044 	addi	r2,r2,1
 8000300:	14003fcc 	andi	r16,r2,255
 8000304:	8000b080 	call	8000b08 <rand>
 8000308:	1007883a 	mov	r3,r2
 800030c:	00a00034 	movhi	r2,32768
 8000310:	108003c4 	addi	r2,r2,15
 8000314:	1884703a 	and	r2,r3,r2
 8000318:	1000040e 	bge	r2,zero,800032c <paletteTest+0xa0>
 800031c:	10bfffc4 	addi	r2,r2,-1
 8000320:	00fffc04 	movi	r3,-16
 8000324:	10c4b03a 	or	r2,r2,r3
 8000328:	10800044 	addi	r2,r2,1
 800032c:	14403fcc 	andi	r17,r2,255
 8000330:	8000b080 	call	8000b08 <rand>
 8000334:	1007883a 	mov	r3,r2
 8000338:	00a00034 	movhi	r2,32768
 800033c:	108003c4 	addi	r2,r2,15
 8000340:	1884703a 	and	r2,r3,r2
 8000344:	1000040e 	bge	r2,zero,8000358 <paletteTest+0xcc>
 8000348:	10bfffc4 	addi	r2,r2,-1
 800034c:	00fffc04 	movi	r3,-16
 8000350:	10c4b03a 	or	r2,r2,r3
 8000354:	10800044 	addi	r2,r2,1
 8000358:	10803fcc 	andi	r2,r2,255
 800035c:	100f883a 	mov	r7,r2
 8000360:	880d883a 	mov	r6,r17
 8000364:	800b883a 	mov	r5,r16
 8000368:	0009883a 	mov	r4,zero
 800036c:	80005ac0 	call	80005ac <setColorPalette>
		setColorPalette(1, 	rand() % 16, rand() % 16,rand() % 16); //set color 1 to random color;
 8000370:	8000b080 	call	8000b08 <rand>
 8000374:	1007883a 	mov	r3,r2
 8000378:	00a00034 	movhi	r2,32768
 800037c:	108003c4 	addi	r2,r2,15
 8000380:	1884703a 	and	r2,r3,r2
 8000384:	1000040e 	bge	r2,zero,8000398 <paletteTest+0x10c>
 8000388:	10bfffc4 	addi	r2,r2,-1
 800038c:	00fffc04 	movi	r3,-16
 8000390:	10c4b03a 	or	r2,r2,r3
 8000394:	10800044 	addi	r2,r2,1
 8000398:	14003fcc 	andi	r16,r2,255
 800039c:	8000b080 	call	8000b08 <rand>
 80003a0:	1007883a 	mov	r3,r2
 80003a4:	00a00034 	movhi	r2,32768
 80003a8:	108003c4 	addi	r2,r2,15
 80003ac:	1884703a 	and	r2,r3,r2
 80003b0:	1000040e 	bge	r2,zero,80003c4 <paletteTest+0x138>
 80003b4:	10bfffc4 	addi	r2,r2,-1
 80003b8:	00fffc04 	movi	r3,-16
 80003bc:	10c4b03a 	or	r2,r2,r3
 80003c0:	10800044 	addi	r2,r2,1
 80003c4:	14403fcc 	andi	r17,r2,255
 80003c8:	8000b080 	call	8000b08 <rand>
 80003cc:	1007883a 	mov	r3,r2
 80003d0:	00a00034 	movhi	r2,32768
 80003d4:	108003c4 	addi	r2,r2,15
 80003d8:	1884703a 	and	r2,r3,r2
 80003dc:	1000040e 	bge	r2,zero,80003f0 <paletteTest+0x164>
 80003e0:	10bfffc4 	addi	r2,r2,-1
 80003e4:	00fffc04 	movi	r3,-16
 80003e8:	10c4b03a 	or	r2,r2,r3
 80003ec:	10800044 	addi	r2,r2,1
 80003f0:	10803fcc 	andi	r2,r2,255
 80003f4:	100f883a 	mov	r7,r2
 80003f8:	880d883a 	mov	r6,r17
 80003fc:	800b883a 	mov	r5,r16
 8000400:	01000044 	movi	r4,1
 8000404:	80005ac0 	call	80005ac <setColorPalette>
	for (int i = 0; i < 100; i ++)
 8000408:	e0bffd17 	ldw	r2,-12(fp)
 800040c:	10800044 	addi	r2,r2,1
 8000410:	e0bffd15 	stw	r2,-12(fp)
 8000414:	e0bffd17 	ldw	r2,-12(fp)
 8000418:	10801910 	cmplti	r2,r2,100
 800041c:	103fac1e 	bne	r2,zero,80002d0 <paletteTest+0x44>
	}

}
 8000420:	0001883a 	nop
 8000424:	e6fffe04 	addi	sp,fp,-8
 8000428:	dfc00317 	ldw	ra,12(sp)
 800042c:	df000217 	ldw	fp,8(sp)
 8000430:	dc400117 	ldw	r17,4(sp)
 8000434:	dc000017 	ldw	r16,0(sp)
 8000438:	dec00404 	addi	sp,sp,16
 800043c:	f800283a 	ret

08000440 <textVGAColorClr>:
#include <alt_types.h>
#include "text_mode_vga_color.h"
#include <stddef.h>

void textVGAColorClr()
{
 8000440:	defffe04 	addi	sp,sp,-8
 8000444:	df000115 	stw	fp,4(sp)
 8000448:	df000104 	addi	fp,sp,4
	for (int i = 0; i<(ROWS*COLUMNS) * 2; i++)
 800044c:	e03fff15 	stw	zero,-4(fp)
 8000450:	00000706 	br	8000470 <textVGAColorClr+0x30>
	{
		vga_ctrl->VRAM[i] = 0x00;
 8000454:	d0e00217 	ldw	r3,-32760(gp)
 8000458:	e0bfff17 	ldw	r2,-4(fp)
 800045c:	1885883a 	add	r2,r3,r2
 8000460:	10000005 	stb	zero,0(r2)
	for (int i = 0; i<(ROWS*COLUMNS) * 2; i++)
 8000464:	e0bfff17 	ldw	r2,-4(fp)
 8000468:	10800044 	addi	r2,r2,1
 800046c:	e0bfff15 	stw	r2,-4(fp)
 8000470:	e0bfff17 	ldw	r2,-4(fp)
 8000474:	1084b010 	cmplti	r2,r2,4800
 8000478:	103ff61e 	bne	r2,zero,8000454 <textVGAColorClr+0x14>
	}
}
 800047c:	0001883a 	nop
 8000480:	e037883a 	mov	sp,fp
 8000484:	df000017 	ldw	fp,0(sp)
 8000488:	dec00104 	addi	sp,sp,4
 800048c:	f800283a 	ret

08000490 <textVGADrawColorText>:

void textVGADrawColorText(char* str, int x, int y, alt_u8 background, alt_u8 foreground)
{
 8000490:	defff604 	addi	sp,sp,-40
 8000494:	dfc00915 	stw	ra,36(sp)
 8000498:	df000815 	stw	fp,32(sp)
 800049c:	dc400715 	stw	r17,28(sp)
 80004a0:	dc000615 	stw	r16,24(sp)
 80004a4:	df000804 	addi	fp,sp,32
 80004a8:	e13ffc15 	stw	r4,-16(fp)
 80004ac:	e17ffb15 	stw	r5,-20(fp)
 80004b0:	e1bffa15 	stw	r6,-24(fp)
 80004b4:	3807883a 	mov	r3,r7
 80004b8:	e0800217 	ldw	r2,8(fp)
 80004bc:	e0fff905 	stb	r3,-28(fp)
 80004c0:	e0bff805 	stb	r2,-32(fp)
	int i = 0;
 80004c4:	e03ffd15 	stw	zero,-12(fp)
	while (str[i]!=0)
 80004c8:	00002806 	br	800056c <textVGADrawColorText+0xdc>
	{
		vga_ctrl->VRAM[(y*COLUMNS + x + i) * 2] = foreground << 4 | background;
 80004cc:	e0bff803 	ldbu	r2,-32(fp)
 80004d0:	1004913a 	slli	r2,r2,4
 80004d4:	1007883a 	mov	r3,r2
 80004d8:	e0bff903 	ldbu	r2,-28(fp)
 80004dc:	1884b03a 	or	r2,r3,r2
 80004e0:	1023883a 	mov	r17,r2
 80004e4:	d4200217 	ldw	r16,-32760(gp)
 80004e8:	01401404 	movi	r5,80
 80004ec:	e13ffa17 	ldw	r4,-24(fp)
 80004f0:	8000acc0 	call	8000acc <__mulsi3>
 80004f4:	1007883a 	mov	r3,r2
 80004f8:	e0bffb17 	ldw	r2,-20(fp)
 80004fc:	1887883a 	add	r3,r3,r2
 8000500:	e0bffd17 	ldw	r2,-12(fp)
 8000504:	1885883a 	add	r2,r3,r2
 8000508:	1085883a 	add	r2,r2,r2
 800050c:	8807883a 	mov	r3,r17
 8000510:	8085883a 	add	r2,r16,r2
 8000514:	10c00005 	stb	r3,0(r2)
		vga_ctrl->VRAM[(y*COLUMNS + x + i) * 2 + 1] = str[i];
 8000518:	e0bffd17 	ldw	r2,-12(fp)
 800051c:	e0fffc17 	ldw	r3,-16(fp)
 8000520:	1885883a 	add	r2,r3,r2
 8000524:	14400003 	ldbu	r17,0(r2)
 8000528:	d4200217 	ldw	r16,-32760(gp)
 800052c:	01401404 	movi	r5,80
 8000530:	e13ffa17 	ldw	r4,-24(fp)
 8000534:	8000acc0 	call	8000acc <__mulsi3>
 8000538:	1007883a 	mov	r3,r2
 800053c:	e0bffb17 	ldw	r2,-20(fp)
 8000540:	1887883a 	add	r3,r3,r2
 8000544:	e0bffd17 	ldw	r2,-12(fp)
 8000548:	1885883a 	add	r2,r3,r2
 800054c:	1085883a 	add	r2,r2,r2
 8000550:	10800044 	addi	r2,r2,1
 8000554:	8807883a 	mov	r3,r17
 8000558:	8085883a 	add	r2,r16,r2
 800055c:	10c00005 	stb	r3,0(r2)
		i++;
 8000560:	e0bffd17 	ldw	r2,-12(fp)
 8000564:	10800044 	addi	r2,r2,1
 8000568:	e0bffd15 	stw	r2,-12(fp)
	while (str[i]!=0)
 800056c:	e0bffd17 	ldw	r2,-12(fp)
 8000570:	e0fffc17 	ldw	r3,-16(fp)
 8000574:	1885883a 	add	r2,r3,r2
 8000578:	10800003 	ldbu	r2,0(r2)
 800057c:	10803fcc 	andi	r2,r2,255
 8000580:	1080201c 	xori	r2,r2,128
 8000584:	10bfe004 	addi	r2,r2,-128
 8000588:	103fd01e 	bne	r2,zero,80004cc <textVGADrawColorText+0x3c>
	}
}
 800058c:	0001883a 	nop
 8000590:	e6fffe04 	addi	sp,fp,-8
 8000594:	dfc00317 	ldw	ra,12(sp)
 8000598:	df000217 	ldw	fp,8(sp)
 800059c:	dc400117 	ldw	r17,4(sp)
 80005a0:	dc000017 	ldw	r16,0(sp)
 80005a4:	dec00404 	addi	sp,sp,16
 80005a8:	f800283a 	ret

080005ac <setColorPalette>:

void setColorPalette (alt_u8 color, alt_u8 red, alt_u8 green, alt_u8 blue)
{
 80005ac:	defffb04 	addi	sp,sp,-20
 80005b0:	df000415 	stw	fp,16(sp)
 80005b4:	df000404 	addi	fp,sp,16
 80005b8:	2005883a 	mov	r2,r4
 80005bc:	3009883a 	mov	r4,r6
 80005c0:	3807883a 	mov	r3,r7
 80005c4:	e0bfff05 	stb	r2,-4(fp)
 80005c8:	2805883a 	mov	r2,r5
 80005cc:	e0bffe05 	stb	r2,-8(fp)
 80005d0:	2005883a 	mov	r2,r4
 80005d4:	e0bffd05 	stb	r2,-12(fp)
 80005d8:	1805883a 	mov	r2,r3
 80005dc:	e0bffc05 	stb	r2,-16(fp)
	//fill in this function to set the color palette starting at offset 0x0000 2000 (from base)
	if (color % 2 == 0)
 80005e0:	e0bfff03 	ldbu	r2,-4(fp)
 80005e4:	1080004c 	andi	r2,r2,1
 80005e8:	10803fcc 	andi	r2,r2,255
 80005ec:	1000171e 	bne	r2,zero,800064c <setColorPalette+0xa0>
	{
		vga_ctrl->Palette[4 * (color / 2)] =  blue << 4;
 80005f0:	d0e00217 	ldw	r3,-32760(gp)
 80005f4:	e0bfff03 	ldbu	r2,-4(fp)
 80005f8:	1004d07a 	srli	r2,r2,1
 80005fc:	10803fcc 	andi	r2,r2,255
 8000600:	100490ba 	slli	r2,r2,2
 8000604:	e13ffc03 	ldbu	r4,-16(fp)
 8000608:	2008913a 	slli	r4,r4,4
 800060c:	1885883a 	add	r2,r3,r2
 8000610:	11080005 	stb	r4,8192(r2)
		vga_ctrl->Palette[(4 * (color / 2)) + 1] = (red << 4) + green;
 8000614:	e0bffe03 	ldbu	r2,-8(fp)
 8000618:	1004913a 	slli	r2,r2,4
 800061c:	100b883a 	mov	r5,r2
 8000620:	d0e00217 	ldw	r3,-32760(gp)
 8000624:	e0bfff03 	ldbu	r2,-4(fp)
 8000628:	1004d07a 	srli	r2,r2,1
 800062c:	10803fcc 	andi	r2,r2,255
 8000630:	100490ba 	slli	r2,r2,2
 8000634:	10800044 	addi	r2,r2,1
 8000638:	e13ffd03 	ldbu	r4,-12(fp)
 800063c:	2149883a 	add	r4,r4,r5
 8000640:	1885883a 	add	r2,r3,r2
 8000644:	11080005 	stb	r4,8192(r2)
	else
	{
		vga_ctrl->Palette[(4 * (color / 2)) + 2] = (green << 4) + blue;
		vga_ctrl->Palette[(4 * (color / 2)) + 3] = red;
	}
}
 8000648:	00001606 	br	80006a4 <setColorPalette+0xf8>
		vga_ctrl->Palette[(4 * (color / 2)) + 2] = (green << 4) + blue;
 800064c:	e0bffd03 	ldbu	r2,-12(fp)
 8000650:	1004913a 	slli	r2,r2,4
 8000654:	100b883a 	mov	r5,r2
 8000658:	d0e00217 	ldw	r3,-32760(gp)
 800065c:	e0bfff03 	ldbu	r2,-4(fp)
 8000660:	1004d07a 	srli	r2,r2,1
 8000664:	10803fcc 	andi	r2,r2,255
 8000668:	100490ba 	slli	r2,r2,2
 800066c:	10800084 	addi	r2,r2,2
 8000670:	e13ffc03 	ldbu	r4,-16(fp)
 8000674:	2149883a 	add	r4,r4,r5
 8000678:	1885883a 	add	r2,r3,r2
 800067c:	11080005 	stb	r4,8192(r2)
		vga_ctrl->Palette[(4 * (color / 2)) + 3] = red;
 8000680:	d0e00217 	ldw	r3,-32760(gp)
 8000684:	e0bfff03 	ldbu	r2,-4(fp)
 8000688:	1004d07a 	srli	r2,r2,1
 800068c:	10803fcc 	andi	r2,r2,255
 8000690:	100490ba 	slli	r2,r2,2
 8000694:	108000c4 	addi	r2,r2,3
 8000698:	1885883a 	add	r2,r3,r2
 800069c:	e0fffe03 	ldbu	r3,-8(fp)
 80006a0:	10c80005 	stb	r3,8192(r2)
}
 80006a4:	0001883a 	nop
 80006a8:	e037883a 	mov	sp,fp
 80006ac:	df000017 	ldw	fp,0(sp)
 80006b0:	dec00104 	addi	sp,sp,4
 80006b4:	f800283a 	ret

080006b8 <textVGAColorScreenSaver>:


void textVGAColorScreenSaver()
{
 80006b8:	deffe104 	addi	sp,sp,-124
 80006bc:	dfc01e15 	stw	ra,120(sp)
 80006c0:	df001d15 	stw	fp,116(sp)
 80006c4:	dc801c15 	stw	r18,112(sp)
 80006c8:	dc401b15 	stw	r17,108(sp)
 80006cc:	dc001a15 	stw	r16,104(sp)
 80006d0:	df001d04 	addi	fp,sp,116
	//This is the function you call for your week 2 demo
	char color_string[80];
    int fg, bg, x, y;
	textVGAColorClr();
 80006d4:	80004400 	call	8000440 <textVGAColorClr>
	//initialize palette
	for (int i = 0; i < 16; i++)
 80006d8:	e03ffa15 	stw	zero,-24(fp)
 80006dc:	00002506 	br	8000774 <textVGAColorScreenSaver+0xbc>
	{
		setColorPalette (i, colors[i].red, colors[i].green, colors[i].blue);
 80006e0:	e0bffa17 	ldw	r2,-24(fp)
 80006e4:	14003fcc 	andi	r16,r2,255
 80006e8:	e0bffa17 	ldw	r2,-24(fp)
 80006ec:	014005c4 	movi	r5,23
 80006f0:	1009883a 	mov	r4,r2
 80006f4:	8000acc0 	call	8000acc <__mulsi3>
 80006f8:	1007883a 	mov	r3,r2
 80006fc:	00820074 	movhi	r2,2049
 8000700:	1885883a 	add	r2,r3,r2
 8000704:	10b92503 	ldbu	r2,-7020(r2)
 8000708:	14403fcc 	andi	r17,r2,255
 800070c:	e0bffa17 	ldw	r2,-24(fp)
 8000710:	014005c4 	movi	r5,23
 8000714:	1009883a 	mov	r4,r2
 8000718:	8000acc0 	call	8000acc <__mulsi3>
 800071c:	1007883a 	mov	r3,r2
 8000720:	00820074 	movhi	r2,2049
 8000724:	1885883a 	add	r2,r3,r2
 8000728:	10b92543 	ldbu	r2,-7019(r2)
 800072c:	14803fcc 	andi	r18,r2,255
 8000730:	e0bffa17 	ldw	r2,-24(fp)
 8000734:	014005c4 	movi	r5,23
 8000738:	1009883a 	mov	r4,r2
 800073c:	8000acc0 	call	8000acc <__mulsi3>
 8000740:	1007883a 	mov	r3,r2
 8000744:	00820074 	movhi	r2,2049
 8000748:	1885883a 	add	r2,r3,r2
 800074c:	10b92583 	ldbu	r2,-7018(r2)
 8000750:	10803fcc 	andi	r2,r2,255
 8000754:	100f883a 	mov	r7,r2
 8000758:	900d883a 	mov	r6,r18
 800075c:	880b883a 	mov	r5,r17
 8000760:	8009883a 	mov	r4,r16
 8000764:	80005ac0 	call	80005ac <setColorPalette>
	for (int i = 0; i < 16; i++)
 8000768:	e0bffa17 	ldw	r2,-24(fp)
 800076c:	10800044 	addi	r2,r2,1
 8000770:	e0bffa15 	stw	r2,-24(fp)
 8000774:	e0bffa17 	ldw	r2,-24(fp)
 8000778:	10800410 	cmplti	r2,r2,16
 800077c:	103fd81e 	bne	r2,zero,80006e0 <textVGAColorScreenSaver+0x28>
	}
	while (1)
	{
		fg = rand() % 16;
 8000780:	8000b080 	call	8000b08 <rand>
 8000784:	1007883a 	mov	r3,r2
 8000788:	00a00034 	movhi	r2,32768
 800078c:	108003c4 	addi	r2,r2,15
 8000790:	1884703a 	and	r2,r3,r2
 8000794:	1000040e 	bge	r2,zero,80007a8 <textVGAColorScreenSaver+0xf0>
 8000798:	10bfffc4 	addi	r2,r2,-1
 800079c:	00fffc04 	movi	r3,-16
 80007a0:	10c4b03a 	or	r2,r2,r3
 80007a4:	10800044 	addi	r2,r2,1
 80007a8:	e0bffc15 	stw	r2,-16(fp)
		bg = rand() % 16;
 80007ac:	8000b080 	call	8000b08 <rand>
 80007b0:	1007883a 	mov	r3,r2
 80007b4:	00a00034 	movhi	r2,32768
 80007b8:	108003c4 	addi	r2,r2,15
 80007bc:	1884703a 	and	r2,r3,r2
 80007c0:	1000040e 	bge	r2,zero,80007d4 <textVGAColorScreenSaver+0x11c>
 80007c4:	10bfffc4 	addi	r2,r2,-1
 80007c8:	00fffc04 	movi	r3,-16
 80007cc:	10c4b03a 	or	r2,r2,r3
 80007d0:	10800044 	addi	r2,r2,1
 80007d4:	e0bffb15 	stw	r2,-20(fp)
		while (fg == bg)
 80007d8:	00001606 	br	8000834 <textVGAColorScreenSaver+0x17c>
		{
			fg = rand() % 16;
 80007dc:	8000b080 	call	8000b08 <rand>
 80007e0:	1007883a 	mov	r3,r2
 80007e4:	00a00034 	movhi	r2,32768
 80007e8:	108003c4 	addi	r2,r2,15
 80007ec:	1884703a 	and	r2,r3,r2
 80007f0:	1000040e 	bge	r2,zero,8000804 <textVGAColorScreenSaver+0x14c>
 80007f4:	10bfffc4 	addi	r2,r2,-1
 80007f8:	00fffc04 	movi	r3,-16
 80007fc:	10c4b03a 	or	r2,r2,r3
 8000800:	10800044 	addi	r2,r2,1
 8000804:	e0bffc15 	stw	r2,-16(fp)
			bg = rand() % 16;
 8000808:	8000b080 	call	8000b08 <rand>
 800080c:	1007883a 	mov	r3,r2
 8000810:	00a00034 	movhi	r2,32768
 8000814:	108003c4 	addi	r2,r2,15
 8000818:	1884703a 	and	r2,r3,r2
 800081c:	1000040e 	bge	r2,zero,8000830 <textVGAColorScreenSaver+0x178>
 8000820:	10bfffc4 	addi	r2,r2,-1
 8000824:	00fffc04 	movi	r3,-16
 8000828:	10c4b03a 	or	r2,r2,r3
 800082c:	10800044 	addi	r2,r2,1
 8000830:	e0bffb15 	stw	r2,-20(fp)
		while (fg == bg)
 8000834:	e0fffc17 	ldw	r3,-16(fp)
 8000838:	e0bffb17 	ldw	r2,-20(fp)
 800083c:	18bfe726 	beq	r3,r2,80007dc <textVGAColorScreenSaver+0x124>
		}
		sprintf(color_string, "Drawing %s text with %s background", colors[fg].name, colors[bg].name);
 8000840:	014005c4 	movi	r5,23
 8000844:	e13ffc17 	ldw	r4,-16(fp)
 8000848:	8000acc0 	call	8000acc <__mulsi3>
 800084c:	1007883a 	mov	r3,r2
 8000850:	00820074 	movhi	r2,2049
 8000854:	10b92004 	addi	r2,r2,-7040
 8000858:	18a1883a 	add	r16,r3,r2
 800085c:	014005c4 	movi	r5,23
 8000860:	e13ffb17 	ldw	r4,-20(fp)
 8000864:	8000acc0 	call	8000acc <__mulsi3>
 8000868:	1007883a 	mov	r3,r2
 800086c:	00820074 	movhi	r2,2049
 8000870:	10b92004 	addi	r2,r2,-7040
 8000874:	1887883a 	add	r3,r3,r2
 8000878:	e0bfe404 	addi	r2,fp,-112
 800087c:	180f883a 	mov	r7,r3
 8000880:	800d883a 	mov	r6,r16
 8000884:	01420074 	movhi	r5,2049
 8000888:	2976ff04 	addi	r5,r5,-9220
 800088c:	1009883a 	mov	r4,r2
 8000890:	8000bbc0 	call	8000bbc <sprintf>
		x = rand() % (80-strlen(color_string));
 8000894:	8000b080 	call	8000b08 <rand>
 8000898:	1021883a 	mov	r16,r2
 800089c:	e0bfe404 	addi	r2,fp,-112
 80008a0:	1009883a 	mov	r4,r2
 80008a4:	8000c200 	call	8000c20 <strlen>
 80008a8:	1007883a 	mov	r3,r2
 80008ac:	00801404 	movi	r2,80
 80008b0:	10c5c83a 	sub	r2,r2,r3
 80008b4:	100b883a 	mov	r5,r2
 80008b8:	8009883a 	mov	r4,r16
 80008bc:	8000a700 	call	8000a70 <__umodsi3>
 80008c0:	e0bff915 	stw	r2,-28(fp)
		y = rand() % 30;
 80008c4:	8000b080 	call	8000b08 <rand>
 80008c8:	01400784 	movi	r5,30
 80008cc:	1009883a 	mov	r4,r2
 80008d0:	80009940 	call	8000994 <__modsi3>
 80008d4:	e0bff815 	stw	r2,-32(fp)
		textVGADrawColorText (color_string, x, y, bg, fg);
 80008d8:	e0bffb17 	ldw	r2,-20(fp)
 80008dc:	11003fcc 	andi	r4,r2,255
 80008e0:	e0bffc17 	ldw	r2,-16(fp)
 80008e4:	10803fcc 	andi	r2,r2,255
 80008e8:	e0ffe404 	addi	r3,fp,-112
 80008ec:	d8800015 	stw	r2,0(sp)
 80008f0:	200f883a 	mov	r7,r4
 80008f4:	e1bff817 	ldw	r6,-32(fp)
 80008f8:	e17ff917 	ldw	r5,-28(fp)
 80008fc:	1809883a 	mov	r4,r3
 8000900:	80004900 	call	8000490 <textVGADrawColorText>
		usleep (100000);
 8000904:	010000b4 	movhi	r4,2
 8000908:	2121a804 	addi	r4,r4,-31072
 800090c:	800bba00 	call	800bba0 <usleep>
	{
 8000910:	003f9b06 	br	8000780 <textVGAColorScreenSaver+0xc8>

08000914 <__divsi3>:
 8000914:	20001a16 	blt	r4,zero,8000980 <__divsi3+0x6c>
 8000918:	000f883a 	mov	r7,zero
 800091c:	2800020e 	bge	r5,zero,8000928 <__divsi3+0x14>
 8000920:	014bc83a 	sub	r5,zero,r5
 8000924:	39c0005c 	xori	r7,r7,1
 8000928:	200d883a 	mov	r6,r4
 800092c:	00c00044 	movi	r3,1
 8000930:	2900092e 	bgeu	r5,r4,8000958 <__divsi3+0x44>
 8000934:	00800804 	movi	r2,32
 8000938:	00c00044 	movi	r3,1
 800093c:	00000106 	br	8000944 <__divsi3+0x30>
 8000940:	10001226 	beq	r2,zero,800098c <__divsi3+0x78>
 8000944:	294b883a 	add	r5,r5,r5
 8000948:	10bfffc4 	addi	r2,r2,-1
 800094c:	18c7883a 	add	r3,r3,r3
 8000950:	293ffb36 	bltu	r5,r4,8000940 <__divsi3+0x2c>
 8000954:	18000d26 	beq	r3,zero,800098c <__divsi3+0x78>
 8000958:	0005883a 	mov	r2,zero
 800095c:	31400236 	bltu	r6,r5,8000968 <__divsi3+0x54>
 8000960:	314dc83a 	sub	r6,r6,r5
 8000964:	10c4b03a 	or	r2,r2,r3
 8000968:	1806d07a 	srli	r3,r3,1
 800096c:	280ad07a 	srli	r5,r5,1
 8000970:	183ffa1e 	bne	r3,zero,800095c <__divsi3+0x48>
 8000974:	38000126 	beq	r7,zero,800097c <__divsi3+0x68>
 8000978:	0085c83a 	sub	r2,zero,r2
 800097c:	f800283a 	ret
 8000980:	0109c83a 	sub	r4,zero,r4
 8000984:	01c00044 	movi	r7,1
 8000988:	003fe406 	br	800091c <__divsi3+0x8>
 800098c:	0005883a 	mov	r2,zero
 8000990:	003ff806 	br	8000974 <__divsi3+0x60>

08000994 <__modsi3>:
 8000994:	20001a16 	blt	r4,zero,8000a00 <__modsi3+0x6c>
 8000998:	000f883a 	mov	r7,zero
 800099c:	2005883a 	mov	r2,r4
 80009a0:	2800010e 	bge	r5,zero,80009a8 <__modsi3+0x14>
 80009a4:	014bc83a 	sub	r5,zero,r5
 80009a8:	00c00044 	movi	r3,1
 80009ac:	2900092e 	bgeu	r5,r4,80009d4 <__modsi3+0x40>
 80009b0:	01800804 	movi	r6,32
 80009b4:	00c00044 	movi	r3,1
 80009b8:	00000106 	br	80009c0 <__modsi3+0x2c>
 80009bc:	30000d26 	beq	r6,zero,80009f4 <__modsi3+0x60>
 80009c0:	294b883a 	add	r5,r5,r5
 80009c4:	31bfffc4 	addi	r6,r6,-1
 80009c8:	18c7883a 	add	r3,r3,r3
 80009cc:	293ffb36 	bltu	r5,r4,80009bc <__modsi3+0x28>
 80009d0:	18000826 	beq	r3,zero,80009f4 <__modsi3+0x60>
 80009d4:	1806d07a 	srli	r3,r3,1
 80009d8:	11400136 	bltu	r2,r5,80009e0 <__modsi3+0x4c>
 80009dc:	1145c83a 	sub	r2,r2,r5
 80009e0:	280ad07a 	srli	r5,r5,1
 80009e4:	183ffb1e 	bne	r3,zero,80009d4 <__modsi3+0x40>
 80009e8:	38000126 	beq	r7,zero,80009f0 <__modsi3+0x5c>
 80009ec:	0085c83a 	sub	r2,zero,r2
 80009f0:	f800283a 	ret
 80009f4:	2005883a 	mov	r2,r4
 80009f8:	383ffd26 	beq	r7,zero,80009f0 <__modsi3+0x5c>
 80009fc:	003ffb06 	br	80009ec <__modsi3+0x58>
 8000a00:	0109c83a 	sub	r4,zero,r4
 8000a04:	01c00044 	movi	r7,1
 8000a08:	003fe406 	br	800099c <__modsi3+0x8>

08000a0c <__udivsi3>:
 8000a0c:	200d883a 	mov	r6,r4
 8000a10:	2900152e 	bgeu	r5,r4,8000a68 <__udivsi3+0x5c>
 8000a14:	28001416 	blt	r5,zero,8000a68 <__udivsi3+0x5c>
 8000a18:	00800804 	movi	r2,32
 8000a1c:	00c00044 	movi	r3,1
 8000a20:	00000206 	br	8000a2c <__udivsi3+0x20>
 8000a24:	10000e26 	beq	r2,zero,8000a60 <__udivsi3+0x54>
 8000a28:	28000516 	blt	r5,zero,8000a40 <__udivsi3+0x34>
 8000a2c:	294b883a 	add	r5,r5,r5
 8000a30:	10bfffc4 	addi	r2,r2,-1
 8000a34:	18c7883a 	add	r3,r3,r3
 8000a38:	293ffa36 	bltu	r5,r4,8000a24 <__udivsi3+0x18>
 8000a3c:	18000826 	beq	r3,zero,8000a60 <__udivsi3+0x54>
 8000a40:	0005883a 	mov	r2,zero
 8000a44:	31400236 	bltu	r6,r5,8000a50 <__udivsi3+0x44>
 8000a48:	314dc83a 	sub	r6,r6,r5
 8000a4c:	10c4b03a 	or	r2,r2,r3
 8000a50:	1806d07a 	srli	r3,r3,1
 8000a54:	280ad07a 	srli	r5,r5,1
 8000a58:	183ffa1e 	bne	r3,zero,8000a44 <__udivsi3+0x38>
 8000a5c:	f800283a 	ret
 8000a60:	0005883a 	mov	r2,zero
 8000a64:	f800283a 	ret
 8000a68:	00c00044 	movi	r3,1
 8000a6c:	003ff406 	br	8000a40 <__udivsi3+0x34>

08000a70 <__umodsi3>:
 8000a70:	2005883a 	mov	r2,r4
 8000a74:	2900132e 	bgeu	r5,r4,8000ac4 <__umodsi3+0x54>
 8000a78:	28001216 	blt	r5,zero,8000ac4 <__umodsi3+0x54>
 8000a7c:	01800804 	movi	r6,32
 8000a80:	00c00044 	movi	r3,1
 8000a84:	00000206 	br	8000a90 <__umodsi3+0x20>
 8000a88:	30000c26 	beq	r6,zero,8000abc <__umodsi3+0x4c>
 8000a8c:	28000516 	blt	r5,zero,8000aa4 <__umodsi3+0x34>
 8000a90:	294b883a 	add	r5,r5,r5
 8000a94:	31bfffc4 	addi	r6,r6,-1
 8000a98:	18c7883a 	add	r3,r3,r3
 8000a9c:	293ffa36 	bltu	r5,r4,8000a88 <__umodsi3+0x18>
 8000aa0:	18000626 	beq	r3,zero,8000abc <__umodsi3+0x4c>
 8000aa4:	1806d07a 	srli	r3,r3,1
 8000aa8:	11400136 	bltu	r2,r5,8000ab0 <__umodsi3+0x40>
 8000aac:	1145c83a 	sub	r2,r2,r5
 8000ab0:	280ad07a 	srli	r5,r5,1
 8000ab4:	183ffb1e 	bne	r3,zero,8000aa4 <__umodsi3+0x34>
 8000ab8:	f800283a 	ret
 8000abc:	2005883a 	mov	r2,r4
 8000ac0:	f800283a 	ret
 8000ac4:	00c00044 	movi	r3,1
 8000ac8:	003ff606 	br	8000aa4 <__umodsi3+0x34>

08000acc <__mulsi3>:
 8000acc:	0005883a 	mov	r2,zero
 8000ad0:	20000726 	beq	r4,zero,8000af0 <__mulsi3+0x24>
 8000ad4:	20c0004c 	andi	r3,r4,1
 8000ad8:	2008d07a 	srli	r4,r4,1
 8000adc:	18000126 	beq	r3,zero,8000ae4 <__mulsi3+0x18>
 8000ae0:	1145883a 	add	r2,r2,r5
 8000ae4:	294b883a 	add	r5,r5,r5
 8000ae8:	203ffa1e 	bne	r4,zero,8000ad4 <__mulsi3+0x8>
 8000aec:	f800283a 	ret
 8000af0:	f800283a 	ret

08000af4 <srand>:
 8000af4:	00820074 	movhi	r2,2049
 8000af8:	10806817 	ldw	r2,416(r2)
 8000afc:	11002915 	stw	r4,164(r2)
 8000b00:	10002a15 	stw	zero,168(r2)
 8000b04:	f800283a 	ret

08000b08 <rand>:
 8000b08:	defffe04 	addi	sp,sp,-8
 8000b0c:	00820074 	movhi	r2,2049
 8000b10:	dc000015 	stw	r16,0(sp)
 8000b14:	14006817 	ldw	r16,416(r2)
 8000b18:	dfc00115 	stw	ra,4(sp)
 8000b1c:	01932574 	movhi	r6,19605
 8000b20:	81002917 	ldw	r4,164(r16)
 8000b24:	81402a17 	ldw	r5,168(r16)
 8000b28:	01d614b4 	movhi	r7,22610
 8000b2c:	319fcb44 	addi	r6,r6,32557
 8000b30:	39fd0b44 	addi	r7,r7,-3027
 8000b34:	80083180 	call	8008318 <__muldi3>
 8000b38:	11400044 	addi	r5,r2,1
 8000b3c:	2885803a 	cmpltu	r2,r5,r2
 8000b40:	01200034 	movhi	r4,32768
 8000b44:	10c5883a 	add	r2,r2,r3
 8000b48:	213fffc4 	addi	r4,r4,-1
 8000b4c:	80802a15 	stw	r2,168(r16)
 8000b50:	1104703a 	and	r2,r2,r4
 8000b54:	81402915 	stw	r5,164(r16)
 8000b58:	dfc00117 	ldw	ra,4(sp)
 8000b5c:	dc000017 	ldw	r16,0(sp)
 8000b60:	dec00204 	addi	sp,sp,8
 8000b64:	f800283a 	ret

08000b68 <_sprintf_r>:
 8000b68:	deffe404 	addi	sp,sp,-112
 8000b6c:	2811883a 	mov	r8,r5
 8000b70:	dfc01a15 	stw	ra,104(sp)
 8000b74:	d9c01b15 	stw	r7,108(sp)
 8000b78:	00a00034 	movhi	r2,32768
 8000b7c:	00fffff4 	movhi	r3,65535
 8000b80:	10bfffc4 	addi	r2,r2,-1
 8000b84:	18c08204 	addi	r3,r3,520
 8000b88:	d9c01b04 	addi	r7,sp,108
 8000b8c:	d80b883a 	mov	r5,sp
 8000b90:	d8c00315 	stw	r3,12(sp)
 8000b94:	da000015 	stw	r8,0(sp)
 8000b98:	da000415 	stw	r8,16(sp)
 8000b9c:	d8800515 	stw	r2,20(sp)
 8000ba0:	d8800215 	stw	r2,8(sp)
 8000ba4:	8000cb80 	call	8000cb8 <___svfprintf_internal_r>
 8000ba8:	d8c00017 	ldw	r3,0(sp)
 8000bac:	18000005 	stb	zero,0(r3)
 8000bb0:	dfc01a17 	ldw	ra,104(sp)
 8000bb4:	dec01c04 	addi	sp,sp,112
 8000bb8:	f800283a 	ret

08000bbc <sprintf>:
 8000bbc:	deffe304 	addi	sp,sp,-116
 8000bc0:	2011883a 	mov	r8,r4
 8000bc4:	dfc01a15 	stw	ra,104(sp)
 8000bc8:	d9801b15 	stw	r6,108(sp)
 8000bcc:	d9c01c15 	stw	r7,112(sp)
 8000bd0:	00820074 	movhi	r2,2049
 8000bd4:	11006817 	ldw	r4,416(r2)
 8000bd8:	00fffff4 	movhi	r3,65535
 8000bdc:	00a00034 	movhi	r2,32768
 8000be0:	10bfffc4 	addi	r2,r2,-1
 8000be4:	18c08204 	addi	r3,r3,520
 8000be8:	280d883a 	mov	r6,r5
 8000bec:	d9c01b04 	addi	r7,sp,108
 8000bf0:	d80b883a 	mov	r5,sp
 8000bf4:	d8c00315 	stw	r3,12(sp)
 8000bf8:	da000015 	stw	r8,0(sp)
 8000bfc:	da000415 	stw	r8,16(sp)
 8000c00:	d8800515 	stw	r2,20(sp)
 8000c04:	d8800215 	stw	r2,8(sp)
 8000c08:	8000cb80 	call	8000cb8 <___svfprintf_internal_r>
 8000c0c:	d8c00017 	ldw	r3,0(sp)
 8000c10:	18000005 	stb	zero,0(r3)
 8000c14:	dfc01a17 	ldw	ra,104(sp)
 8000c18:	dec01d04 	addi	sp,sp,116
 8000c1c:	f800283a 	ret

08000c20 <strlen>:
 8000c20:	208000cc 	andi	r2,r4,3
 8000c24:	10002026 	beq	r2,zero,8000ca8 <strlen+0x88>
 8000c28:	20800007 	ldb	r2,0(r4)
 8000c2c:	10002026 	beq	r2,zero,8000cb0 <strlen+0x90>
 8000c30:	2005883a 	mov	r2,r4
 8000c34:	00000206 	br	8000c40 <strlen+0x20>
 8000c38:	10c00007 	ldb	r3,0(r2)
 8000c3c:	18001826 	beq	r3,zero,8000ca0 <strlen+0x80>
 8000c40:	10800044 	addi	r2,r2,1
 8000c44:	10c000cc 	andi	r3,r2,3
 8000c48:	183ffb1e 	bne	r3,zero,8000c38 <strlen+0x18>
 8000c4c:	11400017 	ldw	r5,0(r2)
 8000c50:	01ffbff4 	movhi	r7,65279
 8000c54:	39ffbfc4 	addi	r7,r7,-257
 8000c58:	29c7883a 	add	r3,r5,r7
 8000c5c:	01a02074 	movhi	r6,32897
 8000c60:	014a303a 	nor	r5,zero,r5
 8000c64:	1946703a 	and	r3,r3,r5
 8000c68:	31a02004 	addi	r6,r6,-32640
 8000c6c:	1986703a 	and	r3,r3,r6
 8000c70:	1800091e 	bne	r3,zero,8000c98 <strlen+0x78>
 8000c74:	10800104 	addi	r2,r2,4
 8000c78:	11400017 	ldw	r5,0(r2)
 8000c7c:	29c7883a 	add	r3,r5,r7
 8000c80:	014a303a 	nor	r5,zero,r5
 8000c84:	1946703a 	and	r3,r3,r5
 8000c88:	1986703a 	and	r3,r3,r6
 8000c8c:	183ff926 	beq	r3,zero,8000c74 <strlen+0x54>
 8000c90:	00000106 	br	8000c98 <strlen+0x78>
 8000c94:	10800044 	addi	r2,r2,1
 8000c98:	10c00007 	ldb	r3,0(r2)
 8000c9c:	183ffd1e 	bne	r3,zero,8000c94 <strlen+0x74>
 8000ca0:	1105c83a 	sub	r2,r2,r4
 8000ca4:	f800283a 	ret
 8000ca8:	2005883a 	mov	r2,r4
 8000cac:	003fe706 	br	8000c4c <strlen+0x2c>
 8000cb0:	0005883a 	mov	r2,zero
 8000cb4:	f800283a 	ret

08000cb8 <___svfprintf_internal_r>:
 8000cb8:	deffbd04 	addi	sp,sp,-268
 8000cbc:	dfc04215 	stw	ra,264(sp)
 8000cc0:	dd403e15 	stw	r21,248(sp)
 8000cc4:	dcc03c15 	stw	r19,240(sp)
 8000cc8:	d9000515 	stw	r4,20(sp)
 8000ccc:	2827883a 	mov	r19,r5
 8000cd0:	302b883a 	mov	r21,r6
 8000cd4:	d9c00615 	stw	r7,24(sp)
 8000cd8:	df004115 	stw	fp,260(sp)
 8000cdc:	ddc04015 	stw	r23,256(sp)
 8000ce0:	dd803f15 	stw	r22,252(sp)
 8000ce4:	dd003d15 	stw	r20,244(sp)
 8000ce8:	dc803b15 	stw	r18,236(sp)
 8000cec:	dc403a15 	stw	r17,232(sp)
 8000cf0:	dc003915 	stw	r16,228(sp)
 8000cf4:	80046fc0 	call	80046fc <_localeconv_r>
 8000cf8:	10800017 	ldw	r2,0(r2)
 8000cfc:	1009883a 	mov	r4,r2
 8000d00:	d8800d15 	stw	r2,52(sp)
 8000d04:	8000c200 	call	8000c20 <strlen>
 8000d08:	d8800b15 	stw	r2,44(sp)
 8000d0c:	9880030b 	ldhu	r2,12(r19)
 8000d10:	1080200c 	andi	r2,r2,128
 8000d14:	10000226 	beq	r2,zero,8000d20 <___svfprintf_internal_r+0x68>
 8000d18:	98800417 	ldw	r2,16(r19)
 8000d1c:	1005a126 	beq	r2,zero,80023a4 <___svfprintf_internal_r+0x16ec>
 8000d20:	ddc02904 	addi	r23,sp,164
 8000d24:	ddc01c15 	stw	r23,112(sp)
 8000d28:	d8001e15 	stw	zero,120(sp)
 8000d2c:	d8001d15 	stw	zero,116(sp)
 8000d30:	d8000815 	stw	zero,32(sp)
 8000d34:	d8000915 	stw	zero,36(sp)
 8000d38:	d8000a15 	stw	zero,40(sp)
 8000d3c:	b811883a 	mov	r8,r23
 8000d40:	d8000c15 	stw	zero,48(sp)
 8000d44:	d8001115 	stw	zero,68(sp)
 8000d48:	d8000415 	stw	zero,16(sp)
 8000d4c:	a82d883a 	mov	r22,r21
 8000d50:	b0800007 	ldb	r2,0(r22)
 8000d54:	10009126 	beq	r2,zero,8000f9c <___svfprintf_internal_r+0x2e4>
 8000d58:	10800960 	cmpeqi	r2,r2,37
 8000d5c:	1004fd1e 	bne	r2,zero,8002154 <___svfprintf_internal_r+0x149c>
 8000d60:	b021883a 	mov	r16,r22
 8000d64:	00000206 	br	8000d70 <___svfprintf_internal_r+0xb8>
 8000d68:	18008226 	beq	r3,zero,8000f74 <___svfprintf_internal_r+0x2bc>
 8000d6c:	8821883a 	mov	r16,r17
 8000d70:	80800047 	ldb	r2,1(r16)
 8000d74:	84400044 	addi	r17,r16,1
 8000d78:	10c00958 	cmpnei	r3,r2,37
 8000d7c:	103ffa1e 	bne	r2,zero,8000d68 <___svfprintf_internal_r+0xb0>
 8000d80:	8da5c83a 	sub	r18,r17,r22
 8000d84:	90008526 	beq	r18,zero,8000f9c <___svfprintf_internal_r+0x2e4>
 8000d88:	d8c01e17 	ldw	r3,120(sp)
 8000d8c:	d8801d17 	ldw	r2,116(sp)
 8000d90:	45800015 	stw	r22,0(r8)
 8000d94:	1c87883a 	add	r3,r3,r18
 8000d98:	10800044 	addi	r2,r2,1
 8000d9c:	d8801d15 	stw	r2,116(sp)
 8000da0:	44800115 	stw	r18,4(r8)
 8000da4:	d8c01e15 	stw	r3,120(sp)
 8000da8:	10800208 	cmpgei	r2,r2,8
 8000dac:	1000741e 	bne	r2,zero,8000f80 <___svfprintf_internal_r+0x2c8>
 8000db0:	42000204 	addi	r8,r8,8
 8000db4:	d8c00417 	ldw	r3,16(sp)
 8000db8:	80800047 	ldb	r2,1(r16)
 8000dbc:	1c87883a 	add	r3,r3,r18
 8000dc0:	d8c00415 	stw	r3,16(sp)
 8000dc4:	10007526 	beq	r2,zero,8000f9c <___svfprintf_internal_r+0x2e4>
 8000dc8:	8a800047 	ldb	r10,1(r17)
 8000dcc:	8d800044 	addi	r22,r17,1
 8000dd0:	d8001545 	stb	zero,85(sp)
 8000dd4:	0009883a 	mov	r4,zero
 8000dd8:	000b883a 	mov	r5,zero
 8000ddc:	02ffffc4 	movi	r11,-1
 8000de0:	0021883a 	mov	r16,zero
 8000de4:	0019883a 	mov	r12,zero
 8000de8:	b5800044 	addi	r22,r22,1
 8000dec:	5039883a 	mov	fp,r10
 8000df0:	e0bff804 	addi	r2,fp,-32
 8000df4:	10c01668 	cmpgeui	r3,r2,89
 8000df8:	18008c1e 	bne	r3,zero,800102c <___svfprintf_internal_r+0x374>
 8000dfc:	100490ba 	slli	r2,r2,2
 8000e00:	00c20034 	movhi	r3,2048
 8000e04:	10c7883a 	add	r3,r2,r3
 8000e08:	18838417 	ldw	r2,3600(r3)
 8000e0c:	1000683a 	jmp	r2
 8000e10:	08001104 	addi	zero,at,68
 8000e14:	0800102c 	andhi	zero,at,64
 8000e18:	0800102c 	andhi	zero,at,64
 8000e1c:	080010f8 	rdprs	zero,at,67
 8000e20:	0800102c 	andhi	zero,at,64
 8000e24:	0800102c 	andhi	zero,at,64
 8000e28:	0800102c 	andhi	zero,at,64
 8000e2c:	0800102c 	andhi	zero,at,64
 8000e30:	0800102c 	andhi	zero,at,64
 8000e34:	0800102c 	andhi	zero,at,64
 8000e38:	080010d0 	cmplti	zero,at,67
 8000e3c:	080010c0 	call	80010c <__alt_mem_onchip_memory2_0+0x80010c>
 8000e40:	0800102c 	andhi	zero,at,64
 8000e44:	080010a8 	cmpgeui	zero,at,66
 8000e48:	0800105c 	xori	zero,at,65
 8000e4c:	0800102c 	andhi	zero,at,64
 8000e50:	08001050 	cmplti	zero,at,65
 8000e54:	08000ff4 	orhi	zero,at,63
 8000e58:	08000ff4 	orhi	zero,at,63
 8000e5c:	08000ff4 	orhi	zero,at,63
 8000e60:	08000ff4 	orhi	zero,at,63
 8000e64:	08000ff4 	orhi	zero,at,63
 8000e68:	08000ff4 	orhi	zero,at,63
 8000e6c:	08000ff4 	orhi	zero,at,63
 8000e70:	08000ff4 	orhi	zero,at,63
 8000e74:	08000ff4 	orhi	zero,at,63
 8000e78:	0800102c 	andhi	zero,at,64
 8000e7c:	0800102c 	andhi	zero,at,64
 8000e80:	0800102c 	andhi	zero,at,64
 8000e84:	0800102c 	andhi	zero,at,64
 8000e88:	0800102c 	andhi	zero,at,64
 8000e8c:	0800102c 	andhi	zero,at,64
 8000e90:	0800102c 	andhi	zero,at,64
 8000e94:	0800102c 	andhi	zero,at,64
 8000e98:	0800102c 	andhi	zero,at,64
 8000e9c:	0800102c 	andhi	zero,at,64
 8000ea0:	080016b8 	rdprs	zero,at,90
 8000ea4:	080015d8 	cmpnei	zero,at,87
 8000ea8:	0800102c 	andhi	zero,at,64
 8000eac:	080015d8 	cmpnei	zero,at,87
 8000eb0:	0800102c 	andhi	zero,at,64
 8000eb4:	0800102c 	andhi	zero,at,64
 8000eb8:	0800102c 	andhi	zero,at,64
 8000ebc:	0800102c 	andhi	zero,at,64
 8000ec0:	0800180c 	andi	zero,at,96
 8000ec4:	0800102c 	andhi	zero,at,64
 8000ec8:	0800102c 	andhi	zero,at,64
 8000ecc:	080015a4 	muli	zero,at,86
 8000ed0:	0800102c 	andhi	zero,at,64
 8000ed4:	0800102c 	andhi	zero,at,64
 8000ed8:	0800102c 	andhi	zero,at,64
 8000edc:	0800102c 	andhi	zero,at,64
 8000ee0:	0800102c 	andhi	zero,at,64
 8000ee4:	080017d8 	cmpnei	zero,at,95
 8000ee8:	0800102c 	andhi	zero,at,64
 8000eec:	0800102c 	andhi	zero,at,64
 8000ef0:	08001790 	cmplti	zero,at,94
 8000ef4:	0800102c 	andhi	zero,at,64
 8000ef8:	0800102c 	andhi	zero,at,64
 8000efc:	0800102c 	andhi	zero,at,64
 8000f00:	0800102c 	andhi	zero,at,64
 8000f04:	0800102c 	andhi	zero,at,64
 8000f08:	0800102c 	andhi	zero,at,64
 8000f0c:	0800102c 	andhi	zero,at,64
 8000f10:	0800102c 	andhi	zero,at,64
 8000f14:	0800102c 	andhi	zero,at,64
 8000f18:	0800102c 	andhi	zero,at,64
 8000f1c:	0800128c 	andi	zero,at,74
 8000f20:	08001218 	cmpnei	zero,at,72
 8000f24:	080015d8 	cmpnei	zero,at,87
 8000f28:	080015d8 	cmpnei	zero,at,87
 8000f2c:	080015d8 	cmpnei	zero,at,87
 8000f30:	08001510 	cmplti	zero,at,84
 8000f34:	08001218 	cmpnei	zero,at,72
 8000f38:	0800102c 	andhi	zero,at,64
 8000f3c:	0800102c 	andhi	zero,at,64
 8000f40:	080014fc 	xorhi	zero,at,83
 8000f44:	0800102c 	andhi	zero,at,64
 8000f48:	080014bc 	xorhi	zero,at,82
 8000f4c:	0800147c 	xorhi	zero,at,81
 8000f50:	08001528 	cmpgeui	zero,at,84
 8000f54:	0800151c 	xori	zero,at,84
 8000f58:	0800102c 	andhi	zero,at,64
 8000f5c:	080011b8 	rdprs	zero,at,70
 8000f60:	0800102c 	andhi	zero,at,64
 8000f64:	08001178 	rdprs	zero,at,69
 8000f68:	0800102c 	andhi	zero,at,64
 8000f6c:	0800102c 	andhi	zero,at,64
 8000f70:	08001130 	cmpltui	zero,at,68
 8000f74:	8da5c83a 	sub	r18,r17,r22
 8000f78:	903f9326 	beq	r18,zero,8000dc8 <___svfprintf_internal_r+0x110>
 8000f7c:	003f8206 	br	8000d88 <___svfprintf_internal_r+0xd0>
 8000f80:	d9000517 	ldw	r4,20(sp)
 8000f84:	d9801c04 	addi	r6,sp,112
 8000f88:	980b883a 	mov	r5,r19
 8000f8c:	80060fc0 	call	80060fc <__ssprint_r>
 8000f90:	1000081e 	bne	r2,zero,8000fb4 <___svfprintf_internal_r+0x2fc>
 8000f94:	b811883a 	mov	r8,r23
 8000f98:	003f8606 	br	8000db4 <___svfprintf_internal_r+0xfc>
 8000f9c:	d8801e17 	ldw	r2,120(sp)
 8000fa0:	10000426 	beq	r2,zero,8000fb4 <___svfprintf_internal_r+0x2fc>
 8000fa4:	d9000517 	ldw	r4,20(sp)
 8000fa8:	d9801c04 	addi	r6,sp,112
 8000fac:	980b883a 	mov	r5,r19
 8000fb0:	80060fc0 	call	80060fc <__ssprint_r>
 8000fb4:	9880030b 	ldhu	r2,12(r19)
 8000fb8:	1080100c 	andi	r2,r2,64
 8000fbc:	1007371e 	bne	r2,zero,8002c9c <___svfprintf_internal_r+0x1fe4>
 8000fc0:	d8800417 	ldw	r2,16(sp)
 8000fc4:	dfc04217 	ldw	ra,264(sp)
 8000fc8:	df004117 	ldw	fp,260(sp)
 8000fcc:	ddc04017 	ldw	r23,256(sp)
 8000fd0:	dd803f17 	ldw	r22,252(sp)
 8000fd4:	dd403e17 	ldw	r21,248(sp)
 8000fd8:	dd003d17 	ldw	r20,244(sp)
 8000fdc:	dcc03c17 	ldw	r19,240(sp)
 8000fe0:	dc803b17 	ldw	r18,236(sp)
 8000fe4:	dc403a17 	ldw	r17,232(sp)
 8000fe8:	dc003917 	ldw	r16,228(sp)
 8000fec:	dec04304 	addi	sp,sp,268
 8000ff0:	f800283a 	ret
 8000ff4:	0021883a 	mov	r16,zero
 8000ff8:	e0fff404 	addi	r3,fp,-48
 8000ffc:	800490ba 	slli	r2,r16,2
 8001000:	b5800044 	addi	r22,r22,1
 8001004:	b73fffc7 	ldb	fp,-1(r22)
 8001008:	1421883a 	add	r16,r2,r16
 800100c:	8421883a 	add	r16,r16,r16
 8001010:	1c21883a 	add	r16,r3,r16
 8001014:	e0fff404 	addi	r3,fp,-48
 8001018:	188002b0 	cmpltui	r2,r3,10
 800101c:	103ff71e 	bne	r2,zero,8000ffc <___svfprintf_internal_r+0x344>
 8001020:	e0bff804 	addi	r2,fp,-32
 8001024:	10c01668 	cmpgeui	r3,r2,89
 8001028:	183f7426 	beq	r3,zero,8000dfc <___svfprintf_internal_r+0x144>
 800102c:	21003fcc 	andi	r4,r4,255
 8001030:	2006931e 	bne	r4,zero,8002a80 <___svfprintf_internal_r+0x1dc8>
 8001034:	e03fd926 	beq	fp,zero,8000f9c <___svfprintf_internal_r+0x2e4>
 8001038:	df001f05 	stb	fp,124(sp)
 800103c:	d8001545 	stb	zero,85(sp)
 8001040:	05000044 	movi	r20,1
 8001044:	05400044 	movi	r21,1
 8001048:	dc401f04 	addi	r17,sp,124
 800104c:	00009806 	br	80012b0 <___svfprintf_internal_r+0x5f8>
 8001050:	63002014 	ori	r12,r12,128
 8001054:	b2800007 	ldb	r10,0(r22)
 8001058:	003f6306 	br	8000de8 <___svfprintf_internal_r+0x130>
 800105c:	b7000007 	ldb	fp,0(r22)
 8001060:	b0800044 	addi	r2,r22,1
 8001064:	e0c00aa0 	cmpeqi	r3,fp,42
 8001068:	1807511e 	bne	r3,zero,8002db0 <___svfprintf_internal_r+0x20f8>
 800106c:	e0fff404 	addi	r3,fp,-48
 8001070:	198002b0 	cmpltui	r6,r3,10
 8001074:	102d883a 	mov	r22,r2
 8001078:	0017883a 	mov	r11,zero
 800107c:	303f5c26 	beq	r6,zero,8000df0 <___svfprintf_internal_r+0x138>
 8001080:	580490ba 	slli	r2,r11,2
 8001084:	b5800044 	addi	r22,r22,1
 8001088:	b73fffc7 	ldb	fp,-1(r22)
 800108c:	12d7883a 	add	r11,r2,r11
 8001090:	5ad7883a 	add	r11,r11,r11
 8001094:	58d7883a 	add	r11,r11,r3
 8001098:	e0fff404 	addi	r3,fp,-48
 800109c:	188002b0 	cmpltui	r2,r3,10
 80010a0:	103ff71e 	bne	r2,zero,8001080 <___svfprintf_internal_r+0x3c8>
 80010a4:	003f5206 	br	8000df0 <___svfprintf_internal_r+0x138>
 80010a8:	b7000003 	ldbu	fp,0(r22)
 80010ac:	e2803fcc 	andi	r10,fp,255
 80010b0:	5280201c 	xori	r10,r10,128
 80010b4:	63000114 	ori	r12,r12,4
 80010b8:	52bfe004 	addi	r10,r10,-128
 80010bc:	003f4a06 	br	8000de8 <___svfprintf_internal_r+0x130>
 80010c0:	01000044 	movi	r4,1
 80010c4:	01400ac4 	movi	r5,43
 80010c8:	b2800007 	ldb	r10,0(r22)
 80010cc:	003f4606 	br	8000de8 <___svfprintf_internal_r+0x130>
 80010d0:	d8800617 	ldw	r2,24(sp)
 80010d4:	b7000003 	ldbu	fp,0(r22)
 80010d8:	14000017 	ldw	r16,0(r2)
 80010dc:	10800104 	addi	r2,r2,4
 80010e0:	80049316 	blt	r16,zero,8002330 <___svfprintf_internal_r+0x1678>
 80010e4:	d8800615 	stw	r2,24(sp)
 80010e8:	e2803fcc 	andi	r10,fp,255
 80010ec:	5280201c 	xori	r10,r10,128
 80010f0:	52bfe004 	addi	r10,r10,-128
 80010f4:	003f3c06 	br	8000de8 <___svfprintf_internal_r+0x130>
 80010f8:	63000054 	ori	r12,r12,1
 80010fc:	b2800007 	ldb	r10,0(r22)
 8001100:	003f3906 	br	8000de8 <___svfprintf_internal_r+0x130>
 8001104:	28803fcc 	andi	r2,r5,255
 8001108:	1080201c 	xori	r2,r2,128
 800110c:	10bfe004 	addi	r2,r2,-128
 8001110:	b7000003 	ldbu	fp,0(r22)
 8001114:	103ff41e 	bne	r2,zero,80010e8 <___svfprintf_internal_r+0x430>
 8001118:	e2803fcc 	andi	r10,fp,255
 800111c:	5280201c 	xori	r10,r10,128
 8001120:	01000044 	movi	r4,1
 8001124:	01400804 	movi	r5,32
 8001128:	52bfe004 	addi	r10,r10,-128
 800112c:	003f2e06 	br	8000de8 <___svfprintf_internal_r+0x130>
 8001130:	21003fcc 	andi	r4,r4,255
 8001134:	2006b51e 	bne	r4,zero,8002c0c <___svfprintf_internal_r+0x1f54>
 8001138:	00820074 	movhi	r2,2049
 800113c:	10b71104 	addi	r2,r2,-9148
 8001140:	d8800c15 	stw	r2,48(sp)
 8001144:	6080080c 	andi	r2,r12,32
 8001148:	10019826 	beq	r2,zero,80017ac <___svfprintf_internal_r+0xaf4>
 800114c:	d8800617 	ldw	r2,24(sp)
 8001150:	15000017 	ldw	r20,0(r2)
 8001154:	15400117 	ldw	r21,4(r2)
 8001158:	10800204 	addi	r2,r2,8
 800115c:	d8800615 	stw	r2,24(sp)
 8001160:	6080004c 	andi	r2,r12,1
 8001164:	10000226 	beq	r2,zero,8001170 <___svfprintf_internal_r+0x4b8>
 8001168:	a544b03a 	or	r2,r20,r21
 800116c:	10046a1e 	bne	r2,zero,8002318 <___svfprintf_internal_r+0x1660>
 8001170:	00800084 	movi	r2,2
 8001174:	0000fb06 	br	8001564 <___svfprintf_internal_r+0x8ac>
 8001178:	21003fcc 	andi	r4,r4,255
 800117c:	20069f1e 	bne	r4,zero,8002bfc <___svfprintf_internal_r+0x1f44>
 8001180:	6080080c 	andi	r2,r12,32
 8001184:	1001a41e 	bne	r2,zero,8001818 <___svfprintf_internal_r+0xb60>
 8001188:	d8800617 	ldw	r2,24(sp)
 800118c:	60c0040c 	andi	r3,r12,16
 8001190:	15000017 	ldw	r20,0(r2)
 8001194:	10800104 	addi	r2,r2,4
 8001198:	1801961e 	bne	r3,zero,80017f4 <___svfprintf_internal_r+0xb3c>
 800119c:	60c0100c 	andi	r3,r12,64
 80011a0:	1805b126 	beq	r3,zero,8002868 <___svfprintf_internal_r+0x1bb0>
 80011a4:	d8800615 	stw	r2,24(sp)
 80011a8:	a53fffcc 	andi	r20,r20,65535
 80011ac:	002b883a 	mov	r21,zero
 80011b0:	00800044 	movi	r2,1
 80011b4:	0000eb06 	br	8001564 <___svfprintf_internal_r+0x8ac>
 80011b8:	d8800617 	ldw	r2,24(sp)
 80011bc:	d8001545 	stb	zero,85(sp)
 80011c0:	14400017 	ldw	r17,0(r2)
 80011c4:	14800104 	addi	r18,r2,4
 80011c8:	88051426 	beq	r17,zero,800261c <___svfprintf_internal_r+0x1964>
 80011cc:	da000e15 	stw	r8,56(sp)
 80011d0:	db000715 	stw	r12,28(sp)
 80011d4:	58bfffe0 	cmpeqi	r2,r11,-1
 80011d8:	10046a1e 	bne	r2,zero,8002384 <___svfprintf_internal_r+0x16cc>
 80011dc:	580d883a 	mov	r6,r11
 80011e0:	000b883a 	mov	r5,zero
 80011e4:	8809883a 	mov	r4,r17
 80011e8:	dac00615 	stw	r11,24(sp)
 80011ec:	8004f080 	call	8004f08 <memchr>
 80011f0:	dac00617 	ldw	r11,24(sp)
 80011f4:	db000717 	ldw	r12,28(sp)
 80011f8:	da000e17 	ldw	r8,56(sp)
 80011fc:	10066d26 	beq	r2,zero,8002bb4 <___svfprintf_internal_r+0x1efc>
 8001200:	146bc83a 	sub	r21,r2,r17
 8001204:	a829883a 	mov	r20,r21
 8001208:	a800010e 	bge	r21,zero,8001210 <___svfprintf_internal_r+0x558>
 800120c:	0029883a 	mov	r20,zero
 8001210:	dc800615 	stw	r18,24(sp)
 8001214:	00002606 	br	80012b0 <___svfprintf_internal_r+0x5f8>
 8001218:	21003fcc 	andi	r4,r4,255
 800121c:	2006811e 	bne	r4,zero,8002c24 <___svfprintf_internal_r+0x1f6c>
 8001220:	6080080c 	andi	r2,r12,32
 8001224:	1001831e 	bne	r2,zero,8001834 <___svfprintf_internal_r+0xb7c>
 8001228:	d8800617 	ldw	r2,24(sp)
 800122c:	60c0040c 	andi	r3,r12,16
 8001230:	10800104 	addi	r2,r2,4
 8001234:	1801271e 	bne	r3,zero,80016d4 <___svfprintf_internal_r+0xa1c>
 8001238:	60c0100c 	andi	r3,r12,64
 800123c:	18012526 	beq	r3,zero,80016d4 <___svfprintf_internal_r+0xa1c>
 8001240:	d8c00617 	ldw	r3,24(sp)
 8001244:	d8800615 	stw	r2,24(sp)
 8001248:	1d00000f 	ldh	r20,0(r3)
 800124c:	a02bd7fa 	srai	r21,r20,31
 8001250:	a805883a 	mov	r2,r21
 8001254:	10012516 	blt	r2,zero,80016ec <___svfprintf_internal_r+0xa34>
 8001258:	58bfffd8 	cmpnei	r2,r11,-1
 800125c:	db401543 	ldbu	r13,85(sp)
 8001260:	10018226 	beq	r2,zero,800186c <___svfprintf_internal_r+0xbb4>
 8001264:	00ffdfc4 	movi	r3,-129
 8001268:	a544b03a 	or	r2,r20,r21
 800126c:	60d8703a 	and	r12,r12,r3
 8001270:	10017e1e 	bne	r2,zero,800186c <___svfprintf_internal_r+0xbb4>
 8001274:	5801801e 	bne	r11,zero,8001878 <___svfprintf_internal_r+0xbc0>
 8001278:	6025883a 	mov	r18,r12
 800127c:	0017883a 	mov	r11,zero
 8001280:	002b883a 	mov	r21,zero
 8001284:	b823883a 	mov	r17,r23
 8001288:	00018006 	br	800188c <___svfprintf_internal_r+0xbd4>
 800128c:	d8c00617 	ldw	r3,24(sp)
 8001290:	d8001545 	stb	zero,85(sp)
 8001294:	05000044 	movi	r20,1
 8001298:	18800017 	ldw	r2,0(r3)
 800129c:	18c00104 	addi	r3,r3,4
 80012a0:	d8c00615 	stw	r3,24(sp)
 80012a4:	d8801f05 	stb	r2,124(sp)
 80012a8:	05400044 	movi	r21,1
 80012ac:	dc401f04 	addi	r17,sp,124
 80012b0:	6025883a 	mov	r18,r12
 80012b4:	0017883a 	mov	r11,zero
 80012b8:	d8000715 	stw	zero,28(sp)
 80012bc:	9380008c 	andi	r14,r18,2
 80012c0:	70000126 	beq	r14,zero,80012c8 <___svfprintf_internal_r+0x610>
 80012c4:	a5000084 	addi	r20,r20,2
 80012c8:	9340210c 	andi	r13,r18,132
 80012cc:	d8c01e17 	ldw	r3,120(sp)
 80012d0:	6800021e 	bne	r13,zero,80012dc <___svfprintf_internal_r+0x624>
 80012d4:	850fc83a 	sub	r7,r16,r20
 80012d8:	01c2a616 	blt	zero,r7,8001d74 <___svfprintf_internal_r+0x10bc>
 80012dc:	d8801547 	ldb	r2,85(sp)
 80012e0:	10000c26 	beq	r2,zero,8001314 <___svfprintf_internal_r+0x65c>
 80012e4:	d8801d17 	ldw	r2,116(sp)
 80012e8:	d9001544 	addi	r4,sp,85
 80012ec:	18c00044 	addi	r3,r3,1
 80012f0:	10800044 	addi	r2,r2,1
 80012f4:	41000015 	stw	r4,0(r8)
 80012f8:	01000044 	movi	r4,1
 80012fc:	d8801d15 	stw	r2,116(sp)
 8001300:	41000115 	stw	r4,4(r8)
 8001304:	d8c01e15 	stw	r3,120(sp)
 8001308:	10800208 	cmpgei	r2,r2,8
 800130c:	1002d31e 	bne	r2,zero,8001e5c <___svfprintf_internal_r+0x11a4>
 8001310:	42000204 	addi	r8,r8,8
 8001314:	70000c26 	beq	r14,zero,8001348 <___svfprintf_internal_r+0x690>
 8001318:	d8801d17 	ldw	r2,116(sp)
 800131c:	d9001584 	addi	r4,sp,86
 8001320:	18c00084 	addi	r3,r3,2
 8001324:	10800044 	addi	r2,r2,1
 8001328:	41000015 	stw	r4,0(r8)
 800132c:	01000084 	movi	r4,2
 8001330:	d8801d15 	stw	r2,116(sp)
 8001334:	41000115 	stw	r4,4(r8)
 8001338:	d8c01e15 	stw	r3,120(sp)
 800133c:	10800208 	cmpgei	r2,r2,8
 8001340:	1002d41e 	bne	r2,zero,8001e94 <___svfprintf_internal_r+0x11dc>
 8001344:	42000204 	addi	r8,r8,8
 8001348:	6b402018 	cmpnei	r13,r13,128
 800134c:	6801ca26 	beq	r13,zero,8001a78 <___svfprintf_internal_r+0xdc0>
 8001350:	5d4fc83a 	sub	r7,r11,r21
 8001354:	01c20116 	blt	zero,r7,8001b5c <___svfprintf_internal_r+0xea4>
 8001358:	9080400c 	andi	r2,r18,256
 800135c:	1001791e 	bne	r2,zero,8001944 <___svfprintf_internal_r+0xc8c>
 8001360:	d8801d17 	ldw	r2,116(sp)
 8001364:	1d47883a 	add	r3,r3,r21
 8001368:	44400015 	stw	r17,0(r8)
 800136c:	10800044 	addi	r2,r2,1
 8001370:	d8801d15 	stw	r2,116(sp)
 8001374:	45400115 	stw	r21,4(r8)
 8001378:	d8c01e15 	stw	r3,120(sp)
 800137c:	10800208 	cmpgei	r2,r2,8
 8001380:	1002721e 	bne	r2,zero,8001d4c <___svfprintf_internal_r+0x1094>
 8001384:	42000204 	addi	r8,r8,8
 8001388:	9480010c 	andi	r18,r18,4
 800138c:	90000226 	beq	r18,zero,8001398 <___svfprintf_internal_r+0x6e0>
 8001390:	8523c83a 	sub	r17,r16,r20
 8001394:	04400916 	blt	zero,r17,80013bc <___svfprintf_internal_r+0x704>
 8001398:	8500010e 	bge	r16,r20,80013a0 <___svfprintf_internal_r+0x6e8>
 800139c:	a021883a 	mov	r16,r20
 80013a0:	d8800417 	ldw	r2,16(sp)
 80013a4:	1405883a 	add	r2,r2,r16
 80013a8:	d8800415 	stw	r2,16(sp)
 80013ac:	18021f1e 	bne	r3,zero,8001c2c <___svfprintf_internal_r+0xf74>
 80013b0:	d8001d15 	stw	zero,116(sp)
 80013b4:	b811883a 	mov	r8,r23
 80013b8:	003e6506 	br	8000d50 <___svfprintf_internal_r+0x98>
 80013bc:	03020074 	movhi	r12,2049
 80013c0:	89000450 	cmplti	r4,r17,17
 80013c4:	63371c84 	addi	r12,r12,-9102
 80013c8:	d8801d17 	ldw	r2,116(sp)
 80013cc:	20001c1e 	bne	r4,zero,8001440 <___svfprintf_internal_r+0x788>
 80013d0:	04800404 	movi	r18,16
 80013d4:	dd400517 	ldw	r21,20(sp)
 80013d8:	6039883a 	mov	fp,r12
 80013dc:	00000406 	br	80013f0 <___svfprintf_internal_r+0x738>
 80013e0:	8c7ffc04 	addi	r17,r17,-16
 80013e4:	89000448 	cmpgei	r4,r17,17
 80013e8:	42000204 	addi	r8,r8,8
 80013ec:	20001326 	beq	r4,zero,800143c <___svfprintf_internal_r+0x784>
 80013f0:	10800044 	addi	r2,r2,1
 80013f4:	18c00404 	addi	r3,r3,16
 80013f8:	47000015 	stw	fp,0(r8)
 80013fc:	44800115 	stw	r18,4(r8)
 8001400:	d8c01e15 	stw	r3,120(sp)
 8001404:	d8801d15 	stw	r2,116(sp)
 8001408:	11000208 	cmpgei	r4,r2,8
 800140c:	203ff426 	beq	r4,zero,80013e0 <___svfprintf_internal_r+0x728>
 8001410:	d9801c04 	addi	r6,sp,112
 8001414:	980b883a 	mov	r5,r19
 8001418:	a809883a 	mov	r4,r21
 800141c:	80060fc0 	call	80060fc <__ssprint_r>
 8001420:	103ee41e 	bne	r2,zero,8000fb4 <___svfprintf_internal_r+0x2fc>
 8001424:	8c7ffc04 	addi	r17,r17,-16
 8001428:	89000448 	cmpgei	r4,r17,17
 800142c:	d8c01e17 	ldw	r3,120(sp)
 8001430:	d8801d17 	ldw	r2,116(sp)
 8001434:	b811883a 	mov	r8,r23
 8001438:	203fed1e 	bne	r4,zero,80013f0 <___svfprintf_internal_r+0x738>
 800143c:	e019883a 	mov	r12,fp
 8001440:	10800044 	addi	r2,r2,1
 8001444:	1c47883a 	add	r3,r3,r17
 8001448:	d8801d15 	stw	r2,116(sp)
 800144c:	43000015 	stw	r12,0(r8)
 8001450:	44400115 	stw	r17,4(r8)
 8001454:	d8c01e15 	stw	r3,120(sp)
 8001458:	10800210 	cmplti	r2,r2,8
 800145c:	103fce1e 	bne	r2,zero,8001398 <___svfprintf_internal_r+0x6e0>
 8001460:	d9000517 	ldw	r4,20(sp)
 8001464:	d9801c04 	addi	r6,sp,112
 8001468:	980b883a 	mov	r5,r19
 800146c:	80060fc0 	call	80060fc <__ssprint_r>
 8001470:	103ed01e 	bne	r2,zero,8000fb4 <___svfprintf_internal_r+0x2fc>
 8001474:	d8c01e17 	ldw	r3,120(sp)
 8001478:	003fc706 	br	8001398 <___svfprintf_internal_r+0x6e0>
 800147c:	21003fcc 	andi	r4,r4,255
 8001480:	2005e61e 	bne	r4,zero,8002c1c <___svfprintf_internal_r+0x1f64>
 8001484:	6080080c 	andi	r2,r12,32
 8001488:	1000f11e 	bne	r2,zero,8001850 <___svfprintf_internal_r+0xb98>
 800148c:	d8800617 	ldw	r2,24(sp)
 8001490:	60c0040c 	andi	r3,r12,16
 8001494:	15000017 	ldw	r20,0(r2)
 8001498:	10800104 	addi	r2,r2,4
 800149c:	1800481e 	bne	r3,zero,80015c0 <___svfprintf_internal_r+0x908>
 80014a0:	60c0100c 	andi	r3,r12,64
 80014a4:	18053926 	beq	r3,zero,800298c <___svfprintf_internal_r+0x1cd4>
 80014a8:	d8800615 	stw	r2,24(sp)
 80014ac:	a53fffcc 	andi	r20,r20,65535
 80014b0:	002b883a 	mov	r21,zero
 80014b4:	0005883a 	mov	r2,zero
 80014b8:	00002a06 	br	8001564 <___svfprintf_internal_r+0x8ac>
 80014bc:	21003fcc 	andi	r4,r4,255
 80014c0:	2005dc1e 	bne	r4,zero,8002c34 <___svfprintf_internal_r+0x1f7c>
 80014c4:	d9000617 	ldw	r4,24(sp)
 80014c8:	6080080c 	andi	r2,r12,32
 80014cc:	20c00104 	addi	r3,r4,4
 80014d0:	10038a1e 	bne	r2,zero,80022fc <___svfprintf_internal_r+0x1644>
 80014d4:	6080040c 	andi	r2,r12,16
 80014d8:	1003de1e 	bne	r2,zero,8002454 <___svfprintf_internal_r+0x179c>
 80014dc:	6300100c 	andi	r12,r12,64
 80014e0:	6003dc26 	beq	r12,zero,8002454 <___svfprintf_internal_r+0x179c>
 80014e4:	d8800617 	ldw	r2,24(sp)
 80014e8:	d8c00615 	stw	r3,24(sp)
 80014ec:	d8c00417 	ldw	r3,16(sp)
 80014f0:	10800017 	ldw	r2,0(r2)
 80014f4:	10c0000d 	sth	r3,0(r2)
 80014f8:	003e1506 	br	8000d50 <___svfprintf_internal_r+0x98>
 80014fc:	b2800007 	ldb	r10,0(r22)
 8001500:	50801b18 	cmpnei	r2,r10,108
 8001504:	10043626 	beq	r2,zero,80025e0 <___svfprintf_internal_r+0x1928>
 8001508:	63000414 	ori	r12,r12,16
 800150c:	003e3606 	br	8000de8 <___svfprintf_internal_r+0x130>
 8001510:	63001014 	ori	r12,r12,64
 8001514:	b2800007 	ldb	r10,0(r22)
 8001518:	003e3306 	br	8000de8 <___svfprintf_internal_r+0x130>
 800151c:	63000814 	ori	r12,r12,32
 8001520:	b2800007 	ldb	r10,0(r22)
 8001524:	003e3006 	br	8000de8 <___svfprintf_internal_r+0x130>
 8001528:	d8c00617 	ldw	r3,24(sp)
 800152c:	00800c04 	movi	r2,48
 8001530:	d8801585 	stb	r2,86(sp)
 8001534:	00801e04 	movi	r2,120
 8001538:	01020074 	movhi	r4,2049
 800153c:	d88015c5 	stb	r2,87(sp)
 8001540:	1d000017 	ldw	r20,0(r3)
 8001544:	18800104 	addi	r2,r3,4
 8001548:	d8800615 	stw	r2,24(sp)
 800154c:	20b71104 	addi	r2,r4,-9148
 8001550:	d8800c15 	stw	r2,48(sp)
 8001554:	002b883a 	mov	r21,zero
 8001558:	63000094 	ori	r12,r12,2
 800155c:	00800084 	movi	r2,2
 8001560:	07001e04 	movi	fp,120
 8001564:	d8001545 	stb	zero,85(sp)
 8001568:	58ffffe0 	cmpeqi	r3,r11,-1
 800156c:	001b883a 	mov	r13,zero
 8001570:	1800681e 	bne	r3,zero,8001714 <___svfprintf_internal_r+0xa5c>
 8001574:	04bfdfc4 	movi	r18,-129
 8001578:	a546b03a 	or	r3,r20,r21
 800157c:	64a4703a 	and	r18,r12,r18
 8001580:	1801fa1e 	bne	r3,zero,8001d6c <___svfprintf_internal_r+0x10b4>
 8001584:	5804121e 	bne	r11,zero,80025d0 <___svfprintf_internal_r+0x1918>
 8001588:	103f3c1e 	bne	r2,zero,800127c <___svfprintf_internal_r+0x5c4>
 800158c:	6540004c 	andi	r21,r12,1
 8001590:	a8030426 	beq	r21,zero,80021a4 <___svfprintf_internal_r+0x14ec>
 8001594:	00800c04 	movi	r2,48
 8001598:	d88028c5 	stb	r2,163(sp)
 800159c:	dc4028c4 	addi	r17,sp,163
 80015a0:	0000ba06 	br	800188c <___svfprintf_internal_r+0xbd4>
 80015a4:	21003fcc 	andi	r4,r4,255
 80015a8:	20059a1e 	bne	r4,zero,8002c14 <___svfprintf_internal_r+0x1f5c>
 80015ac:	6080080c 	andi	r2,r12,32
 80015b0:	63000414 	ori	r12,r12,16
 80015b4:	1000a61e 	bne	r2,zero,8001850 <___svfprintf_internal_r+0xb98>
 80015b8:	d8800617 	ldw	r2,24(sp)
 80015bc:	10800104 	addi	r2,r2,4
 80015c0:	d8c00617 	ldw	r3,24(sp)
 80015c4:	002b883a 	mov	r21,zero
 80015c8:	d8800615 	stw	r2,24(sp)
 80015cc:	1d000017 	ldw	r20,0(r3)
 80015d0:	0005883a 	mov	r2,zero
 80015d4:	003fe306 	br	8001564 <___svfprintf_internal_r+0x8ac>
 80015d8:	21003fcc 	andi	r4,r4,255
 80015dc:	2005931e 	bne	r4,zero,8002c2c <___svfprintf_internal_r+0x1f74>
 80015e0:	d8c00617 	ldw	r3,24(sp)
 80015e4:	00a00034 	movhi	r2,32768
 80015e8:	10bfffc4 	addi	r2,r2,-1
 80015ec:	1d000117 	ldw	r20,4(r3)
 80015f0:	1c800017 	ldw	r18,0(r3)
 80015f4:	01dffc34 	movhi	r7,32752
 80015f8:	a0a2703a 	and	r17,r20,r2
 80015fc:	01bfffc4 	movi	r6,-1
 8001600:	18800204 	addi	r2,r3,8
 8001604:	39ffffc4 	addi	r7,r7,-1
 8001608:	9009883a 	mov	r4,r18
 800160c:	880b883a 	mov	r5,r17
 8001610:	da000f15 	stw	r8,60(sp)
 8001614:	dac00e15 	stw	r11,56(sp)
 8001618:	db000715 	stw	r12,28(sp)
 800161c:	dd000a15 	stw	r20,40(sp)
 8001620:	dc800915 	stw	r18,36(sp)
 8001624:	d8800615 	stw	r2,24(sp)
 8001628:	800b6b40 	call	800b6b4 <__unorddf2>
 800162c:	db000717 	ldw	r12,28(sp)
 8001630:	dac00e17 	ldw	r11,56(sp)
 8001634:	da000f17 	ldw	r8,60(sp)
 8001638:	1002dc1e 	bne	r2,zero,80021ac <___svfprintf_internal_r+0x14f4>
 800163c:	01dffc34 	movhi	r7,32752
 8001640:	01bfffc4 	movi	r6,-1
 8001644:	39ffffc4 	addi	r7,r7,-1
 8001648:	9009883a 	mov	r4,r18
 800164c:	880b883a 	mov	r5,r17
 8001650:	800a4780 	call	800a478 <__ledf2>
 8001654:	db000717 	ldw	r12,28(sp)
 8001658:	dac00e17 	ldw	r11,56(sp)
 800165c:	da000f17 	ldw	r8,60(sp)
 8001660:	0082d20e 	bge	zero,r2,80021ac <___svfprintf_internal_r+0x14f4>
 8001664:	000d883a 	mov	r6,zero
 8001668:	000f883a 	mov	r7,zero
 800166c:	9009883a 	mov	r4,r18
 8001670:	a00b883a 	mov	r5,r20
 8001674:	da000e15 	stw	r8,56(sp)
 8001678:	800a4780 	call	800a478 <__ledf2>
 800167c:	db000717 	ldw	r12,28(sp)
 8001680:	da000e17 	ldw	r8,56(sp)
 8001684:	1004e016 	blt	r2,zero,8002a08 <___svfprintf_internal_r+0x1d50>
 8001688:	db401543 	ldbu	r13,85(sp)
 800168c:	e0801210 	cmplti	r2,fp,72
 8001690:	1004bb1e 	bne	r2,zero,8002980 <___svfprintf_internal_r+0x1cc8>
 8001694:	04420074 	movhi	r17,2049
 8001698:	8c770904 	addi	r17,r17,-9180
 800169c:	04bfdfc4 	movi	r18,-129
 80016a0:	64a4703a 	and	r18,r12,r18
 80016a4:	050000c4 	movi	r20,3
 80016a8:	054000c4 	movi	r21,3
 80016ac:	0017883a 	mov	r11,zero
 80016b0:	d8000715 	stw	zero,28(sp)
 80016b4:	00007906 	br	800189c <___svfprintf_internal_r+0xbe4>
 80016b8:	21003fcc 	andi	r4,r4,255
 80016bc:	2005511e 	bne	r4,zero,8002c04 <___svfprintf_internal_r+0x1f4c>
 80016c0:	6080080c 	andi	r2,r12,32
 80016c4:	63000414 	ori	r12,r12,16
 80016c8:	10005a1e 	bne	r2,zero,8001834 <___svfprintf_internal_r+0xb7c>
 80016cc:	d8800617 	ldw	r2,24(sp)
 80016d0:	10800104 	addi	r2,r2,4
 80016d4:	d8c00617 	ldw	r3,24(sp)
 80016d8:	1d000017 	ldw	r20,0(r3)
 80016dc:	d8800615 	stw	r2,24(sp)
 80016e0:	a02bd7fa 	srai	r21,r20,31
 80016e4:	a805883a 	mov	r2,r21
 80016e8:	103edb0e 	bge	r2,zero,8001258 <___svfprintf_internal_r+0x5a0>
 80016ec:	0529c83a 	sub	r20,zero,r20
 80016f0:	a004c03a 	cmpne	r2,r20,zero
 80016f4:	056bc83a 	sub	r21,zero,r21
 80016f8:	a8abc83a 	sub	r21,r21,r2
 80016fc:	00800b44 	movi	r2,45
 8001700:	d8801545 	stb	r2,85(sp)
 8001704:	58ffffe0 	cmpeqi	r3,r11,-1
 8001708:	03400b44 	movi	r13,45
 800170c:	00800044 	movi	r2,1
 8001710:	183f9826 	beq	r3,zero,8001574 <___svfprintf_internal_r+0x8bc>
 8001714:	10c00060 	cmpeqi	r3,r2,1
 8001718:	1800541e 	bne	r3,zero,800186c <___svfprintf_internal_r+0xbb4>
 800171c:	108000a0 	cmpeqi	r2,r2,2
 8001720:	1001e81e 	bne	r2,zero,8001ec4 <___svfprintf_internal_r+0x120c>
 8001724:	b807883a 	mov	r3,r23
 8001728:	00000106 	br	8001730 <___svfprintf_internal_r+0xa78>
 800172c:	8807883a 	mov	r3,r17
 8001730:	a008d0fa 	srli	r4,r20,3
 8001734:	a80a977a 	slli	r5,r21,29
 8001738:	a82ad0fa 	srli	r21,r21,3
 800173c:	a50001cc 	andi	r20,r20,7
 8001740:	a0800c04 	addi	r2,r20,48
 8001744:	2928b03a 	or	r20,r5,r4
 8001748:	18bfffc5 	stb	r2,-1(r3)
 800174c:	a548b03a 	or	r4,r20,r21
 8001750:	1c7fffc4 	addi	r17,r3,-1
 8001754:	203ff51e 	bne	r4,zero,800172c <___svfprintf_internal_r+0xa74>
 8001758:	6100004c 	andi	r4,r12,1
 800175c:	20007626 	beq	r4,zero,8001938 <___svfprintf_internal_r+0xc80>
 8001760:	10803fcc 	andi	r2,r2,255
 8001764:	1080201c 	xori	r2,r2,128
 8001768:	10bfe004 	addi	r2,r2,-128
 800176c:	10800c18 	cmpnei	r2,r2,48
 8001770:	10007126 	beq	r2,zero,8001938 <___svfprintf_internal_r+0xc80>
 8001774:	18ffff84 	addi	r3,r3,-2
 8001778:	00800c04 	movi	r2,48
 800177c:	88bfffc5 	stb	r2,-1(r17)
 8001780:	b8ebc83a 	sub	r21,r23,r3
 8001784:	6025883a 	mov	r18,r12
 8001788:	1823883a 	mov	r17,r3
 800178c:	00003f06 	br	800188c <___svfprintf_internal_r+0xbd4>
 8001790:	21003fcc 	andi	r4,r4,255
 8001794:	2005171e 	bne	r4,zero,8002bf4 <___svfprintf_internal_r+0x1f3c>
 8001798:	00820074 	movhi	r2,2049
 800179c:	10b70c04 	addi	r2,r2,-9168
 80017a0:	d8800c15 	stw	r2,48(sp)
 80017a4:	6080080c 	andi	r2,r12,32
 80017a8:	103e681e 	bne	r2,zero,800114c <___svfprintf_internal_r+0x494>
 80017ac:	d8c00617 	ldw	r3,24(sp)
 80017b0:	6080040c 	andi	r2,r12,16
 80017b4:	1d000017 	ldw	r20,0(r3)
 80017b8:	18c00104 	addi	r3,r3,4
 80017bc:	d8c00615 	stw	r3,24(sp)
 80017c0:	1002621e 	bne	r2,zero,800214c <___svfprintf_internal_r+0x1494>
 80017c4:	6080100c 	andi	r2,r12,64
 80017c8:	10026026 	beq	r2,zero,800214c <___svfprintf_internal_r+0x1494>
 80017cc:	a53fffcc 	andi	r20,r20,65535
 80017d0:	002b883a 	mov	r21,zero
 80017d4:	003e6206 	br	8001160 <___svfprintf_internal_r+0x4a8>
 80017d8:	21003fcc 	andi	r4,r4,255
 80017dc:	2005171e 	bne	r4,zero,8002c3c <___svfprintf_internal_r+0x1f84>
 80017e0:	6080080c 	andi	r2,r12,32
 80017e4:	63000414 	ori	r12,r12,16
 80017e8:	10000b1e 	bne	r2,zero,8001818 <___svfprintf_internal_r+0xb60>
 80017ec:	d8800617 	ldw	r2,24(sp)
 80017f0:	10800104 	addi	r2,r2,4
 80017f4:	d8c00617 	ldw	r3,24(sp)
 80017f8:	002b883a 	mov	r21,zero
 80017fc:	d8800615 	stw	r2,24(sp)
 8001800:	1d000017 	ldw	r20,0(r3)
 8001804:	00800044 	movi	r2,1
 8001808:	003f5606 	br	8001564 <___svfprintf_internal_r+0x8ac>
 800180c:	63000214 	ori	r12,r12,8
 8001810:	b2800007 	ldb	r10,0(r22)
 8001814:	003d7406 	br	8000de8 <___svfprintf_internal_r+0x130>
 8001818:	d8c00617 	ldw	r3,24(sp)
 800181c:	00800044 	movi	r2,1
 8001820:	1d000017 	ldw	r20,0(r3)
 8001824:	1d400117 	ldw	r21,4(r3)
 8001828:	18c00204 	addi	r3,r3,8
 800182c:	d8c00615 	stw	r3,24(sp)
 8001830:	003f4c06 	br	8001564 <___svfprintf_internal_r+0x8ac>
 8001834:	d8c00617 	ldw	r3,24(sp)
 8001838:	18800117 	ldw	r2,4(r3)
 800183c:	1d000017 	ldw	r20,0(r3)
 8001840:	18c00204 	addi	r3,r3,8
 8001844:	d8c00615 	stw	r3,24(sp)
 8001848:	102b883a 	mov	r21,r2
 800184c:	003e8106 	br	8001254 <___svfprintf_internal_r+0x59c>
 8001850:	d8c00617 	ldw	r3,24(sp)
 8001854:	0005883a 	mov	r2,zero
 8001858:	1d000017 	ldw	r20,0(r3)
 800185c:	1d400117 	ldw	r21,4(r3)
 8001860:	18c00204 	addi	r3,r3,8
 8001864:	d8c00615 	stw	r3,24(sp)
 8001868:	003f3e06 	br	8001564 <___svfprintf_internal_r+0x8ac>
 800186c:	a800111e 	bne	r21,zero,80018b4 <___svfprintf_internal_r+0xbfc>
 8001870:	a08002a8 	cmpgeui	r2,r20,10
 8001874:	10000f1e 	bne	r2,zero,80018b4 <___svfprintf_internal_r+0xbfc>
 8001878:	a5000c04 	addi	r20,r20,48
 800187c:	dd0028c5 	stb	r20,163(sp)
 8001880:	6025883a 	mov	r18,r12
 8001884:	05400044 	movi	r21,1
 8001888:	dc4028c4 	addi	r17,sp,163
 800188c:	5829883a 	mov	r20,r11
 8001890:	5d40010e 	bge	r11,r21,8001898 <___svfprintf_internal_r+0xbe0>
 8001894:	a829883a 	mov	r20,r21
 8001898:	d8000715 	stw	zero,28(sp)
 800189c:	6b403fcc 	andi	r13,r13,255
 80018a0:	6b40201c 	xori	r13,r13,128
 80018a4:	6b7fe004 	addi	r13,r13,-128
 80018a8:	683e8426 	beq	r13,zero,80012bc <___svfprintf_internal_r+0x604>
 80018ac:	a5000044 	addi	r20,r20,1
 80018b0:	003e8206 	br	80012bc <___svfprintf_internal_r+0x604>
 80018b4:	dc000e15 	stw	r16,56(sp)
 80018b8:	b823883a 	mov	r17,r23
 80018bc:	a821883a 	mov	r16,r21
 80018c0:	db000715 	stw	r12,28(sp)
 80018c4:	982b883a 	mov	r21,r19
 80018c8:	dac00f15 	stw	r11,60(sp)
 80018cc:	4025883a 	mov	r18,r8
 80018d0:	6827883a 	mov	r19,r13
 80018d4:	00000206 	br	80018e0 <___svfprintf_internal_r+0xc28>
 80018d8:	1029883a 	mov	r20,r2
 80018dc:	1821883a 	mov	r16,r3
 80018e0:	a009883a 	mov	r4,r20
 80018e4:	800b883a 	mov	r5,r16
 80018e8:	01800284 	movi	r6,10
 80018ec:	000f883a 	mov	r7,zero
 80018f0:	8008a3c0 	call	8008a3c <__umoddi3>
 80018f4:	10800c04 	addi	r2,r2,48
 80018f8:	8c7fffc4 	addi	r17,r17,-1
 80018fc:	a009883a 	mov	r4,r20
 8001900:	800b883a 	mov	r5,r16
 8001904:	88800005 	stb	r2,0(r17)
 8001908:	01800284 	movi	r6,10
 800190c:	000f883a 	mov	r7,zero
 8001910:	80084200 	call	8008420 <__udivdi3>
 8001914:	803ff01e 	bne	r16,zero,80018d8 <___svfprintf_internal_r+0xc20>
 8001918:	a50002a8 	cmpgeui	r20,r20,10
 800191c:	a03fee1e 	bne	r20,zero,80018d8 <___svfprintf_internal_r+0xc20>
 8001920:	db000717 	ldw	r12,28(sp)
 8001924:	dc000e17 	ldw	r16,56(sp)
 8001928:	dac00f17 	ldw	r11,60(sp)
 800192c:	981b883a 	mov	r13,r19
 8001930:	9011883a 	mov	r8,r18
 8001934:	a827883a 	mov	r19,r21
 8001938:	bc6bc83a 	sub	r21,r23,r17
 800193c:	6025883a 	mov	r18,r12
 8001940:	003fd206 	br	800188c <___svfprintf_internal_r+0xbd4>
 8001944:	e2801990 	cmplti	r10,fp,102
 8001948:	5000be1e 	bne	r10,zero,8001c44 <___svfprintf_internal_r+0xf8c>
 800194c:	d9000917 	ldw	r4,36(sp)
 8001950:	d9400a17 	ldw	r5,40(sp)
 8001954:	000d883a 	mov	r6,zero
 8001958:	000f883a 	mov	r7,zero
 800195c:	da000f15 	stw	r8,60(sp)
 8001960:	d8c00e15 	stw	r3,56(sp)
 8001964:	800a3080 	call	800a308 <__eqdf2>
 8001968:	d8c00e17 	ldw	r3,56(sp)
 800196c:	da000f17 	ldw	r8,60(sp)
 8001970:	1001641e 	bne	r2,zero,8001f04 <___svfprintf_internal_r+0x124c>
 8001974:	d8801d17 	ldw	r2,116(sp)
 8001978:	01020074 	movhi	r4,2049
 800197c:	21371804 	addi	r4,r4,-9120
 8001980:	10800044 	addi	r2,r2,1
 8001984:	18c00044 	addi	r3,r3,1
 8001988:	41000015 	stw	r4,0(r8)
 800198c:	01000044 	movi	r4,1
 8001990:	d8801d15 	stw	r2,116(sp)
 8001994:	41000115 	stw	r4,4(r8)
 8001998:	d8c01e15 	stw	r3,120(sp)
 800199c:	10800208 	cmpgei	r2,r2,8
 80019a0:	1002fa1e 	bne	r2,zero,800258c <___svfprintf_internal_r+0x18d4>
 80019a4:	42000204 	addi	r8,r8,8
 80019a8:	d8801617 	ldw	r2,88(sp)
 80019ac:	d8c00817 	ldw	r3,32(sp)
 80019b0:	10c00216 	blt	r2,r3,80019bc <___svfprintf_internal_r+0xd04>
 80019b4:	9080004c 	andi	r2,r18,1
 80019b8:	10026b26 	beq	r2,zero,8002368 <___svfprintf_internal_r+0x16b0>
 80019bc:	d8800d17 	ldw	r2,52(sp)
 80019c0:	d8c01e17 	ldw	r3,120(sp)
 80019c4:	d9000b17 	ldw	r4,44(sp)
 80019c8:	40800015 	stw	r2,0(r8)
 80019cc:	d8801d17 	ldw	r2,116(sp)
 80019d0:	20c7883a 	add	r3,r4,r3
 80019d4:	41000115 	stw	r4,4(r8)
 80019d8:	10800044 	addi	r2,r2,1
 80019dc:	d8801d15 	stw	r2,116(sp)
 80019e0:	d8c01e15 	stw	r3,120(sp)
 80019e4:	10800208 	cmpgei	r2,r2,8
 80019e8:	1003041e 	bne	r2,zero,80025fc <___svfprintf_internal_r+0x1944>
 80019ec:	42000204 	addi	r8,r8,8
 80019f0:	d8800817 	ldw	r2,32(sp)
 80019f4:	147fffc4 	addi	r17,r2,-1
 80019f8:	047e630e 	bge	zero,r17,8001388 <___svfprintf_internal_r+0x6d0>
 80019fc:	03020074 	movhi	r12,2049
 8001a00:	89000450 	cmplti	r4,r17,17
 8001a04:	63371884 	addi	r12,r12,-9118
 8001a08:	d8801d17 	ldw	r2,116(sp)
 8001a0c:	20033b1e 	bne	r4,zero,80026fc <___svfprintf_internal_r+0x1a44>
 8001a10:	dc000715 	stw	r16,28(sp)
 8001a14:	05400404 	movi	r21,16
 8001a18:	df000517 	ldw	fp,20(sp)
 8001a1c:	6021883a 	mov	r16,r12
 8001a20:	00000406 	br	8001a34 <___svfprintf_internal_r+0xd7c>
 8001a24:	42000204 	addi	r8,r8,8
 8001a28:	8c7ffc04 	addi	r17,r17,-16
 8001a2c:	89000448 	cmpgei	r4,r17,17
 8001a30:	20033026 	beq	r4,zero,80026f4 <___svfprintf_internal_r+0x1a3c>
 8001a34:	10800044 	addi	r2,r2,1
 8001a38:	18c00404 	addi	r3,r3,16
 8001a3c:	44000015 	stw	r16,0(r8)
 8001a40:	45400115 	stw	r21,4(r8)
 8001a44:	d8c01e15 	stw	r3,120(sp)
 8001a48:	d8801d15 	stw	r2,116(sp)
 8001a4c:	11000208 	cmpgei	r4,r2,8
 8001a50:	203ff426 	beq	r4,zero,8001a24 <___svfprintf_internal_r+0xd6c>
 8001a54:	d9801c04 	addi	r6,sp,112
 8001a58:	980b883a 	mov	r5,r19
 8001a5c:	e009883a 	mov	r4,fp
 8001a60:	80060fc0 	call	80060fc <__ssprint_r>
 8001a64:	103d531e 	bne	r2,zero,8000fb4 <___svfprintf_internal_r+0x2fc>
 8001a68:	d8c01e17 	ldw	r3,120(sp)
 8001a6c:	d8801d17 	ldw	r2,116(sp)
 8001a70:	b811883a 	mov	r8,r23
 8001a74:	003fec06 	br	8001a28 <___svfprintf_internal_r+0xd70>
 8001a78:	850fc83a 	sub	r7,r16,r20
 8001a7c:	01fe340e 	bge	zero,r7,8001350 <___svfprintf_internal_r+0x698>
 8001a80:	03020074 	movhi	r12,2049
 8001a84:	39000450 	cmplti	r4,r7,17
 8001a88:	63371884 	addi	r12,r12,-9118
 8001a8c:	d8801d17 	ldw	r2,116(sp)
 8001a90:	2000271e 	bne	r4,zero,8001b30 <___svfprintf_internal_r+0xe78>
 8001a94:	dc800e15 	stw	r18,56(sp)
 8001a98:	dc400f15 	stw	r17,60(sp)
 8001a9c:	dc001015 	stw	r16,64(sp)
 8001aa0:	03400404 	movi	r13,16
 8001aa4:	3821883a 	mov	r16,r7
 8001aa8:	dac01215 	stw	r11,72(sp)
 8001aac:	dc400517 	ldw	r17,20(sp)
 8001ab0:	6025883a 	mov	r18,r12
 8001ab4:	00000406 	br	8001ac8 <___svfprintf_internal_r+0xe10>
 8001ab8:	843ffc04 	addi	r16,r16,-16
 8001abc:	81000448 	cmpgei	r4,r16,17
 8001ac0:	42000204 	addi	r8,r8,8
 8001ac4:	20001426 	beq	r4,zero,8001b18 <___svfprintf_internal_r+0xe60>
 8001ac8:	10800044 	addi	r2,r2,1
 8001acc:	18c00404 	addi	r3,r3,16
 8001ad0:	44800015 	stw	r18,0(r8)
 8001ad4:	43400115 	stw	r13,4(r8)
 8001ad8:	d8c01e15 	stw	r3,120(sp)
 8001adc:	d8801d15 	stw	r2,116(sp)
 8001ae0:	11000208 	cmpgei	r4,r2,8
 8001ae4:	203ff426 	beq	r4,zero,8001ab8 <___svfprintf_internal_r+0xe00>
 8001ae8:	d9801c04 	addi	r6,sp,112
 8001aec:	980b883a 	mov	r5,r19
 8001af0:	8809883a 	mov	r4,r17
 8001af4:	80060fc0 	call	80060fc <__ssprint_r>
 8001af8:	103d2e1e 	bne	r2,zero,8000fb4 <___svfprintf_internal_r+0x2fc>
 8001afc:	843ffc04 	addi	r16,r16,-16
 8001b00:	81000448 	cmpgei	r4,r16,17
 8001b04:	d8c01e17 	ldw	r3,120(sp)
 8001b08:	d8801d17 	ldw	r2,116(sp)
 8001b0c:	b811883a 	mov	r8,r23
 8001b10:	03400404 	movi	r13,16
 8001b14:	203fec1e 	bne	r4,zero,8001ac8 <___svfprintf_internal_r+0xe10>
 8001b18:	800f883a 	mov	r7,r16
 8001b1c:	9019883a 	mov	r12,r18
 8001b20:	dc400f17 	ldw	r17,60(sp)
 8001b24:	dc001017 	ldw	r16,64(sp)
 8001b28:	dac01217 	ldw	r11,72(sp)
 8001b2c:	dc800e17 	ldw	r18,56(sp)
 8001b30:	10800044 	addi	r2,r2,1
 8001b34:	19c7883a 	add	r3,r3,r7
 8001b38:	d8801d15 	stw	r2,116(sp)
 8001b3c:	43000015 	stw	r12,0(r8)
 8001b40:	41c00115 	stw	r7,4(r8)
 8001b44:	d8c01e15 	stw	r3,120(sp)
 8001b48:	10800208 	cmpgei	r2,r2,8
 8001b4c:	1002961e 	bne	r2,zero,80025a8 <___svfprintf_internal_r+0x18f0>
 8001b50:	5d4fc83a 	sub	r7,r11,r21
 8001b54:	42000204 	addi	r8,r8,8
 8001b58:	01fdff0e 	bge	zero,r7,8001358 <___svfprintf_internal_r+0x6a0>
 8001b5c:	03020074 	movhi	r12,2049
 8001b60:	39000450 	cmplti	r4,r7,17
 8001b64:	63371884 	addi	r12,r12,-9118
 8001b68:	d8801d17 	ldw	r2,116(sp)
 8001b6c:	2000251e 	bne	r4,zero,8001c04 <___svfprintf_internal_r+0xf4c>
 8001b70:	dc800e15 	stw	r18,56(sp)
 8001b74:	dc400f15 	stw	r17,60(sp)
 8001b78:	dc001015 	stw	r16,64(sp)
 8001b7c:	02c00404 	movi	r11,16
 8001b80:	3821883a 	mov	r16,r7
 8001b84:	dc400517 	ldw	r17,20(sp)
 8001b88:	6025883a 	mov	r18,r12
 8001b8c:	00000406 	br	8001ba0 <___svfprintf_internal_r+0xee8>
 8001b90:	843ffc04 	addi	r16,r16,-16
 8001b94:	81000448 	cmpgei	r4,r16,17
 8001b98:	42000204 	addi	r8,r8,8
 8001b9c:	20001426 	beq	r4,zero,8001bf0 <___svfprintf_internal_r+0xf38>
 8001ba0:	10800044 	addi	r2,r2,1
 8001ba4:	18c00404 	addi	r3,r3,16
 8001ba8:	44800015 	stw	r18,0(r8)
 8001bac:	42c00115 	stw	r11,4(r8)
 8001bb0:	d8c01e15 	stw	r3,120(sp)
 8001bb4:	d8801d15 	stw	r2,116(sp)
 8001bb8:	11000208 	cmpgei	r4,r2,8
 8001bbc:	203ff426 	beq	r4,zero,8001b90 <___svfprintf_internal_r+0xed8>
 8001bc0:	d9801c04 	addi	r6,sp,112
 8001bc4:	980b883a 	mov	r5,r19
 8001bc8:	8809883a 	mov	r4,r17
 8001bcc:	80060fc0 	call	80060fc <__ssprint_r>
 8001bd0:	103cf81e 	bne	r2,zero,8000fb4 <___svfprintf_internal_r+0x2fc>
 8001bd4:	843ffc04 	addi	r16,r16,-16
 8001bd8:	81000448 	cmpgei	r4,r16,17
 8001bdc:	d8c01e17 	ldw	r3,120(sp)
 8001be0:	d8801d17 	ldw	r2,116(sp)
 8001be4:	b811883a 	mov	r8,r23
 8001be8:	02c00404 	movi	r11,16
 8001bec:	203fec1e 	bne	r4,zero,8001ba0 <___svfprintf_internal_r+0xee8>
 8001bf0:	800f883a 	mov	r7,r16
 8001bf4:	9019883a 	mov	r12,r18
 8001bf8:	dc400f17 	ldw	r17,60(sp)
 8001bfc:	dc001017 	ldw	r16,64(sp)
 8001c00:	dc800e17 	ldw	r18,56(sp)
 8001c04:	10800044 	addi	r2,r2,1
 8001c08:	19c7883a 	add	r3,r3,r7
 8001c0c:	d8801d15 	stw	r2,116(sp)
 8001c10:	43000015 	stw	r12,0(r8)
 8001c14:	41c00115 	stw	r7,4(r8)
 8001c18:	d8c01e15 	stw	r3,120(sp)
 8001c1c:	10800208 	cmpgei	r2,r2,8
 8001c20:	1001421e 	bne	r2,zero,800212c <___svfprintf_internal_r+0x1474>
 8001c24:	42000204 	addi	r8,r8,8
 8001c28:	003dcb06 	br	8001358 <___svfprintf_internal_r+0x6a0>
 8001c2c:	d9000517 	ldw	r4,20(sp)
 8001c30:	d9801c04 	addi	r6,sp,112
 8001c34:	980b883a 	mov	r5,r19
 8001c38:	80060fc0 	call	80060fc <__ssprint_r>
 8001c3c:	103ddc26 	beq	r2,zero,80013b0 <___svfprintf_internal_r+0x6f8>
 8001c40:	003cdc06 	br	8000fb4 <___svfprintf_internal_r+0x2fc>
 8001c44:	d8800817 	ldw	r2,32(sp)
 8001c48:	da801d17 	ldw	r10,116(sp)
 8001c4c:	18c00044 	addi	r3,r3,1
 8001c50:	10800088 	cmpgei	r2,r2,2
 8001c54:	55400044 	addi	r21,r10,1
 8001c58:	47000204 	addi	fp,r8,8
 8001c5c:	10010226 	beq	r2,zero,8002068 <___svfprintf_internal_r+0x13b0>
 8001c60:	00800044 	movi	r2,1
 8001c64:	40800115 	stw	r2,4(r8)
 8001c68:	44400015 	stw	r17,0(r8)
 8001c6c:	d8c01e15 	stw	r3,120(sp)
 8001c70:	dd401d15 	stw	r21,116(sp)
 8001c74:	a8800210 	cmplti	r2,r21,8
 8001c78:	10014126 	beq	r2,zero,8002180 <___svfprintf_internal_r+0x14c8>
 8001c7c:	d8800b17 	ldw	r2,44(sp)
 8001c80:	d9000d17 	ldw	r4,52(sp)
 8001c84:	ad400044 	addi	r21,r21,1
 8001c88:	1887883a 	add	r3,r3,r2
 8001c8c:	e0800115 	stw	r2,4(fp)
 8001c90:	e1000015 	stw	r4,0(fp)
 8001c94:	d8c01e15 	stw	r3,120(sp)
 8001c98:	dd401d15 	stw	r21,116(sp)
 8001c9c:	a8800208 	cmpgei	r2,r21,8
 8001ca0:	10012e1e 	bne	r2,zero,800215c <___svfprintf_internal_r+0x14a4>
 8001ca4:	e7000204 	addi	fp,fp,8
 8001ca8:	d8800817 	ldw	r2,32(sp)
 8001cac:	d9000917 	ldw	r4,36(sp)
 8001cb0:	d9400a17 	ldw	r5,40(sp)
 8001cb4:	aa800044 	addi	r10,r21,1
 8001cb8:	e2000204 	addi	r8,fp,8
 8001cbc:	12ffffc4 	addi	r11,r2,-1
 8001cc0:	000d883a 	mov	r6,zero
 8001cc4:	000f883a 	mov	r7,zero
 8001cc8:	d8c01215 	stw	r3,72(sp)
 8001ccc:	da801015 	stw	r10,64(sp)
 8001cd0:	da800f15 	stw	r10,60(sp)
 8001cd4:	da000e15 	stw	r8,56(sp)
 8001cd8:	dac00715 	stw	r11,28(sp)
 8001cdc:	800a3080 	call	800a308 <__eqdf2>
 8001ce0:	dac00717 	ldw	r11,28(sp)
 8001ce4:	da000e17 	ldw	r8,56(sp)
 8001ce8:	db400f17 	ldw	r13,60(sp)
 8001cec:	da801017 	ldw	r10,64(sp)
 8001cf0:	d8c01217 	ldw	r3,72(sp)
 8001cf4:	1000e826 	beq	r2,zero,8002098 <___svfprintf_internal_r+0x13e0>
 8001cf8:	8c400044 	addi	r17,r17,1
 8001cfc:	1ac7883a 	add	r3,r3,r11
 8001d00:	da801d15 	stw	r10,116(sp)
 8001d04:	e4400015 	stw	r17,0(fp)
 8001d08:	e2c00115 	stw	r11,4(fp)
 8001d0c:	d8c01e15 	stw	r3,120(sp)
 8001d10:	52800208 	cmpgei	r10,r10,8
 8001d14:	5001dc1e 	bne	r10,zero,8002488 <___svfprintf_internal_r+0x17d0>
 8001d18:	e0800404 	addi	r2,fp,16
 8001d1c:	aa800084 	addi	r10,r21,2
 8001d20:	4039883a 	mov	fp,r8
 8001d24:	1011883a 	mov	r8,r2
 8001d28:	d9001117 	ldw	r4,68(sp)
 8001d2c:	d8801844 	addi	r2,sp,97
 8001d30:	da801d15 	stw	r10,116(sp)
 8001d34:	20c7883a 	add	r3,r4,r3
 8001d38:	e0800015 	stw	r2,0(fp)
 8001d3c:	e1000115 	stw	r4,4(fp)
 8001d40:	d8c01e15 	stw	r3,120(sp)
 8001d44:	52800210 	cmplti	r10,r10,8
 8001d48:	503d8f1e 	bne	r10,zero,8001388 <___svfprintf_internal_r+0x6d0>
 8001d4c:	d9000517 	ldw	r4,20(sp)
 8001d50:	d9801c04 	addi	r6,sp,112
 8001d54:	980b883a 	mov	r5,r19
 8001d58:	80060fc0 	call	80060fc <__ssprint_r>
 8001d5c:	103c951e 	bne	r2,zero,8000fb4 <___svfprintf_internal_r+0x2fc>
 8001d60:	d8c01e17 	ldw	r3,120(sp)
 8001d64:	b811883a 	mov	r8,r23
 8001d68:	003d8706 	br	8001388 <___svfprintf_internal_r+0x6d0>
 8001d6c:	9019883a 	mov	r12,r18
 8001d70:	003e6806 	br	8001714 <___svfprintf_internal_r+0xa5c>
 8001d74:	03020074 	movhi	r12,2049
 8001d78:	39000450 	cmplti	r4,r7,17
 8001d7c:	63371c84 	addi	r12,r12,-9102
 8001d80:	d8801d17 	ldw	r2,116(sp)
 8001d84:	20002b1e 	bne	r4,zero,8001e34 <___svfprintf_internal_r+0x117c>
 8001d88:	dc801015 	stw	r18,64(sp)
 8001d8c:	dc401215 	stw	r17,72(sp)
 8001d90:	dc001315 	stw	r16,76(sp)
 8001d94:	03c00404 	movi	r15,16
 8001d98:	db800e15 	stw	r14,56(sp)
 8001d9c:	db400f15 	stw	r13,60(sp)
 8001da0:	dac01415 	stw	r11,80(sp)
 8001da4:	3821883a 	mov	r16,r7
 8001da8:	dc400517 	ldw	r17,20(sp)
 8001dac:	6025883a 	mov	r18,r12
 8001db0:	00000406 	br	8001dc4 <___svfprintf_internal_r+0x110c>
 8001db4:	843ffc04 	addi	r16,r16,-16
 8001db8:	81000448 	cmpgei	r4,r16,17
 8001dbc:	42000204 	addi	r8,r8,8
 8001dc0:	20001426 	beq	r4,zero,8001e14 <___svfprintf_internal_r+0x115c>
 8001dc4:	10800044 	addi	r2,r2,1
 8001dc8:	18c00404 	addi	r3,r3,16
 8001dcc:	44800015 	stw	r18,0(r8)
 8001dd0:	43c00115 	stw	r15,4(r8)
 8001dd4:	d8c01e15 	stw	r3,120(sp)
 8001dd8:	d8801d15 	stw	r2,116(sp)
 8001ddc:	11000208 	cmpgei	r4,r2,8
 8001de0:	203ff426 	beq	r4,zero,8001db4 <___svfprintf_internal_r+0x10fc>
 8001de4:	d9801c04 	addi	r6,sp,112
 8001de8:	980b883a 	mov	r5,r19
 8001dec:	8809883a 	mov	r4,r17
 8001df0:	80060fc0 	call	80060fc <__ssprint_r>
 8001df4:	103c6f1e 	bne	r2,zero,8000fb4 <___svfprintf_internal_r+0x2fc>
 8001df8:	843ffc04 	addi	r16,r16,-16
 8001dfc:	81000448 	cmpgei	r4,r16,17
 8001e00:	d8c01e17 	ldw	r3,120(sp)
 8001e04:	d8801d17 	ldw	r2,116(sp)
 8001e08:	b811883a 	mov	r8,r23
 8001e0c:	03c00404 	movi	r15,16
 8001e10:	203fec1e 	bne	r4,zero,8001dc4 <___svfprintf_internal_r+0x110c>
 8001e14:	800f883a 	mov	r7,r16
 8001e18:	9019883a 	mov	r12,r18
 8001e1c:	db800e17 	ldw	r14,56(sp)
 8001e20:	db400f17 	ldw	r13,60(sp)
 8001e24:	dc401217 	ldw	r17,72(sp)
 8001e28:	dac01417 	ldw	r11,80(sp)
 8001e2c:	dc001317 	ldw	r16,76(sp)
 8001e30:	dc801017 	ldw	r18,64(sp)
 8001e34:	10800044 	addi	r2,r2,1
 8001e38:	19c7883a 	add	r3,r3,r7
 8001e3c:	d8801d15 	stw	r2,116(sp)
 8001e40:	43000015 	stw	r12,0(r8)
 8001e44:	41c00115 	stw	r7,4(r8)
 8001e48:	d8c01e15 	stw	r3,120(sp)
 8001e4c:	10800208 	cmpgei	r2,r2,8
 8001e50:	1001c01e 	bne	r2,zero,8002554 <___svfprintf_internal_r+0x189c>
 8001e54:	42000204 	addi	r8,r8,8
 8001e58:	003d2006 	br	80012dc <___svfprintf_internal_r+0x624>
 8001e5c:	d9000517 	ldw	r4,20(sp)
 8001e60:	d9801c04 	addi	r6,sp,112
 8001e64:	980b883a 	mov	r5,r19
 8001e68:	dac01015 	stw	r11,64(sp)
 8001e6c:	db400f15 	stw	r13,60(sp)
 8001e70:	db800e15 	stw	r14,56(sp)
 8001e74:	80060fc0 	call	80060fc <__ssprint_r>
 8001e78:	103c4e1e 	bne	r2,zero,8000fb4 <___svfprintf_internal_r+0x2fc>
 8001e7c:	d8c01e17 	ldw	r3,120(sp)
 8001e80:	b811883a 	mov	r8,r23
 8001e84:	dac01017 	ldw	r11,64(sp)
 8001e88:	db400f17 	ldw	r13,60(sp)
 8001e8c:	db800e17 	ldw	r14,56(sp)
 8001e90:	003d2006 	br	8001314 <___svfprintf_internal_r+0x65c>
 8001e94:	d9000517 	ldw	r4,20(sp)
 8001e98:	d9801c04 	addi	r6,sp,112
 8001e9c:	980b883a 	mov	r5,r19
 8001ea0:	dac00f15 	stw	r11,60(sp)
 8001ea4:	db400e15 	stw	r13,56(sp)
 8001ea8:	80060fc0 	call	80060fc <__ssprint_r>
 8001eac:	103c411e 	bne	r2,zero,8000fb4 <___svfprintf_internal_r+0x2fc>
 8001eb0:	d8c01e17 	ldw	r3,120(sp)
 8001eb4:	b811883a 	mov	r8,r23
 8001eb8:	dac00f17 	ldw	r11,60(sp)
 8001ebc:	db400e17 	ldw	r13,56(sp)
 8001ec0:	003d2106 	br	8001348 <___svfprintf_internal_r+0x690>
 8001ec4:	d9000c17 	ldw	r4,48(sp)
 8001ec8:	b823883a 	mov	r17,r23
 8001ecc:	a08003cc 	andi	r2,r20,15
 8001ed0:	a806973a 	slli	r3,r21,28
 8001ed4:	2085883a 	add	r2,r4,r2
 8001ed8:	a028d13a 	srli	r20,r20,4
 8001edc:	10800003 	ldbu	r2,0(r2)
 8001ee0:	a82ad13a 	srli	r21,r21,4
 8001ee4:	8c7fffc4 	addi	r17,r17,-1
 8001ee8:	1d28b03a 	or	r20,r3,r20
 8001eec:	88800005 	stb	r2,0(r17)
 8001ef0:	a544b03a 	or	r2,r20,r21
 8001ef4:	103ff51e 	bne	r2,zero,8001ecc <___svfprintf_internal_r+0x1214>
 8001ef8:	bc6bc83a 	sub	r21,r23,r17
 8001efc:	6025883a 	mov	r18,r12
 8001f00:	003e6206 	br	800188c <___svfprintf_internal_r+0xbd4>
 8001f04:	d9001617 	ldw	r4,88(sp)
 8001f08:	01016a0e 	bge	zero,r4,80024b4 <___svfprintf_internal_r+0x17fc>
 8001f0c:	d8800817 	ldw	r2,32(sp)
 8001f10:	d9000717 	ldw	r4,28(sp)
 8001f14:	1039883a 	mov	fp,r2
 8001f18:	20810816 	blt	r4,r2,800233c <___svfprintf_internal_r+0x1684>
 8001f1c:	07000a0e 	bge	zero,fp,8001f48 <___svfprintf_internal_r+0x1290>
 8001f20:	d8801d17 	ldw	r2,116(sp)
 8001f24:	1f07883a 	add	r3,r3,fp
 8001f28:	44400015 	stw	r17,0(r8)
 8001f2c:	10800044 	addi	r2,r2,1
 8001f30:	d8801d15 	stw	r2,116(sp)
 8001f34:	47000115 	stw	fp,4(r8)
 8001f38:	d8c01e15 	stw	r3,120(sp)
 8001f3c:	10800208 	cmpgei	r2,r2,8
 8001f40:	1003061e 	bne	r2,zero,8002b5c <___svfprintf_internal_r+0x1ea4>
 8001f44:	42000204 	addi	r8,r8,8
 8001f48:	e0010916 	blt	fp,zero,8002370 <___svfprintf_internal_r+0x16b8>
 8001f4c:	d8800717 	ldw	r2,28(sp)
 8001f50:	1739c83a 	sub	fp,r2,fp
 8001f54:	07011c16 	blt	zero,fp,80023c8 <___svfprintf_internal_r+0x1710>
 8001f58:	d9001617 	ldw	r4,88(sp)
 8001f5c:	d8800817 	ldw	r2,32(sp)
 8001f60:	2080f90e 	bge	r4,r2,8002348 <___svfprintf_internal_r+0x1690>
 8001f64:	d8800d17 	ldw	r2,52(sp)
 8001f68:	d9400b17 	ldw	r5,44(sp)
 8001f6c:	40800015 	stw	r2,0(r8)
 8001f70:	d8801d17 	ldw	r2,116(sp)
 8001f74:	1947883a 	add	r3,r3,r5
 8001f78:	41400115 	stw	r5,4(r8)
 8001f7c:	10800044 	addi	r2,r2,1
 8001f80:	d8801d15 	stw	r2,116(sp)
 8001f84:	d8c01e15 	stw	r3,120(sp)
 8001f88:	10800208 	cmpgei	r2,r2,8
 8001f8c:	1002ab1e 	bne	r2,zero,8002a3c <___svfprintf_internal_r+0x1d84>
 8001f90:	42000204 	addi	r8,r8,8
 8001f94:	d8800817 	ldw	r2,32(sp)
 8001f98:	d9400717 	ldw	r5,28(sp)
 8001f9c:	1105c83a 	sub	r2,r2,r4
 8001fa0:	2901320e 	bge	r5,r4,800246c <___svfprintf_internal_r+0x17b4>
 8001fa4:	1039883a 	mov	fp,r2
 8001fa8:	07000c0e 	bge	zero,fp,8001fdc <___svfprintf_internal_r+0x1324>
 8001fac:	d9000717 	ldw	r4,28(sp)
 8001fb0:	1f07883a 	add	r3,r3,fp
 8001fb4:	47000115 	stw	fp,4(r8)
 8001fb8:	8923883a 	add	r17,r17,r4
 8001fbc:	d9001d17 	ldw	r4,116(sp)
 8001fc0:	44400015 	stw	r17,0(r8)
 8001fc4:	d8c01e15 	stw	r3,120(sp)
 8001fc8:	21000044 	addi	r4,r4,1
 8001fcc:	d9001d15 	stw	r4,116(sp)
 8001fd0:	21000208 	cmpgei	r4,r4,8
 8001fd4:	2002ec1e 	bne	r4,zero,8002b88 <___svfprintf_internal_r+0x1ed0>
 8001fd8:	42000204 	addi	r8,r8,8
 8001fdc:	e000010e 	bge	fp,zero,8001fe4 <___svfprintf_internal_r+0x132c>
 8001fe0:	0039883a 	mov	fp,zero
 8001fe4:	1739c83a 	sub	fp,r2,fp
 8001fe8:	073ce70e 	bge	zero,fp,8001388 <___svfprintf_internal_r+0x6d0>
 8001fec:	03020074 	movhi	r12,2049
 8001ff0:	e1000450 	cmplti	r4,fp,17
 8001ff4:	63371884 	addi	r12,r12,-9118
 8001ff8:	d8801d17 	ldw	r2,116(sp)
 8001ffc:	2002791e 	bne	r4,zero,80029e4 <___svfprintf_internal_r+0x1d2c>
 8002000:	dc000715 	stw	r16,28(sp)
 8002004:	05400404 	movi	r21,16
 8002008:	dc400517 	ldw	r17,20(sp)
 800200c:	6021883a 	mov	r16,r12
 8002010:	00000406 	br	8002024 <___svfprintf_internal_r+0x136c>
 8002014:	42000204 	addi	r8,r8,8
 8002018:	e73ffc04 	addi	fp,fp,-16
 800201c:	e1000448 	cmpgei	r4,fp,17
 8002020:	20026e26 	beq	r4,zero,80029dc <___svfprintf_internal_r+0x1d24>
 8002024:	10800044 	addi	r2,r2,1
 8002028:	18c00404 	addi	r3,r3,16
 800202c:	44000015 	stw	r16,0(r8)
 8002030:	45400115 	stw	r21,4(r8)
 8002034:	d8c01e15 	stw	r3,120(sp)
 8002038:	d8801d15 	stw	r2,116(sp)
 800203c:	11000208 	cmpgei	r4,r2,8
 8002040:	203ff426 	beq	r4,zero,8002014 <___svfprintf_internal_r+0x135c>
 8002044:	d9801c04 	addi	r6,sp,112
 8002048:	980b883a 	mov	r5,r19
 800204c:	8809883a 	mov	r4,r17
 8002050:	80060fc0 	call	80060fc <__ssprint_r>
 8002054:	103bd71e 	bne	r2,zero,8000fb4 <___svfprintf_internal_r+0x2fc>
 8002058:	d8c01e17 	ldw	r3,120(sp)
 800205c:	d8801d17 	ldw	r2,116(sp)
 8002060:	b811883a 	mov	r8,r23
 8002064:	003fec06 	br	8002018 <___svfprintf_internal_r+0x1360>
 8002068:	9080004c 	andi	r2,r18,1
 800206c:	103efc1e 	bne	r2,zero,8001c60 <___svfprintf_internal_r+0xfa8>
 8002070:	00800044 	movi	r2,1
 8002074:	dd401d15 	stw	r21,116(sp)
 8002078:	44400015 	stw	r17,0(r8)
 800207c:	40800115 	stw	r2,4(r8)
 8002080:	d8c01e15 	stw	r3,120(sp)
 8002084:	ad400208 	cmpgei	r21,r21,8
 8002088:	a800ff1e 	bne	r21,zero,8002488 <___svfprintf_internal_r+0x17d0>
 800208c:	52800084 	addi	r10,r10,2
 8002090:	42000404 	addi	r8,r8,16
 8002094:	003f2406 	br	8001d28 <___svfprintf_internal_r+0x1070>
 8002098:	02ff230e 	bge	zero,r11,8001d28 <___svfprintf_internal_r+0x1070>
 800209c:	58800450 	cmplti	r2,r11,17
 80020a0:	03020074 	movhi	r12,2049
 80020a4:	1003351e 	bne	r2,zero,8002d7c <___svfprintf_internal_r+0x20c4>
 80020a8:	63371884 	addi	r12,r12,-9118
 80020ac:	dd000715 	stw	r20,28(sp)
 80020b0:	dc800e15 	stw	r18,56(sp)
 80020b4:	e005883a 	mov	r2,fp
 80020b8:	04400404 	movi	r17,16
 80020bc:	b039883a 	mov	fp,r22
 80020c0:	5825883a 	mov	r18,r11
 80020c4:	802d883a 	mov	r22,r16
 80020c8:	682b883a 	mov	r21,r13
 80020cc:	dc000517 	ldw	r16,20(sp)
 80020d0:	6029883a 	mov	r20,r12
 80020d4:	00000506 	br	80020ec <___svfprintf_internal_r+0x1434>
 80020d8:	10800204 	addi	r2,r2,8
 80020dc:	94bffc04 	addi	r18,r18,-16
 80020e0:	91000448 	cmpgei	r4,r18,17
 80020e4:	20018e26 	beq	r4,zero,8002720 <___svfprintf_internal_r+0x1a68>
 80020e8:	ad400044 	addi	r21,r21,1
 80020ec:	18c00404 	addi	r3,r3,16
 80020f0:	15000015 	stw	r20,0(r2)
 80020f4:	14400115 	stw	r17,4(r2)
 80020f8:	d8c01e15 	stw	r3,120(sp)
 80020fc:	dd401d15 	stw	r21,116(sp)
 8002100:	a9000208 	cmpgei	r4,r21,8
 8002104:	203ff426 	beq	r4,zero,80020d8 <___svfprintf_internal_r+0x1420>
 8002108:	d9801c04 	addi	r6,sp,112
 800210c:	980b883a 	mov	r5,r19
 8002110:	8009883a 	mov	r4,r16
 8002114:	80060fc0 	call	80060fc <__ssprint_r>
 8002118:	103ba61e 	bne	r2,zero,8000fb4 <___svfprintf_internal_r+0x2fc>
 800211c:	dd401d17 	ldw	r21,116(sp)
 8002120:	d8c01e17 	ldw	r3,120(sp)
 8002124:	b805883a 	mov	r2,r23
 8002128:	003fec06 	br	80020dc <___svfprintf_internal_r+0x1424>
 800212c:	d9000517 	ldw	r4,20(sp)
 8002130:	d9801c04 	addi	r6,sp,112
 8002134:	980b883a 	mov	r5,r19
 8002138:	80060fc0 	call	80060fc <__ssprint_r>
 800213c:	103b9d1e 	bne	r2,zero,8000fb4 <___svfprintf_internal_r+0x2fc>
 8002140:	d8c01e17 	ldw	r3,120(sp)
 8002144:	b811883a 	mov	r8,r23
 8002148:	003c8306 	br	8001358 <___svfprintf_internal_r+0x6a0>
 800214c:	002b883a 	mov	r21,zero
 8002150:	003c0306 	br	8001160 <___svfprintf_internal_r+0x4a8>
 8002154:	b023883a 	mov	r17,r22
 8002158:	003b1b06 	br	8000dc8 <___svfprintf_internal_r+0x110>
 800215c:	d9000517 	ldw	r4,20(sp)
 8002160:	d9801c04 	addi	r6,sp,112
 8002164:	980b883a 	mov	r5,r19
 8002168:	80060fc0 	call	80060fc <__ssprint_r>
 800216c:	103b911e 	bne	r2,zero,8000fb4 <___svfprintf_internal_r+0x2fc>
 8002170:	d8c01e17 	ldw	r3,120(sp)
 8002174:	dd401d17 	ldw	r21,116(sp)
 8002178:	b839883a 	mov	fp,r23
 800217c:	003eca06 	br	8001ca8 <___svfprintf_internal_r+0xff0>
 8002180:	d9000517 	ldw	r4,20(sp)
 8002184:	d9801c04 	addi	r6,sp,112
 8002188:	980b883a 	mov	r5,r19
 800218c:	80060fc0 	call	80060fc <__ssprint_r>
 8002190:	103b881e 	bne	r2,zero,8000fb4 <___svfprintf_internal_r+0x2fc>
 8002194:	d8c01e17 	ldw	r3,120(sp)
 8002198:	dd401d17 	ldw	r21,116(sp)
 800219c:	b839883a 	mov	fp,r23
 80021a0:	003eb606 	br	8001c7c <___svfprintf_internal_r+0xfc4>
 80021a4:	b823883a 	mov	r17,r23
 80021a8:	003db806 	br	800188c <___svfprintf_internal_r+0xbd4>
 80021ac:	d9000917 	ldw	r4,36(sp)
 80021b0:	d9400a17 	ldw	r5,40(sp)
 80021b4:	da000f15 	stw	r8,60(sp)
 80021b8:	200d883a 	mov	r6,r4
 80021bc:	280f883a 	mov	r7,r5
 80021c0:	dac00e15 	stw	r11,56(sp)
 80021c4:	db000715 	stw	r12,28(sp)
 80021c8:	800b6b40 	call	800b6b4 <__unorddf2>
 80021cc:	db000717 	ldw	r12,28(sp)
 80021d0:	dac00e17 	ldw	r11,56(sp)
 80021d4:	da000f17 	ldw	r8,60(sp)
 80021d8:	1002dc1e 	bne	r2,zero,8002d4c <___svfprintf_internal_r+0x2094>
 80021dc:	00fff7c4 	movi	r3,-33
 80021e0:	e0c6703a 	and	r3,fp,r3
 80021e4:	58bfffe0 	cmpeqi	r2,r11,-1
 80021e8:	d8c00715 	stw	r3,28(sp)
 80021ec:	1002641e 	bne	r2,zero,8002b80 <___svfprintf_internal_r+0x1ec8>
 80021f0:	188011d8 	cmpnei	r2,r3,71
 80021f4:	1000a126 	beq	r2,zero,800247c <___svfprintf_internal_r+0x17c4>
 80021f8:	d8800a17 	ldw	r2,40(sp)
 80021fc:	64804014 	ori	r18,r12,256
 8002200:	10021716 	blt	r2,zero,8002a60 <___svfprintf_internal_r+0x1da8>
 8002204:	dd000a17 	ldw	r20,40(sp)
 8002208:	d8000e05 	stb	zero,56(sp)
 800220c:	e08019a0 	cmpeqi	r2,fp,102
 8002210:	d8800f15 	stw	r2,60(sp)
 8002214:	1001561e 	bne	r2,zero,8002770 <___svfprintf_internal_r+0x1ab8>
 8002218:	e08011a0 	cmpeqi	r2,fp,70
 800221c:	1001541e 	bne	r2,zero,8002770 <___svfprintf_internal_r+0x1ab8>
 8002220:	d8800717 	ldw	r2,28(sp)
 8002224:	da001215 	stw	r8,72(sp)
 8002228:	db001015 	stw	r12,64(sp)
 800222c:	10801158 	cmpnei	r2,r2,69
 8002230:	10022d26 	beq	r2,zero,8002ae8 <___svfprintf_internal_r+0x1e30>
 8002234:	d8801a04 	addi	r2,sp,104
 8002238:	d8800315 	stw	r2,12(sp)
 800223c:	d9400917 	ldw	r5,36(sp)
 8002240:	d8801704 	addi	r2,sp,92
 8002244:	d9000517 	ldw	r4,20(sp)
 8002248:	d8800215 	stw	r2,8(sp)
 800224c:	d8801604 	addi	r2,sp,88
 8002250:	dac00015 	stw	r11,0(sp)
 8002254:	d8800115 	stw	r2,4(sp)
 8002258:	01c00084 	movi	r7,2
 800225c:	a00d883a 	mov	r6,r20
 8002260:	dac00815 	stw	r11,32(sp)
 8002264:	800302c0 	call	800302c <_dtoa_r>
 8002268:	dac00817 	ldw	r11,32(sp)
 800226c:	1023883a 	mov	r17,r2
 8002270:	e08019d8 	cmpnei	r2,fp,103
 8002274:	db001017 	ldw	r12,64(sp)
 8002278:	da001217 	ldw	r8,72(sp)
 800227c:	582b883a 	mov	r21,r11
 8002280:	10022b1e 	bne	r2,zero,8002b30 <___svfprintf_internal_r+0x1e78>
 8002284:	6080004c 	andi	r2,r12,1
 8002288:	10022b1e 	bne	r2,zero,8002b38 <___svfprintf_internal_r+0x1e80>
 800228c:	d8c01617 	ldw	r3,88(sp)
 8002290:	d8800717 	ldw	r2,28(sp)
 8002294:	d8c00715 	stw	r3,28(sp)
 8002298:	d8c01a17 	ldw	r3,104(sp)
 800229c:	108011e0 	cmpeqi	r2,r2,71
 80022a0:	1c47c83a 	sub	r3,r3,r17
 80022a4:	d8c00815 	stw	r3,32(sp)
 80022a8:	10017426 	beq	r2,zero,800287c <___svfprintf_internal_r+0x1bc4>
 80022ac:	d8c00717 	ldw	r3,28(sp)
 80022b0:	18bfff50 	cmplti	r2,r3,-3
 80022b4:	1001701e 	bne	r2,zero,8002878 <___svfprintf_internal_r+0x1bc0>
 80022b8:	58c16f16 	blt	r11,r3,8002878 <___svfprintf_internal_r+0x1bc0>
 80022bc:	d8800717 	ldw	r2,28(sp)
 80022c0:	d8c00817 	ldw	r3,32(sp)
 80022c4:	10c23f16 	blt	r2,r3,8002bc4 <___svfprintf_internal_r+0x1f0c>
 80022c8:	6300004c 	andi	r12,r12,1
 80022cc:	6002761e 	bne	r12,zero,8002ca8 <___svfprintf_internal_r+0x1ff0>
 80022d0:	1029883a 	mov	r20,r2
 80022d4:	1000010e 	bge	r2,zero,80022dc <___svfprintf_internal_r+0x1624>
 80022d8:	0029883a 	mov	r20,zero
 80022dc:	dd400717 	ldw	r21,28(sp)
 80022e0:	070019c4 	movi	fp,103
 80022e4:	d8800e07 	ldb	r2,56(sp)
 80022e8:	10021926 	beq	r2,zero,8002b50 <___svfprintf_internal_r+0x1e98>
 80022ec:	00800b44 	movi	r2,45
 80022f0:	d8801545 	stb	r2,85(sp)
 80022f4:	0017883a 	mov	r11,zero
 80022f8:	003d6c06 	br	80018ac <___svfprintf_internal_r+0xbf4>
 80022fc:	d9400417 	ldw	r5,16(sp)
 8002300:	20800017 	ldw	r2,0(r4)
 8002304:	d8c00615 	stw	r3,24(sp)
 8002308:	2809d7fa 	srai	r4,r5,31
 800230c:	11400015 	stw	r5,0(r2)
 8002310:	11000115 	stw	r4,4(r2)
 8002314:	003a8e06 	br	8000d50 <___svfprintf_internal_r+0x98>
 8002318:	00800c04 	movi	r2,48
 800231c:	d8801585 	stb	r2,86(sp)
 8002320:	df0015c5 	stb	fp,87(sp)
 8002324:	63000094 	ori	r12,r12,2
 8002328:	00800084 	movi	r2,2
 800232c:	003c8d06 	br	8001564 <___svfprintf_internal_r+0x8ac>
 8002330:	0421c83a 	sub	r16,zero,r16
 8002334:	d8800615 	stw	r2,24(sp)
 8002338:	003b5c06 	br	80010ac <___svfprintf_internal_r+0x3f4>
 800233c:	2039883a 	mov	fp,r4
 8002340:	073ef716 	blt	zero,fp,8001f20 <___svfprintf_internal_r+0x1268>
 8002344:	003f0006 	br	8001f48 <___svfprintf_internal_r+0x1290>
 8002348:	9080004c 	andi	r2,r18,1
 800234c:	103f051e 	bne	r2,zero,8001f64 <___svfprintf_internal_r+0x12ac>
 8002350:	d8800817 	ldw	r2,32(sp)
 8002354:	d9400717 	ldw	r5,28(sp)
 8002358:	1105c83a 	sub	r2,r2,r4
 800235c:	2900430e 	bge	r5,r4,800246c <___svfprintf_internal_r+0x17b4>
 8002360:	1039883a 	mov	fp,r2
 8002364:	003f1d06 	br	8001fdc <___svfprintf_internal_r+0x1324>
 8002368:	d8c01e17 	ldw	r3,120(sp)
 800236c:	003c0606 	br	8001388 <___svfprintf_internal_r+0x6d0>
 8002370:	d8800717 	ldw	r2,28(sp)
 8002374:	0039883a 	mov	fp,zero
 8002378:	1739c83a 	sub	fp,r2,fp
 800237c:	073ef60e 	bge	zero,fp,8001f58 <___svfprintf_internal_r+0x12a0>
 8002380:	00001106 	br	80023c8 <___svfprintf_internal_r+0x1710>
 8002384:	8809883a 	mov	r4,r17
 8002388:	8000c200 	call	8000c20 <strlen>
 800238c:	102b883a 	mov	r21,r2
 8002390:	1029883a 	mov	r20,r2
 8002394:	dc800615 	stw	r18,24(sp)
 8002398:	db000717 	ldw	r12,28(sp)
 800239c:	da000e17 	ldw	r8,56(sp)
 80023a0:	003bc306 	br	80012b0 <___svfprintf_internal_r+0x5f8>
 80023a4:	d9000517 	ldw	r4,20(sp)
 80023a8:	01401004 	movi	r5,64
 80023ac:	80047140 	call	8004714 <_malloc_r>
 80023b0:	98800015 	stw	r2,0(r19)
 80023b4:	98800415 	stw	r2,16(r19)
 80023b8:	10028926 	beq	r2,zero,8002de0 <___svfprintf_internal_r+0x2128>
 80023bc:	00801004 	movi	r2,64
 80023c0:	98800515 	stw	r2,20(r19)
 80023c4:	003a5606 	br	8000d20 <___svfprintf_internal_r+0x68>
 80023c8:	03020074 	movhi	r12,2049
 80023cc:	e1000450 	cmplti	r4,fp,17
 80023d0:	63371884 	addi	r12,r12,-9118
 80023d4:	d8801d17 	ldw	r2,116(sp)
 80023d8:	2001761e 	bne	r4,zero,80029b4 <___svfprintf_internal_r+0x1cfc>
 80023dc:	dc800e15 	stw	r18,56(sp)
 80023e0:	dc400f15 	stw	r17,60(sp)
 80023e4:	05400404 	movi	r21,16
 80023e8:	e023883a 	mov	r17,fp
 80023ec:	6025883a 	mov	r18,r12
 80023f0:	b039883a 	mov	fp,r22
 80023f4:	802d883a 	mov	r22,r16
 80023f8:	dc000517 	ldw	r16,20(sp)
 80023fc:	00000406 	br	8002410 <___svfprintf_internal_r+0x1758>
 8002400:	42000204 	addi	r8,r8,8
 8002404:	8c7ffc04 	addi	r17,r17,-16
 8002408:	89000448 	cmpgei	r4,r17,17
 800240c:	20016326 	beq	r4,zero,800299c <___svfprintf_internal_r+0x1ce4>
 8002410:	10800044 	addi	r2,r2,1
 8002414:	18c00404 	addi	r3,r3,16
 8002418:	44800015 	stw	r18,0(r8)
 800241c:	45400115 	stw	r21,4(r8)
 8002420:	d8c01e15 	stw	r3,120(sp)
 8002424:	d8801d15 	stw	r2,116(sp)
 8002428:	11000208 	cmpgei	r4,r2,8
 800242c:	203ff426 	beq	r4,zero,8002400 <___svfprintf_internal_r+0x1748>
 8002430:	d9801c04 	addi	r6,sp,112
 8002434:	980b883a 	mov	r5,r19
 8002438:	8009883a 	mov	r4,r16
 800243c:	80060fc0 	call	80060fc <__ssprint_r>
 8002440:	103adc1e 	bne	r2,zero,8000fb4 <___svfprintf_internal_r+0x2fc>
 8002444:	d8c01e17 	ldw	r3,120(sp)
 8002448:	d8801d17 	ldw	r2,116(sp)
 800244c:	b811883a 	mov	r8,r23
 8002450:	003fec06 	br	8002404 <___svfprintf_internal_r+0x174c>
 8002454:	d8800617 	ldw	r2,24(sp)
 8002458:	10800017 	ldw	r2,0(r2)
 800245c:	d8c00615 	stw	r3,24(sp)
 8002460:	d8c00417 	ldw	r3,16(sp)
 8002464:	10c00015 	stw	r3,0(r2)
 8002468:	003a3906 	br	8000d50 <___svfprintf_internal_r+0x98>
 800246c:	d9000817 	ldw	r4,32(sp)
 8002470:	d9400717 	ldw	r5,28(sp)
 8002474:	2179c83a 	sub	fp,r4,r5
 8002478:	003ecb06 	br	8001fa8 <___svfprintf_internal_r+0x12f0>
 800247c:	583f5e1e 	bne	r11,zero,80021f8 <___svfprintf_internal_r+0x1540>
 8002480:	02c00044 	movi	r11,1
 8002484:	003f5c06 	br	80021f8 <___svfprintf_internal_r+0x1540>
 8002488:	d9000517 	ldw	r4,20(sp)
 800248c:	d9801c04 	addi	r6,sp,112
 8002490:	980b883a 	mov	r5,r19
 8002494:	80060fc0 	call	80060fc <__ssprint_r>
 8002498:	103ac61e 	bne	r2,zero,8000fb4 <___svfprintf_internal_r+0x2fc>
 800249c:	da801d17 	ldw	r10,116(sp)
 80024a0:	d8c01e17 	ldw	r3,120(sp)
 80024a4:	da002b04 	addi	r8,sp,172
 80024a8:	52800044 	addi	r10,r10,1
 80024ac:	b839883a 	mov	fp,r23
 80024b0:	003e1d06 	br	8001d28 <___svfprintf_internal_r+0x1070>
 80024b4:	d8801d17 	ldw	r2,116(sp)
 80024b8:	01420074 	movhi	r5,2049
 80024bc:	29771804 	addi	r5,r5,-9120
 80024c0:	10800044 	addi	r2,r2,1
 80024c4:	18c00044 	addi	r3,r3,1
 80024c8:	41400015 	stw	r5,0(r8)
 80024cc:	01400044 	movi	r5,1
 80024d0:	d8801d15 	stw	r2,116(sp)
 80024d4:	41400115 	stw	r5,4(r8)
 80024d8:	d8c01e15 	stw	r3,120(sp)
 80024dc:	10800208 	cmpgei	r2,r2,8
 80024e0:	10014d1e 	bne	r2,zero,8002a18 <___svfprintf_internal_r+0x1d60>
 80024e4:	42000204 	addi	r8,r8,8
 80024e8:	2000541e 	bne	r4,zero,800263c <___svfprintf_internal_r+0x1984>
 80024ec:	d9000817 	ldw	r4,32(sp)
 80024f0:	9080004c 	andi	r2,r18,1
 80024f4:	1104b03a 	or	r2,r2,r4
 80024f8:	103ba326 	beq	r2,zero,8001388 <___svfprintf_internal_r+0x6d0>
 80024fc:	d8800d17 	ldw	r2,52(sp)
 8002500:	d9000b17 	ldw	r4,44(sp)
 8002504:	40800015 	stw	r2,0(r8)
 8002508:	d8801d17 	ldw	r2,116(sp)
 800250c:	20c7883a 	add	r3,r4,r3
 8002510:	41000115 	stw	r4,4(r8)
 8002514:	10800044 	addi	r2,r2,1
 8002518:	d8c01e15 	stw	r3,120(sp)
 800251c:	d8801d15 	stw	r2,116(sp)
 8002520:	11000208 	cmpgei	r4,r2,8
 8002524:	2001581e 	bne	r4,zero,8002a88 <___svfprintf_internal_r+0x1dd0>
 8002528:	42000204 	addi	r8,r8,8
 800252c:	d9000817 	ldw	r4,32(sp)
 8002530:	10800044 	addi	r2,r2,1
 8002534:	d8801d15 	stw	r2,116(sp)
 8002538:	20c7883a 	add	r3,r4,r3
 800253c:	44400015 	stw	r17,0(r8)
 8002540:	41000115 	stw	r4,4(r8)
 8002544:	d8c01e15 	stw	r3,120(sp)
 8002548:	10800208 	cmpgei	r2,r2,8
 800254c:	103b8d26 	beq	r2,zero,8001384 <___svfprintf_internal_r+0x6cc>
 8002550:	003dfe06 	br	8001d4c <___svfprintf_internal_r+0x1094>
 8002554:	d9000517 	ldw	r4,20(sp)
 8002558:	d9801c04 	addi	r6,sp,112
 800255c:	980b883a 	mov	r5,r19
 8002560:	dac01015 	stw	r11,64(sp)
 8002564:	db400f15 	stw	r13,60(sp)
 8002568:	db800e15 	stw	r14,56(sp)
 800256c:	80060fc0 	call	80060fc <__ssprint_r>
 8002570:	103a901e 	bne	r2,zero,8000fb4 <___svfprintf_internal_r+0x2fc>
 8002574:	d8c01e17 	ldw	r3,120(sp)
 8002578:	b811883a 	mov	r8,r23
 800257c:	dac01017 	ldw	r11,64(sp)
 8002580:	db400f17 	ldw	r13,60(sp)
 8002584:	db800e17 	ldw	r14,56(sp)
 8002588:	003b5406 	br	80012dc <___svfprintf_internal_r+0x624>
 800258c:	d9000517 	ldw	r4,20(sp)
 8002590:	d9801c04 	addi	r6,sp,112
 8002594:	980b883a 	mov	r5,r19
 8002598:	80060fc0 	call	80060fc <__ssprint_r>
 800259c:	103a851e 	bne	r2,zero,8000fb4 <___svfprintf_internal_r+0x2fc>
 80025a0:	b811883a 	mov	r8,r23
 80025a4:	003d0006 	br	80019a8 <___svfprintf_internal_r+0xcf0>
 80025a8:	d9000517 	ldw	r4,20(sp)
 80025ac:	d9801c04 	addi	r6,sp,112
 80025b0:	980b883a 	mov	r5,r19
 80025b4:	dac00e15 	stw	r11,56(sp)
 80025b8:	80060fc0 	call	80060fc <__ssprint_r>
 80025bc:	103a7d1e 	bne	r2,zero,8000fb4 <___svfprintf_internal_r+0x2fc>
 80025c0:	d8c01e17 	ldw	r3,120(sp)
 80025c4:	b811883a 	mov	r8,r23
 80025c8:	dac00e17 	ldw	r11,56(sp)
 80025cc:	003b6006 	br	8001350 <___svfprintf_internal_r+0x698>
 80025d0:	10c00060 	cmpeqi	r3,r2,1
 80025d4:	9019883a 	mov	r12,r18
 80025d8:	183c5026 	beq	r3,zero,800171c <___svfprintf_internal_r+0xa64>
 80025dc:	003ca606 	br	8001878 <___svfprintf_internal_r+0xbc0>
 80025e0:	b7000043 	ldbu	fp,1(r22)
 80025e4:	63000814 	ori	r12,r12,32
 80025e8:	b5800044 	addi	r22,r22,1
 80025ec:	e2803fcc 	andi	r10,fp,255
 80025f0:	5280201c 	xori	r10,r10,128
 80025f4:	52bfe004 	addi	r10,r10,-128
 80025f8:	0039fb06 	br	8000de8 <___svfprintf_internal_r+0x130>
 80025fc:	d9000517 	ldw	r4,20(sp)
 8002600:	d9801c04 	addi	r6,sp,112
 8002604:	980b883a 	mov	r5,r19
 8002608:	80060fc0 	call	80060fc <__ssprint_r>
 800260c:	103a691e 	bne	r2,zero,8000fb4 <___svfprintf_internal_r+0x2fc>
 8002610:	d8c01e17 	ldw	r3,120(sp)
 8002614:	b811883a 	mov	r8,r23
 8002618:	003cf506 	br	80019f0 <___svfprintf_internal_r+0xd38>
 800261c:	588001f0 	cmpltui	r2,r11,7
 8002620:	582b883a 	mov	r21,r11
 8002624:	10011426 	beq	r2,zero,8002a78 <___svfprintf_internal_r+0x1dc0>
 8002628:	04420074 	movhi	r17,2049
 800262c:	a829883a 	mov	r20,r21
 8002630:	dc800615 	stw	r18,24(sp)
 8002634:	8c771604 	addi	r17,r17,-9128
 8002638:	003b1d06 	br	80012b0 <___svfprintf_internal_r+0x5f8>
 800263c:	d8800d17 	ldw	r2,52(sp)
 8002640:	d9400b17 	ldw	r5,44(sp)
 8002644:	40800015 	stw	r2,0(r8)
 8002648:	d8801d17 	ldw	r2,116(sp)
 800264c:	28c7883a 	add	r3,r5,r3
 8002650:	41400115 	stw	r5,4(r8)
 8002654:	10800044 	addi	r2,r2,1
 8002658:	d8c01e15 	stw	r3,120(sp)
 800265c:	d8801d15 	stw	r2,116(sp)
 8002660:	11400208 	cmpgei	r5,r2,8
 8002664:	2801081e 	bne	r5,zero,8002a88 <___svfprintf_internal_r+0x1dd0>
 8002668:	42000204 	addi	r8,r8,8
 800266c:	203faf0e 	bge	r4,zero,800252c <___svfprintf_internal_r+0x1874>
 8002670:	03020074 	movhi	r12,2049
 8002674:	217ffc08 	cmpgei	r5,r4,-16
 8002678:	63371884 	addi	r12,r12,-9118
 800267c:	012bc83a 	sub	r21,zero,r4
 8002680:	2801751e 	bne	r5,zero,8002c58 <___svfprintf_internal_r+0x1fa0>
 8002684:	8009883a 	mov	r4,r16
 8002688:	dc400715 	stw	r17,28(sp)
 800268c:	a821883a 	mov	r16,r21
 8002690:	07000404 	movi	fp,16
 8002694:	6023883a 	mov	r17,r12
 8002698:	202b883a 	mov	r21,r4
 800269c:	00000406 	br	80026b0 <___svfprintf_internal_r+0x19f8>
 80026a0:	42000204 	addi	r8,r8,8
 80026a4:	843ffc04 	addi	r16,r16,-16
 80026a8:	81000448 	cmpgei	r4,r16,17
 80026ac:	20016526 	beq	r4,zero,8002c44 <___svfprintf_internal_r+0x1f8c>
 80026b0:	10800044 	addi	r2,r2,1
 80026b4:	18c00404 	addi	r3,r3,16
 80026b8:	44400015 	stw	r17,0(r8)
 80026bc:	47000115 	stw	fp,4(r8)
 80026c0:	d8c01e15 	stw	r3,120(sp)
 80026c4:	d8801d15 	stw	r2,116(sp)
 80026c8:	11000208 	cmpgei	r4,r2,8
 80026cc:	203ff426 	beq	r4,zero,80026a0 <___svfprintf_internal_r+0x19e8>
 80026d0:	d9000517 	ldw	r4,20(sp)
 80026d4:	d9801c04 	addi	r6,sp,112
 80026d8:	980b883a 	mov	r5,r19
 80026dc:	80060fc0 	call	80060fc <__ssprint_r>
 80026e0:	103a341e 	bne	r2,zero,8000fb4 <___svfprintf_internal_r+0x2fc>
 80026e4:	d8c01e17 	ldw	r3,120(sp)
 80026e8:	d8801d17 	ldw	r2,116(sp)
 80026ec:	b811883a 	mov	r8,r23
 80026f0:	003fec06 	br	80026a4 <___svfprintf_internal_r+0x19ec>
 80026f4:	8019883a 	mov	r12,r16
 80026f8:	dc000717 	ldw	r16,28(sp)
 80026fc:	10800044 	addi	r2,r2,1
 8002700:	1c47883a 	add	r3,r3,r17
 8002704:	d8801d15 	stw	r2,116(sp)
 8002708:	43000015 	stw	r12,0(r8)
 800270c:	44400115 	stw	r17,4(r8)
 8002710:	d8c01e15 	stw	r3,120(sp)
 8002714:	10800208 	cmpgei	r2,r2,8
 8002718:	103b1a26 	beq	r2,zero,8001384 <___svfprintf_internal_r+0x6cc>
 800271c:	003d8b06 	br	8001d4c <___svfprintf_internal_r+0x1094>
 8002720:	9017883a 	mov	r11,r18
 8002724:	a019883a 	mov	r12,r20
 8002728:	dc800e17 	ldw	r18,56(sp)
 800272c:	dd000717 	ldw	r20,28(sp)
 8002730:	b021883a 	mov	r16,r22
 8002734:	aa800044 	addi	r10,r21,1
 8002738:	e02d883a 	mov	r22,fp
 800273c:	1039883a 	mov	fp,r2
 8002740:	10800204 	addi	r2,r2,8
 8002744:	1ac7883a 	add	r3,r3,r11
 8002748:	e3000015 	stw	r12,0(fp)
 800274c:	e2c00115 	stw	r11,4(fp)
 8002750:	d8c01e15 	stw	r3,120(sp)
 8002754:	da801d15 	stw	r10,116(sp)
 8002758:	51000208 	cmpgei	r4,r10,8
 800275c:	203f4a1e 	bne	r4,zero,8002488 <___svfprintf_internal_r+0x17d0>
 8002760:	52800044 	addi	r10,r10,1
 8002764:	12000204 	addi	r8,r2,8
 8002768:	1039883a 	mov	fp,r2
 800276c:	003d6e06 	br	8001d28 <___svfprintf_internal_r+0x1070>
 8002770:	d8801a04 	addi	r2,sp,104
 8002774:	d8800315 	stw	r2,12(sp)
 8002778:	d9400917 	ldw	r5,36(sp)
 800277c:	d8801704 	addi	r2,sp,92
 8002780:	d9000517 	ldw	r4,20(sp)
 8002784:	d8800215 	stw	r2,8(sp)
 8002788:	d8801604 	addi	r2,sp,88
 800278c:	dac00015 	stw	r11,0(sp)
 8002790:	d8800115 	stw	r2,4(sp)
 8002794:	01c000c4 	movi	r7,3
 8002798:	a00d883a 	mov	r6,r20
 800279c:	da001215 	stw	r8,72(sp)
 80027a0:	db001015 	stw	r12,64(sp)
 80027a4:	dac00815 	stw	r11,32(sp)
 80027a8:	800302c0 	call	800302c <_dtoa_r>
 80027ac:	dac00817 	ldw	r11,32(sp)
 80027b0:	1023883a 	mov	r17,r2
 80027b4:	db001017 	ldw	r12,64(sp)
 80027b8:	12eb883a 	add	r21,r2,r11
 80027bc:	88800007 	ldb	r2,0(r17)
 80027c0:	da001217 	ldw	r8,72(sp)
 80027c4:	10800c20 	cmpeqi	r2,r2,48
 80027c8:	10013e1e 	bne	r2,zero,8002cc4 <___svfprintf_internal_r+0x200c>
 80027cc:	d8801617 	ldw	r2,88(sp)
 80027d0:	a8ab883a 	add	r21,r21,r2
 80027d4:	d9000917 	ldw	r4,36(sp)
 80027d8:	000d883a 	mov	r6,zero
 80027dc:	000f883a 	mov	r7,zero
 80027e0:	a00b883a 	mov	r5,r20
 80027e4:	da001215 	stw	r8,72(sp)
 80027e8:	dac01015 	stw	r11,64(sp)
 80027ec:	db000815 	stw	r12,32(sp)
 80027f0:	800a3080 	call	800a308 <__eqdf2>
 80027f4:	db000817 	ldw	r12,32(sp)
 80027f8:	dac01017 	ldw	r11,64(sp)
 80027fc:	da001217 	ldw	r8,72(sp)
 8002800:	10009b26 	beq	r2,zero,8002a70 <___svfprintf_internal_r+0x1db8>
 8002804:	d8801a17 	ldw	r2,104(sp)
 8002808:	01000c04 	movi	r4,48
 800280c:	1540052e 	bgeu	r2,r21,8002824 <___svfprintf_internal_r+0x1b6c>
 8002810:	10c00044 	addi	r3,r2,1
 8002814:	d8c01a15 	stw	r3,104(sp)
 8002818:	11000005 	stb	r4,0(r2)
 800281c:	d8801a17 	ldw	r2,104(sp)
 8002820:	157ffb36 	bltu	r2,r21,8002810 <___svfprintf_internal_r+0x1b58>
 8002824:	1445c83a 	sub	r2,r2,r17
 8002828:	d8c00717 	ldw	r3,28(sp)
 800282c:	d8800815 	stw	r2,32(sp)
 8002830:	d8801617 	ldw	r2,88(sp)
 8002834:	18c011d8 	cmpnei	r3,r3,71
 8002838:	d8800715 	stw	r2,28(sp)
 800283c:	183e9b26 	beq	r3,zero,80022ac <___svfprintf_internal_r+0x15f4>
 8002840:	d8800f17 	ldw	r2,60(sp)
 8002844:	10000d26 	beq	r2,zero,800287c <___svfprintf_internal_r+0x1bc4>
 8002848:	d8c00717 	ldw	r3,28(sp)
 800284c:	6080004c 	andi	r2,r12,1
 8002850:	12c4b03a 	or	r2,r2,r11
 8002854:	00c0ba0e 	bge	zero,r3,8002b40 <___svfprintf_internal_r+0x1e88>
 8002858:	1001381e 	bne	r2,zero,8002d3c <___svfprintf_internal_r+0x2084>
 800285c:	dd400717 	ldw	r21,28(sp)
 8002860:	a829883a 	mov	r20,r21
 8002864:	003e9f06 	br	80022e4 <___svfprintf_internal_r+0x162c>
 8002868:	d8800615 	stw	r2,24(sp)
 800286c:	002b883a 	mov	r21,zero
 8002870:	00800044 	movi	r2,1
 8002874:	003b3b06 	br	8001564 <___svfprintf_internal_r+0x8ac>
 8002878:	e73fff84 	addi	fp,fp,-2
 800287c:	d8800717 	ldw	r2,28(sp)
 8002880:	df001845 	stb	fp,97(sp)
 8002884:	157fffc4 	addi	r21,r2,-1
 8002888:	dd401615 	stw	r21,88(sp)
 800288c:	a8009116 	blt	r21,zero,8002ad4 <___svfprintf_internal_r+0x1e1c>
 8002890:	00800ac4 	movi	r2,43
 8002894:	d8801885 	stb	r2,98(sp)
 8002898:	a8800290 	cmplti	r2,r21,10
 800289c:	1001191e 	bne	r2,zero,8002d04 <___svfprintf_internal_r+0x204c>
 80028a0:	dc000f15 	stw	r16,60(sp)
 80028a4:	dd001bc4 	addi	r20,sp,111
 80028a8:	a821883a 	mov	r16,r21
 80028ac:	db000715 	stw	r12,28(sp)
 80028b0:	982b883a 	mov	r21,r19
 80028b4:	4027883a 	mov	r19,r8
 80028b8:	00000206 	br	80028c4 <___svfprintf_internal_r+0x1c0c>
 80028bc:	2029883a 	mov	r20,r4
 80028c0:	1021883a 	mov	r16,r2
 80028c4:	8009883a 	mov	r4,r16
 80028c8:	01400284 	movi	r5,10
 80028cc:	80009940 	call	8000994 <__modsi3>
 80028d0:	10800c04 	addi	r2,r2,48
 80028d4:	8009883a 	mov	r4,r16
 80028d8:	a0bfffc5 	stb	r2,-1(r20)
 80028dc:	01400284 	movi	r5,10
 80028e0:	80009140 	call	8000914 <__divsi3>
 80028e4:	80c01908 	cmpgei	r3,r16,100
 80028e8:	a13fffc4 	addi	r4,r20,-1
 80028ec:	183ff31e 	bne	r3,zero,80028bc <___svfprintf_internal_r+0x1c04>
 80028f0:	10800c04 	addi	r2,r2,48
 80028f4:	20bfffc5 	stb	r2,-1(r4)
 80028f8:	a0ffff84 	addi	r3,r20,-2
 80028fc:	d9001bc4 	addi	r4,sp,111
 8002900:	9811883a 	mov	r8,r19
 8002904:	db000717 	ldw	r12,28(sp)
 8002908:	dc000f17 	ldw	r16,60(sp)
 800290c:	a827883a 	mov	r19,r21
 8002910:	1901242e 	bgeu	r3,r4,8002da4 <___svfprintf_internal_r+0x20ec>
 8002914:	d90018c4 	addi	r4,sp,99
 8002918:	00000106 	br	8002920 <___svfprintf_internal_r+0x1c68>
 800291c:	18800003 	ldbu	r2,0(r3)
 8002920:	21000044 	addi	r4,r4,1
 8002924:	20bfffc5 	stb	r2,-1(r4)
 8002928:	18c00044 	addi	r3,r3,1
 800292c:	d8801bc4 	addi	r2,sp,111
 8002930:	18bffa1e 	bne	r3,r2,800291c <___svfprintf_internal_r+0x1c64>
 8002934:	d8801c44 	addi	r2,sp,113
 8002938:	d8c018c4 	addi	r3,sp,99
 800293c:	1505c83a 	sub	r2,r2,r20
 8002940:	1885883a 	add	r2,r3,r2
 8002944:	d8c01844 	addi	r3,sp,97
 8002948:	10c5c83a 	sub	r2,r2,r3
 800294c:	d8801115 	stw	r2,68(sp)
 8002950:	d8c00817 	ldw	r3,32(sp)
 8002954:	d9001117 	ldw	r4,68(sp)
 8002958:	18800088 	cmpgei	r2,r3,2
 800295c:	192b883a 	add	r21,r3,r4
 8002960:	1000ef26 	beq	r2,zero,8002d20 <___svfprintf_internal_r+0x2068>
 8002964:	d8800b17 	ldw	r2,44(sp)
 8002968:	a8ab883a 	add	r21,r21,r2
 800296c:	a829883a 	mov	r20,r21
 8002970:	a800010e 	bge	r21,zero,8002978 <___svfprintf_internal_r+0x1cc0>
 8002974:	0029883a 	mov	r20,zero
 8002978:	d8000715 	stw	zero,28(sp)
 800297c:	003e5906 	br	80022e4 <___svfprintf_internal_r+0x162c>
 8002980:	04420074 	movhi	r17,2049
 8002984:	8c770804 	addi	r17,r17,-9184
 8002988:	003b4406 	br	800169c <___svfprintf_internal_r+0x9e4>
 800298c:	d8800615 	stw	r2,24(sp)
 8002990:	002b883a 	mov	r21,zero
 8002994:	0005883a 	mov	r2,zero
 8002998:	003af206 	br	8001564 <___svfprintf_internal_r+0x8ac>
 800299c:	b021883a 	mov	r16,r22
 80029a0:	9019883a 	mov	r12,r18
 80029a4:	e02d883a 	mov	r22,fp
 80029a8:	dc800e17 	ldw	r18,56(sp)
 80029ac:	8839883a 	mov	fp,r17
 80029b0:	dc400f17 	ldw	r17,60(sp)
 80029b4:	10800044 	addi	r2,r2,1
 80029b8:	1f07883a 	add	r3,r3,fp
 80029bc:	d8801d15 	stw	r2,116(sp)
 80029c0:	43000015 	stw	r12,0(r8)
 80029c4:	47000115 	stw	fp,4(r8)
 80029c8:	d8c01e15 	stw	r3,120(sp)
 80029cc:	10800208 	cmpgei	r2,r2,8
 80029d0:	1000381e 	bne	r2,zero,8002ab4 <___svfprintf_internal_r+0x1dfc>
 80029d4:	42000204 	addi	r8,r8,8
 80029d8:	003d5f06 	br	8001f58 <___svfprintf_internal_r+0x12a0>
 80029dc:	8019883a 	mov	r12,r16
 80029e0:	dc000717 	ldw	r16,28(sp)
 80029e4:	10800044 	addi	r2,r2,1
 80029e8:	1f07883a 	add	r3,r3,fp
 80029ec:	d8801d15 	stw	r2,116(sp)
 80029f0:	43000015 	stw	r12,0(r8)
 80029f4:	47000115 	stw	fp,4(r8)
 80029f8:	d8c01e15 	stw	r3,120(sp)
 80029fc:	10800208 	cmpgei	r2,r2,8
 8002a00:	103a6026 	beq	r2,zero,8001384 <___svfprintf_internal_r+0x6cc>
 8002a04:	003cd106 	br	8001d4c <___svfprintf_internal_r+0x1094>
 8002a08:	00800b44 	movi	r2,45
 8002a0c:	d8801545 	stb	r2,85(sp)
 8002a10:	03400b44 	movi	r13,45
 8002a14:	003b1d06 	br	800168c <___svfprintf_internal_r+0x9d4>
 8002a18:	d9000517 	ldw	r4,20(sp)
 8002a1c:	d9801c04 	addi	r6,sp,112
 8002a20:	980b883a 	mov	r5,r19
 8002a24:	80060fc0 	call	80060fc <__ssprint_r>
 8002a28:	1039621e 	bne	r2,zero,8000fb4 <___svfprintf_internal_r+0x2fc>
 8002a2c:	d9001617 	ldw	r4,88(sp)
 8002a30:	d8c01e17 	ldw	r3,120(sp)
 8002a34:	b811883a 	mov	r8,r23
 8002a38:	003eab06 	br	80024e8 <___svfprintf_internal_r+0x1830>
 8002a3c:	d9000517 	ldw	r4,20(sp)
 8002a40:	d9801c04 	addi	r6,sp,112
 8002a44:	980b883a 	mov	r5,r19
 8002a48:	80060fc0 	call	80060fc <__ssprint_r>
 8002a4c:	1039591e 	bne	r2,zero,8000fb4 <___svfprintf_internal_r+0x2fc>
 8002a50:	d9001617 	ldw	r4,88(sp)
 8002a54:	d8c01e17 	ldw	r3,120(sp)
 8002a58:	b811883a 	mov	r8,r23
 8002a5c:	003d4d06 	br	8001f94 <___svfprintf_internal_r+0x12dc>
 8002a60:	1520003c 	xorhi	r20,r2,32768
 8002a64:	00800b44 	movi	r2,45
 8002a68:	d8800e05 	stb	r2,56(sp)
 8002a6c:	003de706 	br	800220c <___svfprintf_internal_r+0x1554>
 8002a70:	a805883a 	mov	r2,r21
 8002a74:	003f6b06 	br	8002824 <___svfprintf_internal_r+0x1b6c>
 8002a78:	05400184 	movi	r21,6
 8002a7c:	003eea06 	br	8002628 <___svfprintf_internal_r+0x1970>
 8002a80:	d9401545 	stb	r5,85(sp)
 8002a84:	00396b06 	br	8001034 <___svfprintf_internal_r+0x37c>
 8002a88:	d9000517 	ldw	r4,20(sp)
 8002a8c:	d9801c04 	addi	r6,sp,112
 8002a90:	980b883a 	mov	r5,r19
 8002a94:	80060fc0 	call	80060fc <__ssprint_r>
 8002a98:	1039461e 	bne	r2,zero,8000fb4 <___svfprintf_internal_r+0x2fc>
 8002a9c:	d9001617 	ldw	r4,88(sp)
 8002aa0:	d8c01e17 	ldw	r3,120(sp)
 8002aa4:	d8801d17 	ldw	r2,116(sp)
 8002aa8:	b811883a 	mov	r8,r23
 8002aac:	203e9f0e 	bge	r4,zero,800252c <___svfprintf_internal_r+0x1874>
 8002ab0:	003eef06 	br	8002670 <___svfprintf_internal_r+0x19b8>
 8002ab4:	d9000517 	ldw	r4,20(sp)
 8002ab8:	d9801c04 	addi	r6,sp,112
 8002abc:	980b883a 	mov	r5,r19
 8002ac0:	80060fc0 	call	80060fc <__ssprint_r>
 8002ac4:	10393b1e 	bne	r2,zero,8000fb4 <___svfprintf_internal_r+0x2fc>
 8002ac8:	d8c01e17 	ldw	r3,120(sp)
 8002acc:	b811883a 	mov	r8,r23
 8002ad0:	003d2106 	br	8001f58 <___svfprintf_internal_r+0x12a0>
 8002ad4:	00c00044 	movi	r3,1
 8002ad8:	18abc83a 	sub	r21,r3,r2
 8002adc:	00800b44 	movi	r2,45
 8002ae0:	d8801885 	stb	r2,98(sp)
 8002ae4:	003f6c06 	br	8002898 <___svfprintf_internal_r+0x1be0>
 8002ae8:	d8801a04 	addi	r2,sp,104
 8002aec:	d8800315 	stw	r2,12(sp)
 8002af0:	d9400917 	ldw	r5,36(sp)
 8002af4:	d8801704 	addi	r2,sp,92
 8002af8:	d9000517 	ldw	r4,20(sp)
 8002afc:	5d400044 	addi	r21,r11,1
 8002b00:	d8800215 	stw	r2,8(sp)
 8002b04:	d8801604 	addi	r2,sp,88
 8002b08:	d8800115 	stw	r2,4(sp)
 8002b0c:	dd400015 	stw	r21,0(sp)
 8002b10:	01c00084 	movi	r7,2
 8002b14:	a00d883a 	mov	r6,r20
 8002b18:	dac00815 	stw	r11,32(sp)
 8002b1c:	800302c0 	call	800302c <_dtoa_r>
 8002b20:	dac00817 	ldw	r11,32(sp)
 8002b24:	db001017 	ldw	r12,64(sp)
 8002b28:	da001217 	ldw	r8,72(sp)
 8002b2c:	1023883a 	mov	r17,r2
 8002b30:	e08011d8 	cmpnei	r2,fp,71
 8002b34:	103dd326 	beq	r2,zero,8002284 <___svfprintf_internal_r+0x15cc>
 8002b38:	8d6b883a 	add	r21,r17,r21
 8002b3c:	003f2506 	br	80027d4 <___svfprintf_internal_r+0x1b1c>
 8002b40:	10008a1e 	bne	r2,zero,8002d6c <___svfprintf_internal_r+0x20b4>
 8002b44:	05000044 	movi	r20,1
 8002b48:	05400044 	movi	r21,1
 8002b4c:	003de506 	br	80022e4 <___svfprintf_internal_r+0x162c>
 8002b50:	db401543 	ldbu	r13,85(sp)
 8002b54:	0017883a 	mov	r11,zero
 8002b58:	003b5006 	br	800189c <___svfprintf_internal_r+0xbe4>
 8002b5c:	d9000517 	ldw	r4,20(sp)
 8002b60:	d9801c04 	addi	r6,sp,112
 8002b64:	980b883a 	mov	r5,r19
 8002b68:	80060fc0 	call	80060fc <__ssprint_r>
 8002b6c:	1039111e 	bne	r2,zero,8000fb4 <___svfprintf_internal_r+0x2fc>
 8002b70:	d8c01e17 	ldw	r3,120(sp)
 8002b74:	b811883a 	mov	r8,r23
 8002b78:	e03cf40e 	bge	fp,zero,8001f4c <___svfprintf_internal_r+0x1294>
 8002b7c:	003dfc06 	br	8002370 <___svfprintf_internal_r+0x16b8>
 8002b80:	02c00184 	movi	r11,6
 8002b84:	003d9c06 	br	80021f8 <___svfprintf_internal_r+0x1540>
 8002b88:	d9000517 	ldw	r4,20(sp)
 8002b8c:	d9801c04 	addi	r6,sp,112
 8002b90:	980b883a 	mov	r5,r19
 8002b94:	80060fc0 	call	80060fc <__ssprint_r>
 8002b98:	1039061e 	bne	r2,zero,8000fb4 <___svfprintf_internal_r+0x2fc>
 8002b9c:	d8801617 	ldw	r2,88(sp)
 8002ba0:	d9000817 	ldw	r4,32(sp)
 8002ba4:	d8c01e17 	ldw	r3,120(sp)
 8002ba8:	b811883a 	mov	r8,r23
 8002bac:	2085c83a 	sub	r2,r4,r2
 8002bb0:	003d0a06 	br	8001fdc <___svfprintf_internal_r+0x1324>
 8002bb4:	5829883a 	mov	r20,r11
 8002bb8:	dc800615 	stw	r18,24(sp)
 8002bbc:	582b883a 	mov	r21,r11
 8002bc0:	0039bb06 	br	80012b0 <___svfprintf_internal_r+0x5f8>
 8002bc4:	d8800817 	ldw	r2,32(sp)
 8002bc8:	d8c00b17 	ldw	r3,44(sp)
 8002bcc:	10eb883a 	add	r21,r2,r3
 8002bd0:	d8800717 	ldw	r2,28(sp)
 8002bd4:	00800316 	blt	zero,r2,8002be4 <___svfprintf_internal_r+0x1f2c>
 8002bd8:	d8800717 	ldw	r2,28(sp)
 8002bdc:	a8b9c83a 	sub	fp,r21,r2
 8002be0:	e5400044 	addi	r21,fp,1
 8002be4:	a829883a 	mov	r20,r21
 8002be8:	a8003416 	blt	r21,zero,8002cbc <___svfprintf_internal_r+0x2004>
 8002bec:	070019c4 	movi	fp,103
 8002bf0:	003dbc06 	br	80022e4 <___svfprintf_internal_r+0x162c>
 8002bf4:	d9401545 	stb	r5,85(sp)
 8002bf8:	003ae706 	br	8001798 <___svfprintf_internal_r+0xae0>
 8002bfc:	d9401545 	stb	r5,85(sp)
 8002c00:	00395f06 	br	8001180 <___svfprintf_internal_r+0x4c8>
 8002c04:	d9401545 	stb	r5,85(sp)
 8002c08:	003aad06 	br	80016c0 <___svfprintf_internal_r+0xa08>
 8002c0c:	d9401545 	stb	r5,85(sp)
 8002c10:	00394906 	br	8001138 <___svfprintf_internal_r+0x480>
 8002c14:	d9401545 	stb	r5,85(sp)
 8002c18:	003a6406 	br	80015ac <___svfprintf_internal_r+0x8f4>
 8002c1c:	d9401545 	stb	r5,85(sp)
 8002c20:	003a1806 	br	8001484 <___svfprintf_internal_r+0x7cc>
 8002c24:	d9401545 	stb	r5,85(sp)
 8002c28:	00397d06 	br	8001220 <___svfprintf_internal_r+0x568>
 8002c2c:	d9401545 	stb	r5,85(sp)
 8002c30:	003a6b06 	br	80015e0 <___svfprintf_internal_r+0x928>
 8002c34:	d9401545 	stb	r5,85(sp)
 8002c38:	003a2206 	br	80014c4 <___svfprintf_internal_r+0x80c>
 8002c3c:	d9401545 	stb	r5,85(sp)
 8002c40:	003ae706 	br	80017e0 <___svfprintf_internal_r+0xb28>
 8002c44:	8819883a 	mov	r12,r17
 8002c48:	dc400717 	ldw	r17,28(sp)
 8002c4c:	a809883a 	mov	r4,r21
 8002c50:	802b883a 	mov	r21,r16
 8002c54:	2021883a 	mov	r16,r4
 8002c58:	10800044 	addi	r2,r2,1
 8002c5c:	1d47883a 	add	r3,r3,r21
 8002c60:	43000015 	stw	r12,0(r8)
 8002c64:	45400115 	stw	r21,4(r8)
 8002c68:	d8c01e15 	stw	r3,120(sp)
 8002c6c:	d8801d15 	stw	r2,116(sp)
 8002c70:	11000208 	cmpgei	r4,r2,8
 8002c74:	203e2c26 	beq	r4,zero,8002528 <___svfprintf_internal_r+0x1870>
 8002c78:	d9000517 	ldw	r4,20(sp)
 8002c7c:	d9801c04 	addi	r6,sp,112
 8002c80:	980b883a 	mov	r5,r19
 8002c84:	80060fc0 	call	80060fc <__ssprint_r>
 8002c88:	1038ca1e 	bne	r2,zero,8000fb4 <___svfprintf_internal_r+0x2fc>
 8002c8c:	d8c01e17 	ldw	r3,120(sp)
 8002c90:	d8801d17 	ldw	r2,116(sp)
 8002c94:	b811883a 	mov	r8,r23
 8002c98:	003e2406 	br	800252c <___svfprintf_internal_r+0x1874>
 8002c9c:	00bfffc4 	movi	r2,-1
 8002ca0:	d8800415 	stw	r2,16(sp)
 8002ca4:	0038c606 	br	8000fc0 <___svfprintf_internal_r+0x308>
 8002ca8:	d8800717 	ldw	r2,28(sp)
 8002cac:	d8c00b17 	ldw	r3,44(sp)
 8002cb0:	10eb883a 	add	r21,r2,r3
 8002cb4:	a829883a 	mov	r20,r21
 8002cb8:	a83fcc0e 	bge	r21,zero,8002bec <___svfprintf_internal_r+0x1f34>
 8002cbc:	0029883a 	mov	r20,zero
 8002cc0:	003fca06 	br	8002bec <___svfprintf_internal_r+0x1f34>
 8002cc4:	d9000917 	ldw	r4,36(sp)
 8002cc8:	000d883a 	mov	r6,zero
 8002ccc:	000f883a 	mov	r7,zero
 8002cd0:	a00b883a 	mov	r5,r20
 8002cd4:	da001215 	stw	r8,72(sp)
 8002cd8:	dac01015 	stw	r11,64(sp)
 8002cdc:	db000815 	stw	r12,32(sp)
 8002ce0:	800a3080 	call	800a308 <__eqdf2>
 8002ce4:	db000817 	ldw	r12,32(sp)
 8002ce8:	dac01017 	ldw	r11,64(sp)
 8002cec:	da001217 	ldw	r8,72(sp)
 8002cf0:	103eb626 	beq	r2,zero,80027cc <___svfprintf_internal_r+0x1b14>
 8002cf4:	00800044 	movi	r2,1
 8002cf8:	12c5c83a 	sub	r2,r2,r11
 8002cfc:	d8801615 	stw	r2,88(sp)
 8002d00:	003eb306 	br	80027d0 <___svfprintf_internal_r+0x1b18>
 8002d04:	00800c04 	movi	r2,48
 8002d08:	a8c00c04 	addi	r3,r21,48
 8002d0c:	d88018c5 	stb	r2,99(sp)
 8002d10:	00800104 	movi	r2,4
 8002d14:	d8c01905 	stb	r3,100(sp)
 8002d18:	d8801115 	stw	r2,68(sp)
 8002d1c:	003f0c06 	br	8002950 <___svfprintf_internal_r+0x1c98>
 8002d20:	6080004c 	andi	r2,r12,1
 8002d24:	d8800715 	stw	r2,28(sp)
 8002d28:	103f0e1e 	bne	r2,zero,8002964 <___svfprintf_internal_r+0x1cac>
 8002d2c:	a829883a 	mov	r20,r21
 8002d30:	a83d6c0e 	bge	r21,zero,80022e4 <___svfprintf_internal_r+0x162c>
 8002d34:	0029883a 	mov	r20,zero
 8002d38:	003d6a06 	br	80022e4 <___svfprintf_internal_r+0x162c>
 8002d3c:	d8800b17 	ldw	r2,44(sp)
 8002d40:	1885883a 	add	r2,r3,r2
 8002d44:	12eb883a 	add	r21,r2,r11
 8002d48:	003ff806 	br	8002d2c <___svfprintf_internal_r+0x2074>
 8002d4c:	d8800a17 	ldw	r2,40(sp)
 8002d50:	10001016 	blt	r2,zero,8002d94 <___svfprintf_internal_r+0x20dc>
 8002d54:	db401543 	ldbu	r13,85(sp)
 8002d58:	e0801210 	cmplti	r2,fp,72
 8002d5c:	10000a1e 	bne	r2,zero,8002d88 <___svfprintf_internal_r+0x20d0>
 8002d60:	04420074 	movhi	r17,2049
 8002d64:	8c770b04 	addi	r17,r17,-9172
 8002d68:	003a4c06 	br	800169c <___svfprintf_internal_r+0x9e4>
 8002d6c:	d8800b17 	ldw	r2,44(sp)
 8002d70:	10800044 	addi	r2,r2,1
 8002d74:	12eb883a 	add	r21,r2,r11
 8002d78:	003fec06 	br	8002d2c <___svfprintf_internal_r+0x2074>
 8002d7c:	4005883a 	mov	r2,r8
 8002d80:	63371884 	addi	r12,r12,-9118
 8002d84:	003e6f06 	br	8002744 <___svfprintf_internal_r+0x1a8c>
 8002d88:	04420074 	movhi	r17,2049
 8002d8c:	8c770a04 	addi	r17,r17,-9176
 8002d90:	003a4206 	br	800169c <___svfprintf_internal_r+0x9e4>
 8002d94:	00800b44 	movi	r2,45
 8002d98:	d8801545 	stb	r2,85(sp)
 8002d9c:	03400b44 	movi	r13,45
 8002da0:	003fed06 	br	8002d58 <___svfprintf_internal_r+0x20a0>
 8002da4:	00800084 	movi	r2,2
 8002da8:	d8801115 	stw	r2,68(sp)
 8002dac:	003ee806 	br	8002950 <___svfprintf_internal_r+0x1c98>
 8002db0:	d8c00617 	ldw	r3,24(sp)
 8002db4:	1ac00017 	ldw	r11,0(r3)
 8002db8:	18c00104 	addi	r3,r3,4
 8002dbc:	5800010e 	bge	r11,zero,8002dc4 <___svfprintf_internal_r+0x210c>
 8002dc0:	02ffffc4 	movi	r11,-1
 8002dc4:	b7000043 	ldbu	fp,1(r22)
 8002dc8:	d8c00615 	stw	r3,24(sp)
 8002dcc:	102d883a 	mov	r22,r2
 8002dd0:	e2803fcc 	andi	r10,fp,255
 8002dd4:	5280201c 	xori	r10,r10,128
 8002dd8:	52bfe004 	addi	r10,r10,-128
 8002ddc:	00380206 	br	8000de8 <___svfprintf_internal_r+0x130>
 8002de0:	d8c00517 	ldw	r3,20(sp)
 8002de4:	00800304 	movi	r2,12
 8002de8:	18800015 	stw	r2,0(r3)
 8002dec:	00bfffc4 	movi	r2,-1
 8002df0:	d8800415 	stw	r2,16(sp)
 8002df4:	00387206 	br	8000fc0 <___svfprintf_internal_r+0x308>

08002df8 <quorem>:
 8002df8:	defff204 	addi	sp,sp,-56
 8002dfc:	dc000415 	stw	r16,16(sp)
 8002e00:	20800417 	ldw	r2,16(r4)
 8002e04:	2c000417 	ldw	r16,16(r5)
 8002e08:	dfc00d15 	stw	ra,52(sp)
 8002e0c:	df000c15 	stw	fp,48(sp)
 8002e10:	ddc00b15 	stw	r23,44(sp)
 8002e14:	dd800a15 	stw	r22,40(sp)
 8002e18:	dd400915 	stw	r21,36(sp)
 8002e1c:	dd000815 	stw	r20,32(sp)
 8002e20:	dcc00715 	stw	r19,28(sp)
 8002e24:	dc800615 	stw	r18,24(sp)
 8002e28:	dc400515 	stw	r17,20(sp)
 8002e2c:	14007d16 	blt	r2,r16,8003024 <quorem+0x22c>
 8002e30:	843fffc4 	addi	r16,r16,-1
 8002e34:	802c90ba 	slli	r22,r16,2
 8002e38:	2f000504 	addi	fp,r5,20
 8002e3c:	24c00504 	addi	r19,r4,20
 8002e40:	e5a5883a 	add	r18,fp,r22
 8002e44:	9d85883a 	add	r2,r19,r22
 8002e48:	95c00017 	ldw	r23,0(r18)
 8002e4c:	15000017 	ldw	r20,0(r2)
 8002e50:	d9400215 	stw	r5,8(sp)
 8002e54:	bdc00044 	addi	r23,r23,1
 8002e58:	d9000115 	stw	r4,4(sp)
 8002e5c:	b80b883a 	mov	r5,r23
 8002e60:	a009883a 	mov	r4,r20
 8002e64:	dcc00015 	stw	r19,0(sp)
 8002e68:	d8800315 	stw	r2,12(sp)
 8002e6c:	8000a0c0 	call	8000a0c <__udivsi3>
 8002e70:	1023883a 	mov	r17,r2
 8002e74:	a5c03236 	bltu	r20,r23,8002f40 <quorem+0x148>
 8002e78:	e02d883a 	mov	r22,fp
 8002e7c:	9829883a 	mov	r20,r19
 8002e80:	002b883a 	mov	r21,zero
 8002e84:	002f883a 	mov	r23,zero
 8002e88:	b5800104 	addi	r22,r22,4
 8002e8c:	b4ffff17 	ldw	r19,-4(r22)
 8002e90:	880b883a 	mov	r5,r17
 8002e94:	a5000104 	addi	r20,r20,4
 8002e98:	993fffcc 	andi	r4,r19,65535
 8002e9c:	8000acc0 	call	8000acc <__mulsi3>
 8002ea0:	9808d43a 	srli	r4,r19,16
 8002ea4:	880b883a 	mov	r5,r17
 8002ea8:	156b883a 	add	r21,r2,r21
 8002eac:	8000acc0 	call	8000acc <__mulsi3>
 8002eb0:	a0ffff17 	ldw	r3,-4(r20)
 8002eb4:	a80ad43a 	srli	r5,r21,16
 8002eb8:	a93fffcc 	andi	r4,r21,65535
 8002ebc:	b909c83a 	sub	r4,r23,r4
 8002ec0:	19bfffcc 	andi	r6,r3,65535
 8002ec4:	2189883a 	add	r4,r4,r6
 8002ec8:	1806d43a 	srli	r3,r3,16
 8002ecc:	116b883a 	add	r21,r2,r5
 8002ed0:	2005d43a 	srai	r2,r4,16
 8002ed4:	a97fffcc 	andi	r5,r21,65535
 8002ed8:	1947c83a 	sub	r3,r3,r5
 8002edc:	1887883a 	add	r3,r3,r2
 8002ee0:	1804943a 	slli	r2,r3,16
 8002ee4:	213fffcc 	andi	r4,r4,65535
 8002ee8:	a82ad43a 	srli	r21,r21,16
 8002eec:	1108b03a 	or	r4,r2,r4
 8002ef0:	a13fff15 	stw	r4,-4(r20)
 8002ef4:	182fd43a 	srai	r23,r3,16
 8002ef8:	95bfe32e 	bgeu	r18,r22,8002e88 <quorem+0x90>
 8002efc:	d8c00317 	ldw	r3,12(sp)
 8002f00:	18800017 	ldw	r2,0(r3)
 8002f04:	10000e1e 	bne	r2,zero,8002f40 <quorem+0x148>
 8002f08:	d9000017 	ldw	r4,0(sp)
 8002f0c:	18bfff04 	addi	r2,r3,-4
 8002f10:	2080092e 	bgeu	r4,r2,8002f38 <quorem+0x140>
 8002f14:	18ffff17 	ldw	r3,-4(r3)
 8002f18:	18000326 	beq	r3,zero,8002f28 <quorem+0x130>
 8002f1c:	00000606 	br	8002f38 <quorem+0x140>
 8002f20:	10c00017 	ldw	r3,0(r2)
 8002f24:	1800041e 	bne	r3,zero,8002f38 <quorem+0x140>
 8002f28:	d8c00017 	ldw	r3,0(sp)
 8002f2c:	10bfff04 	addi	r2,r2,-4
 8002f30:	843fffc4 	addi	r16,r16,-1
 8002f34:	18bffa36 	bltu	r3,r2,8002f20 <quorem+0x128>
 8002f38:	d8800117 	ldw	r2,4(sp)
 8002f3c:	14000415 	stw	r16,16(r2)
 8002f40:	d9400217 	ldw	r5,8(sp)
 8002f44:	d9000117 	ldw	r4,4(sp)
 8002f48:	80059f00 	call	80059f0 <__mcmp>
 8002f4c:	10002816 	blt	r2,zero,8002ff0 <quorem+0x1f8>
 8002f50:	d9800017 	ldw	r6,0(sp)
 8002f54:	8c400044 	addi	r17,r17,1
 8002f58:	0007883a 	mov	r3,zero
 8002f5c:	e7000104 	addi	fp,fp,4
 8002f60:	e13fff17 	ldw	r4,-4(fp)
 8002f64:	31400017 	ldw	r5,0(r6)
 8002f68:	31800104 	addi	r6,r6,4
 8002f6c:	20bfffcc 	andi	r2,r4,65535
 8002f70:	1887c83a 	sub	r3,r3,r2
 8002f74:	28bfffcc 	andi	r2,r5,65535
 8002f78:	1885883a 	add	r2,r3,r2
 8002f7c:	2008d43a 	srli	r4,r4,16
 8002f80:	2806d43a 	srli	r3,r5,16
 8002f84:	100fd43a 	srai	r7,r2,16
 8002f88:	117fffcc 	andi	r5,r2,65535
 8002f8c:	1907c83a 	sub	r3,r3,r4
 8002f90:	19c7883a 	add	r3,r3,r7
 8002f94:	1804943a 	slli	r2,r3,16
 8002f98:	1807d43a 	srai	r3,r3,16
 8002f9c:	1144b03a 	or	r2,r2,r5
 8002fa0:	30bfff15 	stw	r2,-4(r6)
 8002fa4:	973fed2e 	bgeu	r18,fp,8002f5c <quorem+0x164>
 8002fa8:	800690ba 	slli	r3,r16,2
 8002fac:	d9000017 	ldw	r4,0(sp)
 8002fb0:	20c7883a 	add	r3,r4,r3
 8002fb4:	18800017 	ldw	r2,0(r3)
 8002fb8:	10000d1e 	bne	r2,zero,8002ff0 <quorem+0x1f8>
 8002fbc:	18bfff04 	addi	r2,r3,-4
 8002fc0:	2080092e 	bgeu	r4,r2,8002fe8 <quorem+0x1f0>
 8002fc4:	18ffff17 	ldw	r3,-4(r3)
 8002fc8:	18000326 	beq	r3,zero,8002fd8 <quorem+0x1e0>
 8002fcc:	00000606 	br	8002fe8 <quorem+0x1f0>
 8002fd0:	10c00017 	ldw	r3,0(r2)
 8002fd4:	1800041e 	bne	r3,zero,8002fe8 <quorem+0x1f0>
 8002fd8:	d8c00017 	ldw	r3,0(sp)
 8002fdc:	10bfff04 	addi	r2,r2,-4
 8002fe0:	843fffc4 	addi	r16,r16,-1
 8002fe4:	18bffa36 	bltu	r3,r2,8002fd0 <quorem+0x1d8>
 8002fe8:	d8800117 	ldw	r2,4(sp)
 8002fec:	14000415 	stw	r16,16(r2)
 8002ff0:	8805883a 	mov	r2,r17
 8002ff4:	dfc00d17 	ldw	ra,52(sp)
 8002ff8:	df000c17 	ldw	fp,48(sp)
 8002ffc:	ddc00b17 	ldw	r23,44(sp)
 8003000:	dd800a17 	ldw	r22,40(sp)
 8003004:	dd400917 	ldw	r21,36(sp)
 8003008:	dd000817 	ldw	r20,32(sp)
 800300c:	dcc00717 	ldw	r19,28(sp)
 8003010:	dc800617 	ldw	r18,24(sp)
 8003014:	dc400517 	ldw	r17,20(sp)
 8003018:	dc000417 	ldw	r16,16(sp)
 800301c:	dec00e04 	addi	sp,sp,56
 8003020:	f800283a 	ret
 8003024:	0005883a 	mov	r2,zero
 8003028:	003ff206 	br	8002ff4 <quorem+0x1fc>

0800302c <_dtoa_r>:
 800302c:	20801017 	ldw	r2,64(r4)
 8003030:	deffe204 	addi	sp,sp,-120
 8003034:	df001c15 	stw	fp,112(sp)
 8003038:	dcc01715 	stw	r19,92(sp)
 800303c:	dc401515 	stw	r17,84(sp)
 8003040:	dc001415 	stw	r16,80(sp)
 8003044:	dfc01d15 	stw	ra,116(sp)
 8003048:	ddc01b15 	stw	r23,108(sp)
 800304c:	dd801a15 	stw	r22,104(sp)
 8003050:	dd401915 	stw	r21,100(sp)
 8003054:	dd001815 	stw	r20,96(sp)
 8003058:	dc801615 	stw	r18,88(sp)
 800305c:	d9400115 	stw	r5,4(sp)
 8003060:	d9c00215 	stw	r7,8(sp)
 8003064:	2039883a 	mov	fp,r4
 8003068:	3027883a 	mov	r19,r6
 800306c:	dc002017 	ldw	r16,128(sp)
 8003070:	3023883a 	mov	r17,r6
 8003074:	10000826 	beq	r2,zero,8003098 <_dtoa_r+0x6c>
 8003078:	21801117 	ldw	r6,68(r4)
 800307c:	00c00044 	movi	r3,1
 8003080:	100b883a 	mov	r5,r2
 8003084:	1986983a 	sll	r3,r3,r6
 8003088:	11800115 	stw	r6,4(r2)
 800308c:	10c00215 	stw	r3,8(r2)
 8003090:	80051940 	call	8005194 <_Bfree>
 8003094:	e0001015 	stw	zero,64(fp)
 8003098:	98018116 	blt	r19,zero,80036a0 <_dtoa_r+0x674>
 800309c:	80000015 	stw	zero,0(r16)
 80030a0:	989ffc2c 	andhi	r2,r19,32752
 80030a4:	00dffc34 	movhi	r3,32752
 80030a8:	10c18626 	beq	r2,r3,80036c4 <_dtoa_r+0x698>
 80030ac:	d9000117 	ldw	r4,4(sp)
 80030b0:	000d883a 	mov	r6,zero
 80030b4:	000f883a 	mov	r7,zero
 80030b8:	880b883a 	mov	r5,r17
 80030bc:	800a3080 	call	800a308 <__eqdf2>
 80030c0:	1000191e 	bne	r2,zero,8003128 <_dtoa_r+0xfc>
 80030c4:	d8c01f17 	ldw	r3,124(sp)
 80030c8:	00800044 	movi	r2,1
 80030cc:	18800015 	stw	r2,0(r3)
 80030d0:	d8802117 	ldw	r2,132(sp)
 80030d4:	10032426 	beq	r2,zero,8003d68 <_dtoa_r+0xd3c>
 80030d8:	d9002117 	ldw	r4,132(sp)
 80030dc:	00820074 	movhi	r2,2049
 80030e0:	10b71844 	addi	r2,r2,-9119
 80030e4:	00c20074 	movhi	r3,2049
 80030e8:	20800015 	stw	r2,0(r4)
 80030ec:	18b71804 	addi	r2,r3,-9120
 80030f0:	d8800315 	stw	r2,12(sp)
 80030f4:	d8800317 	ldw	r2,12(sp)
 80030f8:	dfc01d17 	ldw	ra,116(sp)
 80030fc:	df001c17 	ldw	fp,112(sp)
 8003100:	ddc01b17 	ldw	r23,108(sp)
 8003104:	dd801a17 	ldw	r22,104(sp)
 8003108:	dd401917 	ldw	r21,100(sp)
 800310c:	dd001817 	ldw	r20,96(sp)
 8003110:	dcc01717 	ldw	r19,92(sp)
 8003114:	dc801617 	ldw	r18,88(sp)
 8003118:	dc401517 	ldw	r17,84(sp)
 800311c:	dc001417 	ldw	r16,80(sp)
 8003120:	dec01e04 	addi	sp,sp,120
 8003124:	f800283a 	ret
 8003128:	dc800117 	ldw	r18,4(sp)
 800312c:	d8801204 	addi	r2,sp,72
 8003130:	9820d53a 	srli	r16,r19,20
 8003134:	d8800015 	stw	r2,0(sp)
 8003138:	d9c01304 	addi	r7,sp,76
 800313c:	900b883a 	mov	r5,r18
 8003140:	880d883a 	mov	r6,r17
 8003144:	e009883a 	mov	r4,fp
 8003148:	8005d640 	call	8005d64 <__d2b>
 800314c:	102b883a 	mov	r21,r2
 8003150:	8001701e 	bne	r16,zero,8003714 <_dtoa_r+0x6e8>
 8003154:	dc801217 	ldw	r18,72(sp)
 8003158:	dc001317 	ldw	r16,76(sp)
 800315c:	9421883a 	add	r16,r18,r16
 8003160:	80810c84 	addi	r2,r16,1074
 8003164:	10c00850 	cmplti	r3,r2,33
 8003168:	18030f1e 	bne	r3,zero,8003da8 <_dtoa_r+0xd7c>
 800316c:	01001004 	movi	r4,64
 8003170:	2085c83a 	sub	r2,r4,r2
 8003174:	98a6983a 	sll	r19,r19,r2
 8003178:	d8800117 	ldw	r2,4(sp)
 800317c:	81010484 	addi	r4,r16,1042
 8003180:	1108d83a 	srl	r4,r2,r4
 8003184:	9908b03a 	or	r4,r19,r4
 8003188:	800b8500 	call	800b850 <__floatunsidf>
 800318c:	1009883a 	mov	r4,r2
 8003190:	017f8434 	movhi	r5,65040
 8003194:	00800044 	movi	r2,1
 8003198:	194b883a 	add	r5,r3,r5
 800319c:	843fffc4 	addi	r16,r16,-1
 80031a0:	d8800a15 	stw	r2,40(sp)
 80031a4:	000d883a 	mov	r6,zero
 80031a8:	01cffe34 	movhi	r7,16376
 80031ac:	800ad480 	call	800ad48 <__subdf3>
 80031b0:	0198dbf4 	movhi	r6,25455
 80031b4:	01cff4f4 	movhi	r7,16339
 80031b8:	3190d844 	addi	r6,r6,17249
 80031bc:	39e1e9c4 	addi	r7,r7,-30809
 80031c0:	1009883a 	mov	r4,r2
 80031c4:	180b883a 	mov	r5,r3
 80031c8:	800a5680 	call	800a568 <__muldf3>
 80031cc:	01a2d874 	movhi	r6,35681
 80031d0:	01cff1f4 	movhi	r7,16327
 80031d4:	31b22cc4 	addi	r6,r6,-14157
 80031d8:	39e28a04 	addi	r7,r7,-30168
 80031dc:	180b883a 	mov	r5,r3
 80031e0:	1009883a 	mov	r4,r2
 80031e4:	80090040 	call	8009004 <__adddf3>
 80031e8:	8009883a 	mov	r4,r16
 80031ec:	1029883a 	mov	r20,r2
 80031f0:	1827883a 	mov	r19,r3
 80031f4:	800b7880 	call	800b788 <__floatsidf>
 80031f8:	019427f4 	movhi	r6,20639
 80031fc:	01cff4f4 	movhi	r7,16339
 8003200:	319e7ec4 	addi	r6,r6,31227
 8003204:	39d104c4 	addi	r7,r7,17427
 8003208:	1009883a 	mov	r4,r2
 800320c:	180b883a 	mov	r5,r3
 8003210:	800a5680 	call	800a568 <__muldf3>
 8003214:	100d883a 	mov	r6,r2
 8003218:	180f883a 	mov	r7,r3
 800321c:	a009883a 	mov	r4,r20
 8003220:	980b883a 	mov	r5,r19
 8003224:	80090040 	call	8009004 <__adddf3>
 8003228:	1009883a 	mov	r4,r2
 800322c:	180b883a 	mov	r5,r3
 8003230:	1029883a 	mov	r20,r2
 8003234:	1827883a 	mov	r19,r3
 8003238:	800b7080 	call	800b708 <__fixdfsi>
 800323c:	000d883a 	mov	r6,zero
 8003240:	000f883a 	mov	r7,zero
 8003244:	a009883a 	mov	r4,r20
 8003248:	980b883a 	mov	r5,r19
 800324c:	102d883a 	mov	r22,r2
 8003250:	800a4780 	call	800a478 <__ledf2>
 8003254:	1002ba16 	blt	r2,zero,8003d40 <_dtoa_r+0xd14>
 8003258:	9421c83a 	sub	r16,r18,r16
 800325c:	b08005e8 	cmpgeui	r2,r22,23
 8003260:	853fffc4 	addi	r20,r16,-1
 8003264:	1002ae1e 	bne	r2,zero,8003d20 <_dtoa_r+0xcf4>
 8003268:	b00690fa 	slli	r3,r22,3
 800326c:	00820074 	movhi	r2,2049
 8003270:	10b73c04 	addi	r2,r2,-8976
 8003274:	10c5883a 	add	r2,r2,r3
 8003278:	11800017 	ldw	r6,0(r2)
 800327c:	11c00117 	ldw	r7,4(r2)
 8003280:	d9000117 	ldw	r4,4(sp)
 8003284:	880b883a 	mov	r5,r17
 8003288:	800a4780 	call	800a478 <__ledf2>
 800328c:	10026f0e 	bge	r2,zero,8003c4c <_dtoa_r+0xc20>
 8003290:	d8000915 	stw	zero,36(sp)
 8003294:	b5bfffc4 	addi	r22,r22,-1
 8003298:	a002a416 	blt	r20,zero,8003d2c <_dtoa_r+0xd00>
 800329c:	d8000515 	stw	zero,20(sp)
 80032a0:	b0026d0e 	bge	r22,zero,8003c58 <_dtoa_r+0xc2c>
 80032a4:	d8800517 	ldw	r2,20(sp)
 80032a8:	d8c00217 	ldw	r3,8(sp)
 80032ac:	dd800415 	stw	r22,16(sp)
 80032b0:	1585c83a 	sub	r2,r2,r22
 80032b4:	d8800515 	stw	r2,20(sp)
 80032b8:	0585c83a 	sub	r2,zero,r22
 80032bc:	d8800815 	stw	r2,32(sp)
 80032c0:	188002a8 	cmpgeui	r2,r3,10
 80032c4:	002d883a 	mov	r22,zero
 80032c8:	1002691e 	bne	r2,zero,8003c70 <_dtoa_r+0xc44>
 80032cc:	18800190 	cmplti	r2,r3,6
 80032d0:	1002ba1e 	bne	r2,zero,8003dbc <_dtoa_r+0xd90>
 80032d4:	18bfff04 	addi	r2,r3,-4
 80032d8:	d8800215 	stw	r2,8(sp)
 80032dc:	0021883a 	mov	r16,zero
 80032e0:	d8c00217 	ldw	r3,8(sp)
 80032e4:	188000e0 	cmpeqi	r2,r3,3
 80032e8:	10039d1e 	bne	r2,zero,8004160 <_dtoa_r+0x1134>
 80032ec:	18800108 	cmpgei	r2,r3,4
 80032f0:	10027a26 	beq	r2,zero,8003cdc <_dtoa_r+0xcb0>
 80032f4:	d8c00217 	ldw	r3,8(sp)
 80032f8:	18800120 	cmpeqi	r2,r3,4
 80032fc:	10026926 	beq	r2,zero,8003ca4 <_dtoa_r+0xc78>
 8003300:	00800044 	movi	r2,1
 8003304:	d8800715 	stw	r2,28(sp)
 8003308:	d8801e17 	ldw	r2,120(sp)
 800330c:	0083670e 	bge	zero,r2,80040ac <_dtoa_r+0x1080>
 8003310:	d8800b15 	stw	r2,44(sp)
 8003314:	d8800615 	stw	r2,24(sp)
 8003318:	100d883a 	mov	r6,r2
 800331c:	e0001115 	stw	zero,68(fp)
 8003320:	30800610 	cmplti	r2,r6,24
 8003324:	dc800617 	ldw	r18,24(sp)
 8003328:	1004eb1e 	bne	r2,zero,80046d8 <_dtoa_r+0x16ac>
 800332c:	00c00044 	movi	r3,1
 8003330:	00800104 	movi	r2,4
 8003334:	1085883a 	add	r2,r2,r2
 8003338:	11000504 	addi	r4,r2,20
 800333c:	180b883a 	mov	r5,r3
 8003340:	18c00044 	addi	r3,r3,1
 8003344:	313ffb2e 	bgeu	r6,r4,8003334 <_dtoa_r+0x308>
 8003348:	e1401115 	stw	r5,68(fp)
 800334c:	e009883a 	mov	r4,fp
 8003350:	80050f00 	call	80050f0 <_Balloc>
 8003354:	d8800315 	stw	r2,12(sp)
 8003358:	e0801015 	stw	r2,64(fp)
 800335c:	948003e8 	cmpgeui	r18,r18,15
 8003360:	9000fe1e 	bne	r18,zero,800375c <_dtoa_r+0x730>
 8003364:	8000fd26 	beq	r16,zero,800375c <_dtoa_r+0x730>
 8003368:	d9000417 	ldw	r4,16(sp)
 800336c:	0103c60e 	bge	zero,r4,8004288 <_dtoa_r+0x125c>
 8003370:	208003cc 	andi	r2,r4,15
 8003374:	100690fa 	slli	r3,r2,3
 8003378:	202fd13a 	srai	r23,r4,4
 800337c:	00820074 	movhi	r2,2049
 8003380:	10b73c04 	addi	r2,r2,-8976
 8003384:	10c5883a 	add	r2,r2,r3
 8003388:	b8c0040c 	andi	r3,r23,16
 800338c:	12800017 	ldw	r10,0(r2)
 8003390:	12400117 	ldw	r9,4(r2)
 8003394:	1803621e 	bne	r3,zero,8004120 <_dtoa_r+0x10f4>
 8003398:	d8800117 	ldw	r2,4(sp)
 800339c:	8827883a 	mov	r19,r17
 80033a0:	04000084 	movi	r16,2
 80033a4:	d8800c15 	stw	r2,48(sp)
 80033a8:	04820074 	movhi	r18,2049
 80033ac:	94b73204 	addi	r18,r18,-9016
 80033b0:	b8000f26 	beq	r23,zero,80033f0 <_dtoa_r+0x3c4>
 80033b4:	5005883a 	mov	r2,r10
 80033b8:	4807883a 	mov	r3,r9
 80033bc:	b980004c 	andi	r6,r23,1
 80033c0:	1009883a 	mov	r4,r2
 80033c4:	b82fd07a 	srai	r23,r23,1
 80033c8:	180b883a 	mov	r5,r3
 80033cc:	30000426 	beq	r6,zero,80033e0 <_dtoa_r+0x3b4>
 80033d0:	91800017 	ldw	r6,0(r18)
 80033d4:	91c00117 	ldw	r7,4(r18)
 80033d8:	84000044 	addi	r16,r16,1
 80033dc:	800a5680 	call	800a568 <__muldf3>
 80033e0:	94800204 	addi	r18,r18,8
 80033e4:	b83ff51e 	bne	r23,zero,80033bc <_dtoa_r+0x390>
 80033e8:	1015883a 	mov	r10,r2
 80033ec:	1813883a 	mov	r9,r3
 80033f0:	d9000c17 	ldw	r4,48(sp)
 80033f4:	980b883a 	mov	r5,r19
 80033f8:	500d883a 	mov	r6,r10
 80033fc:	480f883a 	mov	r7,r9
 8003400:	80099a40 	call	80099a4 <__divdf3>
 8003404:	1025883a 	mov	r18,r2
 8003408:	1827883a 	mov	r19,r3
 800340c:	d8800917 	ldw	r2,36(sp)
 8003410:	10000626 	beq	r2,zero,800342c <_dtoa_r+0x400>
 8003414:	000d883a 	mov	r6,zero
 8003418:	01cffc34 	movhi	r7,16368
 800341c:	9009883a 	mov	r4,r18
 8003420:	980b883a 	mov	r5,r19
 8003424:	800a4780 	call	800a478 <__ledf2>
 8003428:	10042616 	blt	r2,zero,80044c4 <_dtoa_r+0x1498>
 800342c:	8009883a 	mov	r4,r16
 8003430:	800b7880 	call	800b788 <__floatsidf>
 8003434:	900d883a 	mov	r6,r18
 8003438:	980f883a 	mov	r7,r19
 800343c:	1009883a 	mov	r4,r2
 8003440:	180b883a 	mov	r5,r3
 8003444:	800a5680 	call	800a568 <__muldf3>
 8003448:	000d883a 	mov	r6,zero
 800344c:	01d00734 	movhi	r7,16412
 8003450:	1009883a 	mov	r4,r2
 8003454:	180b883a 	mov	r5,r3
 8003458:	80090040 	call	8009004 <__adddf3>
 800345c:	d8800c15 	stw	r2,48(sp)
 8003460:	00bf3034 	movhi	r2,64704
 8003464:	1885883a 	add	r2,r3,r2
 8003468:	d8800d15 	stw	r2,52(sp)
 800346c:	d8800617 	ldw	r2,24(sp)
 8003470:	10036d26 	beq	r2,zero,8004228 <_dtoa_r+0x11fc>
 8003474:	d8800417 	ldw	r2,16(sp)
 8003478:	d8800f15 	stw	r2,60(sp)
 800347c:	d8800617 	ldw	r2,24(sp)
 8003480:	d8800e15 	stw	r2,56(sp)
 8003484:	980b883a 	mov	r5,r19
 8003488:	9009883a 	mov	r4,r18
 800348c:	800b7080 	call	800b708 <__fixdfsi>
 8003490:	1009883a 	mov	r4,r2
 8003494:	102f883a 	mov	r23,r2
 8003498:	800b7880 	call	800b788 <__floatsidf>
 800349c:	100d883a 	mov	r6,r2
 80034a0:	180f883a 	mov	r7,r3
 80034a4:	9009883a 	mov	r4,r18
 80034a8:	980b883a 	mov	r5,r19
 80034ac:	800ad480 	call	800ad48 <__subdf3>
 80034b0:	1025883a 	mov	r18,r2
 80034b4:	d8800e17 	ldw	r2,56(sp)
 80034b8:	1821883a 	mov	r16,r3
 80034bc:	ba400c04 	addi	r9,r23,48
 80034c0:	10bfffc4 	addi	r2,r2,-1
 80034c4:	100690fa 	slli	r3,r2,3
 80034c8:	00820074 	movhi	r2,2049
 80034cc:	10b73c04 	addi	r2,r2,-8976
 80034d0:	10c5883a 	add	r2,r2,r3
 80034d4:	11800017 	ldw	r6,0(r2)
 80034d8:	d8c00317 	ldw	r3,12(sp)
 80034dc:	11c00117 	ldw	r7,4(r2)
 80034e0:	d8800717 	ldw	r2,28(sp)
 80034e4:	4811883a 	mov	r8,r9
 80034e8:	da001015 	stw	r8,64(sp)
 80034ec:	1dc00044 	addi	r23,r3,1
 80034f0:	1003a226 	beq	r2,zero,800437c <_dtoa_r+0x1350>
 80034f4:	0009883a 	mov	r4,zero
 80034f8:	014ff834 	movhi	r5,16352
 80034fc:	da401115 	stw	r9,68(sp)
 8003500:	80099a40 	call	80099a4 <__divdf3>
 8003504:	d9800c17 	ldw	r6,48(sp)
 8003508:	d9c00d17 	ldw	r7,52(sp)
 800350c:	1009883a 	mov	r4,r2
 8003510:	180b883a 	mov	r5,r3
 8003514:	800ad480 	call	800ad48 <__subdf3>
 8003518:	1827883a 	mov	r19,r3
 800351c:	da401117 	ldw	r9,68(sp)
 8003520:	d8c00317 	ldw	r3,12(sp)
 8003524:	900d883a 	mov	r6,r18
 8003528:	800f883a 	mov	r7,r16
 800352c:	1a400005 	stb	r9,0(r3)
 8003530:	1009883a 	mov	r4,r2
 8003534:	980b883a 	mov	r5,r19
 8003538:	d8800c15 	stw	r2,48(sp)
 800353c:	800a3880 	call	800a388 <__gedf2>
 8003540:	da001017 	ldw	r8,64(sp)
 8003544:	00804816 	blt	zero,r2,8003668 <_dtoa_r+0x63c>
 8003548:	900d883a 	mov	r6,r18
 800354c:	800f883a 	mov	r7,r16
 8003550:	0009883a 	mov	r4,zero
 8003554:	014ffc34 	movhi	r5,16368
 8003558:	da000d15 	stw	r8,52(sp)
 800355c:	800ad480 	call	800ad48 <__subdf3>
 8003560:	d9000c17 	ldw	r4,48(sp)
 8003564:	100d883a 	mov	r6,r2
 8003568:	180f883a 	mov	r7,r3
 800356c:	980b883a 	mov	r5,r19
 8003570:	800a3880 	call	800a388 <__gedf2>
 8003574:	da000d17 	ldw	r8,52(sp)
 8003578:	00844e16 	blt	zero,r2,80046b4 <_dtoa_r+0x1688>
 800357c:	d8c00e17 	ldw	r3,56(sp)
 8003580:	18800060 	cmpeqi	r2,r3,1
 8003584:	1000751e 	bne	r2,zero,800375c <_dtoa_r+0x730>
 8003588:	d8800317 	ldw	r2,12(sp)
 800358c:	dd800d15 	stw	r22,52(sp)
 8003590:	dd000e15 	stw	r20,56(sp)
 8003594:	10c5883a 	add	r2,r2,r3
 8003598:	dd000c17 	ldw	r20,48(sp)
 800359c:	102d883a 	mov	r22,r2
 80035a0:	dc400c15 	stw	r17,48(sp)
 80035a4:	00000806 	br	80035c8 <_dtoa_r+0x59c>
 80035a8:	800ad480 	call	800ad48 <__subdf3>
 80035ac:	a00d883a 	mov	r6,r20
 80035b0:	980f883a 	mov	r7,r19
 80035b4:	1009883a 	mov	r4,r2
 80035b8:	180b883a 	mov	r5,r3
 80035bc:	800a4780 	call	800a478 <__ledf2>
 80035c0:	10042316 	blt	r2,zero,8004650 <_dtoa_r+0x1624>
 80035c4:	bd806226 	beq	r23,r22,8003750 <_dtoa_r+0x724>
 80035c8:	a009883a 	mov	r4,r20
 80035cc:	980b883a 	mov	r5,r19
 80035d0:	000d883a 	mov	r6,zero
 80035d4:	01d00934 	movhi	r7,16420
 80035d8:	800a5680 	call	800a568 <__muldf3>
 80035dc:	000d883a 	mov	r6,zero
 80035e0:	01d00934 	movhi	r7,16420
 80035e4:	9009883a 	mov	r4,r18
 80035e8:	800b883a 	mov	r5,r16
 80035ec:	1029883a 	mov	r20,r2
 80035f0:	1827883a 	mov	r19,r3
 80035f4:	800a5680 	call	800a568 <__muldf3>
 80035f8:	180b883a 	mov	r5,r3
 80035fc:	1009883a 	mov	r4,r2
 8003600:	1821883a 	mov	r16,r3
 8003604:	1025883a 	mov	r18,r2
 8003608:	800b7080 	call	800b708 <__fixdfsi>
 800360c:	1009883a 	mov	r4,r2
 8003610:	1023883a 	mov	r17,r2
 8003614:	800b7880 	call	800b788 <__floatsidf>
 8003618:	9009883a 	mov	r4,r18
 800361c:	800b883a 	mov	r5,r16
 8003620:	100d883a 	mov	r6,r2
 8003624:	180f883a 	mov	r7,r3
 8003628:	800ad480 	call	800ad48 <__subdf3>
 800362c:	bdc00044 	addi	r23,r23,1
 8003630:	8c400c04 	addi	r17,r17,48
 8003634:	a00d883a 	mov	r6,r20
 8003638:	980f883a 	mov	r7,r19
 800363c:	1009883a 	mov	r4,r2
 8003640:	180b883a 	mov	r5,r3
 8003644:	bc7fffc5 	stb	r17,-1(r23)
 8003648:	1025883a 	mov	r18,r2
 800364c:	1821883a 	mov	r16,r3
 8003650:	800a4780 	call	800a478 <__ledf2>
 8003654:	900d883a 	mov	r6,r18
 8003658:	800f883a 	mov	r7,r16
 800365c:	0009883a 	mov	r4,zero
 8003660:	014ffc34 	movhi	r5,16368
 8003664:	103fd00e 	bge	r2,zero,80035a8 <_dtoa_r+0x57c>
 8003668:	d8800f17 	ldw	r2,60(sp)
 800366c:	10800044 	addi	r2,r2,1
 8003670:	d8800415 	stw	r2,16(sp)
 8003674:	a80b883a 	mov	r5,r21
 8003678:	e009883a 	mov	r4,fp
 800367c:	80051940 	call	8005194 <_Bfree>
 8003680:	d8801f17 	ldw	r2,124(sp)
 8003684:	d8c00417 	ldw	r3,16(sp)
 8003688:	b8000005 	stb	zero,0(r23)
 800368c:	10c00015 	stw	r3,0(r2)
 8003690:	d8802117 	ldw	r2,132(sp)
 8003694:	103e9726 	beq	r2,zero,80030f4 <_dtoa_r+0xc8>
 8003698:	15c00015 	stw	r23,0(r2)
 800369c:	003e9506 	br	80030f4 <_dtoa_r+0xc8>
 80036a0:	04600034 	movhi	r17,32768
 80036a4:	8c7fffc4 	addi	r17,r17,-1
 80036a8:	9c62703a 	and	r17,r19,r17
 80036ac:	00800044 	movi	r2,1
 80036b0:	8827883a 	mov	r19,r17
 80036b4:	80800015 	stw	r2,0(r16)
 80036b8:	00dffc34 	movhi	r3,32752
 80036bc:	989ffc2c 	andhi	r2,r19,32752
 80036c0:	10fe7a1e 	bne	r2,r3,80030ac <_dtoa_r+0x80>
 80036c4:	00800434 	movhi	r2,16
 80036c8:	d8c01f17 	ldw	r3,124(sp)
 80036cc:	10bfffc4 	addi	r2,r2,-1
 80036d0:	98a6703a 	and	r19,r19,r2
 80036d4:	0089c3c4 	movi	r2,9999
 80036d8:	18800015 	stw	r2,0(r3)
 80036dc:	d8800117 	ldw	r2,4(sp)
 80036e0:	98aab03a 	or	r21,r19,r2
 80036e4:	a800141e 	bne	r21,zero,8003738 <_dtoa_r+0x70c>
 80036e8:	d8802117 	ldw	r2,132(sp)
 80036ec:	1003f626 	beq	r2,zero,80046c8 <_dtoa_r+0x169c>
 80036f0:	00820074 	movhi	r2,2049
 80036f4:	1007883a 	mov	r3,r2
 80036f8:	18f72204 	addi	r3,r3,-9080
 80036fc:	00820074 	movhi	r2,2049
 8003700:	d8c00315 	stw	r3,12(sp)
 8003704:	10b72404 	addi	r2,r2,-9072
 8003708:	d8c02117 	ldw	r3,132(sp)
 800370c:	18800015 	stw	r2,0(r3)
 8003710:	003e7806 	br	80030f4 <_dtoa_r+0xc8>
 8003714:	01400434 	movhi	r5,16
 8003718:	297fffc4 	addi	r5,r5,-1
 800371c:	894a703a 	and	r5,r17,r5
 8003720:	9009883a 	mov	r4,r18
 8003724:	294ffc34 	orhi	r5,r5,16368
 8003728:	843f0044 	addi	r16,r16,-1023
 800372c:	dc801217 	ldw	r18,72(sp)
 8003730:	d8000a15 	stw	zero,40(sp)
 8003734:	003e9b06 	br	80031a4 <_dtoa_r+0x178>
 8003738:	d8802117 	ldw	r2,132(sp)
 800373c:	1002461e 	bne	r2,zero,8004058 <_dtoa_r+0x102c>
 8003740:	00820074 	movhi	r2,2049
 8003744:	10b72104 	addi	r2,r2,-9084
 8003748:	d8800315 	stw	r2,12(sp)
 800374c:	003e6906 	br	80030f4 <_dtoa_r+0xc8>
 8003750:	dd800d17 	ldw	r22,52(sp)
 8003754:	dd000e17 	ldw	r20,56(sp)
 8003758:	dc400c17 	ldw	r17,48(sp)
 800375c:	d8801317 	ldw	r2,76(sp)
 8003760:	10009f16 	blt	r2,zero,80039e0 <_dtoa_r+0x9b4>
 8003764:	d9000417 	ldw	r4,16(sp)
 8003768:	20c003c8 	cmpgei	r3,r4,15
 800376c:	18009c1e 	bne	r3,zero,80039e0 <_dtoa_r+0x9b4>
 8003770:	200690fa 	slli	r3,r4,3
 8003774:	00820074 	movhi	r2,2049
 8003778:	10b73c04 	addi	r2,r2,-8976
 800377c:	10c5883a 	add	r2,r2,r3
 8003780:	14000017 	ldw	r16,0(r2)
 8003784:	14800117 	ldw	r18,4(r2)
 8003788:	d8801e17 	ldw	r2,120(sp)
 800378c:	1000140e 	bge	r2,zero,80037e0 <_dtoa_r+0x7b4>
 8003790:	d8800617 	ldw	r2,24(sp)
 8003794:	00801216 	blt	zero,r2,80037e0 <_dtoa_r+0x7b4>
 8003798:	1002b81e 	bne	r2,zero,800427c <_dtoa_r+0x1250>
 800379c:	8009883a 	mov	r4,r16
 80037a0:	900b883a 	mov	r5,r18
 80037a4:	000d883a 	mov	r6,zero
 80037a8:	01d00534 	movhi	r7,16404
 80037ac:	800a5680 	call	800a568 <__muldf3>
 80037b0:	d9800117 	ldw	r6,4(sp)
 80037b4:	880f883a 	mov	r7,r17
 80037b8:	1009883a 	mov	r4,r2
 80037bc:	180b883a 	mov	r5,r3
 80037c0:	800a3880 	call	800a388 <__gedf2>
 80037c4:	0025883a 	mov	r18,zero
 80037c8:	0021883a 	mov	r16,zero
 80037cc:	1001fd16 	blt	r2,zero,8003fc4 <_dtoa_r+0xf98>
 80037d0:	d8801e17 	ldw	r2,120(sp)
 80037d4:	ddc00317 	ldw	r23,12(sp)
 80037d8:	00a2303a 	nor	r17,zero,r2
 80037dc:	0001ff06 	br	8003fdc <_dtoa_r+0xfb0>
 80037e0:	dcc00117 	ldw	r19,4(sp)
 80037e4:	800d883a 	mov	r6,r16
 80037e8:	900f883a 	mov	r7,r18
 80037ec:	880b883a 	mov	r5,r17
 80037f0:	9809883a 	mov	r4,r19
 80037f4:	80099a40 	call	80099a4 <__divdf3>
 80037f8:	180b883a 	mov	r5,r3
 80037fc:	1009883a 	mov	r4,r2
 8003800:	800b7080 	call	800b708 <__fixdfsi>
 8003804:	1009883a 	mov	r4,r2
 8003808:	102d883a 	mov	r22,r2
 800380c:	800b7880 	call	800b788 <__floatsidf>
 8003810:	800d883a 	mov	r6,r16
 8003814:	900f883a 	mov	r7,r18
 8003818:	1009883a 	mov	r4,r2
 800381c:	180b883a 	mov	r5,r3
 8003820:	800a5680 	call	800a568 <__muldf3>
 8003824:	880b883a 	mov	r5,r17
 8003828:	100d883a 	mov	r6,r2
 800382c:	180f883a 	mov	r7,r3
 8003830:	9809883a 	mov	r4,r19
 8003834:	800ad480 	call	800ad48 <__subdf3>
 8003838:	dc400317 	ldw	r17,12(sp)
 800383c:	1009883a 	mov	r4,r2
 8003840:	d9c00417 	ldw	r7,16(sp)
 8003844:	b0800c04 	addi	r2,r22,48
 8003848:	88800005 	stb	r2,0(r17)
 800384c:	d8800617 	ldw	r2,24(sp)
 8003850:	39c00044 	addi	r7,r7,1
 8003854:	d9c00415 	stw	r7,16(sp)
 8003858:	11800060 	cmpeqi	r6,r2,1
 800385c:	180b883a 	mov	r5,r3
 8003860:	2005883a 	mov	r2,r4
 8003864:	8dc00044 	addi	r23,r17,1
 8003868:	3000391e 	bne	r6,zero,8003950 <_dtoa_r+0x924>
 800386c:	01d00934 	movhi	r7,16420
 8003870:	800a5680 	call	800a568 <__muldf3>
 8003874:	000d883a 	mov	r6,zero
 8003878:	000f883a 	mov	r7,zero
 800387c:	1009883a 	mov	r4,r2
 8003880:	180b883a 	mov	r5,r3
 8003884:	1027883a 	mov	r19,r2
 8003888:	1829883a 	mov	r20,r3
 800388c:	800a3080 	call	800a308 <__eqdf2>
 8003890:	103f7826 	beq	r2,zero,8003674 <_dtoa_r+0x648>
 8003894:	d8c00617 	ldw	r3,24(sp)
 8003898:	8805883a 	mov	r2,r17
 800389c:	dd400115 	stw	r21,4(sp)
 80038a0:	8c400084 	addi	r17,r17,2
 80038a4:	10ed883a 	add	r22,r2,r3
 80038a8:	00000a06 	br	80038d4 <_dtoa_r+0x8a8>
 80038ac:	800a5680 	call	800a568 <__muldf3>
 80038b0:	000d883a 	mov	r6,zero
 80038b4:	000f883a 	mov	r7,zero
 80038b8:	1009883a 	mov	r4,r2
 80038bc:	180b883a 	mov	r5,r3
 80038c0:	1027883a 	mov	r19,r2
 80038c4:	1829883a 	mov	r20,r3
 80038c8:	8c400044 	addi	r17,r17,1
 80038cc:	800a3080 	call	800a308 <__eqdf2>
 80038d0:	10029d26 	beq	r2,zero,8004348 <_dtoa_r+0x131c>
 80038d4:	800d883a 	mov	r6,r16
 80038d8:	900f883a 	mov	r7,r18
 80038dc:	9809883a 	mov	r4,r19
 80038e0:	a00b883a 	mov	r5,r20
 80038e4:	80099a40 	call	80099a4 <__divdf3>
 80038e8:	180b883a 	mov	r5,r3
 80038ec:	1009883a 	mov	r4,r2
 80038f0:	800b7080 	call	800b708 <__fixdfsi>
 80038f4:	1009883a 	mov	r4,r2
 80038f8:	102b883a 	mov	r21,r2
 80038fc:	800b7880 	call	800b788 <__floatsidf>
 8003900:	800d883a 	mov	r6,r16
 8003904:	900f883a 	mov	r7,r18
 8003908:	1009883a 	mov	r4,r2
 800390c:	180b883a 	mov	r5,r3
 8003910:	800a5680 	call	800a568 <__muldf3>
 8003914:	100d883a 	mov	r6,r2
 8003918:	180f883a 	mov	r7,r3
 800391c:	9809883a 	mov	r4,r19
 8003920:	a00b883a 	mov	r5,r20
 8003924:	800ad480 	call	800ad48 <__subdf3>
 8003928:	aa400c04 	addi	r9,r21,48
 800392c:	8a7fffc5 	stb	r9,-1(r17)
 8003930:	000d883a 	mov	r6,zero
 8003934:	01d00934 	movhi	r7,16420
 8003938:	1009883a 	mov	r4,r2
 800393c:	180b883a 	mov	r5,r3
 8003940:	882f883a 	mov	r23,r17
 8003944:	b47fd91e 	bne	r22,r17,80038ac <_dtoa_r+0x880>
 8003948:	a82d883a 	mov	r22,r21
 800394c:	dd400117 	ldw	r21,4(sp)
 8003950:	100d883a 	mov	r6,r2
 8003954:	180f883a 	mov	r7,r3
 8003958:	1009883a 	mov	r4,r2
 800395c:	180b883a 	mov	r5,r3
 8003960:	80090040 	call	8009004 <__adddf3>
 8003964:	800d883a 	mov	r6,r16
 8003968:	900f883a 	mov	r7,r18
 800396c:	1009883a 	mov	r4,r2
 8003970:	180b883a 	mov	r5,r3
 8003974:	1027883a 	mov	r19,r2
 8003978:	1823883a 	mov	r17,r3
 800397c:	800a3880 	call	800a388 <__gedf2>
 8003980:	00800816 	blt	zero,r2,80039a4 <_dtoa_r+0x978>
 8003984:	800d883a 	mov	r6,r16
 8003988:	900f883a 	mov	r7,r18
 800398c:	9809883a 	mov	r4,r19
 8003990:	880b883a 	mov	r5,r17
 8003994:	800a3080 	call	800a308 <__eqdf2>
 8003998:	103f361e 	bne	r2,zero,8003674 <_dtoa_r+0x648>
 800399c:	b580004c 	andi	r22,r22,1
 80039a0:	b03f3426 	beq	r22,zero,8003674 <_dtoa_r+0x648>
 80039a4:	ba3fffc3 	ldbu	r8,-1(r23)
 80039a8:	d9000317 	ldw	r4,12(sp)
 80039ac:	00000306 	br	80039bc <_dtoa_r+0x990>
 80039b0:	20c30e26 	beq	r4,r3,80045ec <_dtoa_r+0x15c0>
 80039b4:	1a3fffc3 	ldbu	r8,-1(r3)
 80039b8:	182f883a 	mov	r23,r3
 80039bc:	40803fcc 	andi	r2,r8,255
 80039c0:	1080201c 	xori	r2,r2,128
 80039c4:	10bfe004 	addi	r2,r2,-128
 80039c8:	10800e60 	cmpeqi	r2,r2,57
 80039cc:	b8ffffc4 	addi	r3,r23,-1
 80039d0:	103ff71e 	bne	r2,zero,80039b0 <_dtoa_r+0x984>
 80039d4:	42000044 	addi	r8,r8,1
 80039d8:	1a000005 	stb	r8,0(r3)
 80039dc:	003f2506 	br	8003674 <_dtoa_r+0x648>
 80039e0:	d8c00717 	ldw	r3,28(sp)
 80039e4:	1800e426 	beq	r3,zero,8003d78 <_dtoa_r+0xd4c>
 80039e8:	d8c00217 	ldw	r3,8(sp)
 80039ec:	18c00088 	cmpgei	r3,r3,2
 80039f0:	1801ec26 	beq	r3,zero,80041a4 <_dtoa_r+0x1178>
 80039f4:	d8800617 	ldw	r2,24(sp)
 80039f8:	14bfffc4 	addi	r18,r2,-1
 80039fc:	d8800817 	ldw	r2,32(sp)
 8003a00:	1481c50e 	bge	r2,r18,8004118 <_dtoa_r+0x10ec>
 8003a04:	d8800817 	ldw	r2,32(sp)
 8003a08:	dc800815 	stw	r18,32(sp)
 8003a0c:	9085c83a 	sub	r2,r18,r2
 8003a10:	b0ad883a 	add	r22,r22,r2
 8003a14:	0025883a 	mov	r18,zero
 8003a18:	d8800617 	ldw	r2,24(sp)
 8003a1c:	10024c16 	blt	r2,zero,8004350 <_dtoa_r+0x1324>
 8003a20:	d8c00517 	ldw	r3,20(sp)
 8003a24:	a0a9883a 	add	r20,r20,r2
 8003a28:	1885883a 	add	r2,r3,r2
 8003a2c:	1827883a 	mov	r19,r3
 8003a30:	d8800515 	stw	r2,20(sp)
 8003a34:	01400044 	movi	r5,1
 8003a38:	e009883a 	mov	r4,fp
 8003a3c:	80055180 	call	8005518 <__i2b>
 8003a40:	1021883a 	mov	r16,r2
 8003a44:	04c0080e 	bge	zero,r19,8003a68 <_dtoa_r+0xa3c>
 8003a48:	0500070e 	bge	zero,r20,8003a68 <_dtoa_r+0xa3c>
 8003a4c:	9805883a 	mov	r2,r19
 8003a50:	a4c1a916 	blt	r20,r19,80040f8 <_dtoa_r+0x10cc>
 8003a54:	d8c00517 	ldw	r3,20(sp)
 8003a58:	98a7c83a 	sub	r19,r19,r2
 8003a5c:	a0a9c83a 	sub	r20,r20,r2
 8003a60:	1887c83a 	sub	r3,r3,r2
 8003a64:	d8c00515 	stw	r3,20(sp)
 8003a68:	d8800817 	ldw	r2,32(sp)
 8003a6c:	10001426 	beq	r2,zero,8003ac0 <_dtoa_r+0xa94>
 8003a70:	d8800717 	ldw	r2,28(sp)
 8003a74:	10017226 	beq	r2,zero,8004040 <_dtoa_r+0x1014>
 8003a78:	04800e0e 	bge	zero,r18,8003ab4 <_dtoa_r+0xa88>
 8003a7c:	800b883a 	mov	r5,r16
 8003a80:	900d883a 	mov	r6,r18
 8003a84:	e009883a 	mov	r4,fp
 8003a88:	800578c0 	call	800578c <__pow5mult>
 8003a8c:	a80d883a 	mov	r6,r21
 8003a90:	100b883a 	mov	r5,r2
 8003a94:	e009883a 	mov	r4,fp
 8003a98:	1021883a 	mov	r16,r2
 8003a9c:	800554c0 	call	800554c <__multiply>
 8003aa0:	102f883a 	mov	r23,r2
 8003aa4:	a80b883a 	mov	r5,r21
 8003aa8:	e009883a 	mov	r4,fp
 8003aac:	80051940 	call	8005194 <_Bfree>
 8003ab0:	b82b883a 	mov	r21,r23
 8003ab4:	d8800817 	ldw	r2,32(sp)
 8003ab8:	148dc83a 	sub	r6,r2,r18
 8003abc:	3001611e 	bne	r6,zero,8004044 <_dtoa_r+0x1018>
 8003ac0:	01400044 	movi	r5,1
 8003ac4:	e009883a 	mov	r4,fp
 8003ac8:	80055180 	call	8005518 <__i2b>
 8003acc:	1025883a 	mov	r18,r2
 8003ad0:	0580bc16 	blt	zero,r22,8003dc4 <_dtoa_r+0xd98>
 8003ad4:	d8800217 	ldw	r2,8(sp)
 8003ad8:	10800088 	cmpgei	r2,r2,2
 8003adc:	10016526 	beq	r2,zero,8004074 <_dtoa_r+0x1048>
 8003ae0:	0023883a 	mov	r17,zero
 8003ae4:	00800044 	movi	r2,1
 8003ae8:	b000bf1e 	bne	r22,zero,8003de8 <_dtoa_r+0xdbc>
 8003aec:	1505883a 	add	r2,r2,r20
 8003af0:	108007cc 	andi	r2,r2,31
 8003af4:	1000aa26 	beq	r2,zero,8003da0 <_dtoa_r+0xd74>
 8003af8:	00c00804 	movi	r3,32
 8003afc:	1887c83a 	sub	r3,r3,r2
 8003b00:	19000150 	cmplti	r4,r3,5
 8003b04:	2002f61e 	bne	r4,zero,80046e0 <_dtoa_r+0x16b4>
 8003b08:	00c00704 	movi	r3,28
 8003b0c:	1885c83a 	sub	r2,r3,r2
 8003b10:	d8c00517 	ldw	r3,20(sp)
 8003b14:	98a7883a 	add	r19,r19,r2
 8003b18:	a0a9883a 	add	r20,r20,r2
 8003b1c:	1887883a 	add	r3,r3,r2
 8003b20:	d8c00515 	stw	r3,20(sp)
 8003b24:	d8800517 	ldw	r2,20(sp)
 8003b28:	00809716 	blt	zero,r2,8003d88 <_dtoa_r+0xd5c>
 8003b2c:	0500050e 	bge	zero,r20,8003b44 <_dtoa_r+0xb18>
 8003b30:	900b883a 	mov	r5,r18
 8003b34:	a00d883a 	mov	r6,r20
 8003b38:	e009883a 	mov	r4,fp
 8003b3c:	80058b40 	call	80058b4 <__lshift>
 8003b40:	1025883a 	mov	r18,r2
 8003b44:	d8800917 	ldw	r2,36(sp)
 8003b48:	10012b1e 	bne	r2,zero,8003ff8 <_dtoa_r+0xfcc>
 8003b4c:	d8800617 	ldw	r2,24(sp)
 8003b50:	00810d0e 	bge	zero,r2,8003f88 <_dtoa_r+0xf5c>
 8003b54:	d8800417 	ldw	r2,16(sp)
 8003b58:	10800044 	addi	r2,r2,1
 8003b5c:	d8800415 	stw	r2,16(sp)
 8003b60:	d8800717 	ldw	r2,28(sp)
 8003b64:	1000b21e 	bne	r2,zero,8003e30 <_dtoa_r+0xe04>
 8003b68:	ddc00317 	ldw	r23,12(sp)
 8003b6c:	04400044 	movi	r17,1
 8003b70:	dcc00617 	ldw	r19,24(sp)
 8003b74:	00000306 	br	8003b84 <_dtoa_r+0xb58>
 8003b78:	80051b80 	call	80051b8 <__multadd>
 8003b7c:	102b883a 	mov	r21,r2
 8003b80:	8c400044 	addi	r17,r17,1
 8003b84:	900b883a 	mov	r5,r18
 8003b88:	a809883a 	mov	r4,r21
 8003b8c:	8002df80 	call	8002df8 <quorem>
 8003b90:	10800c04 	addi	r2,r2,48
 8003b94:	bdc00044 	addi	r23,r23,1
 8003b98:	b8bfffc5 	stb	r2,-1(r23)
 8003b9c:	000f883a 	mov	r7,zero
 8003ba0:	01800284 	movi	r6,10
 8003ba4:	a80b883a 	mov	r5,r21
 8003ba8:	e009883a 	mov	r4,fp
 8003bac:	8cfff216 	blt	r17,r19,8003b78 <_dtoa_r+0xb4c>
 8003bb0:	1011883a 	mov	r8,r2
 8003bb4:	0029883a 	mov	r20,zero
 8003bb8:	a80b883a 	mov	r5,r21
 8003bbc:	01800044 	movi	r6,1
 8003bc0:	e009883a 	mov	r4,fp
 8003bc4:	da000115 	stw	r8,4(sp)
 8003bc8:	80058b40 	call	80058b4 <__lshift>
 8003bcc:	900b883a 	mov	r5,r18
 8003bd0:	1009883a 	mov	r4,r2
 8003bd4:	102b883a 	mov	r21,r2
 8003bd8:	80059f00 	call	80059f0 <__mcmp>
 8003bdc:	b8ffffc3 	ldbu	r3,-1(r23)
 8003be0:	0081610e 	bge	zero,r2,8004168 <_dtoa_r+0x113c>
 8003be4:	d9400317 	ldw	r5,12(sp)
 8003be8:	00000306 	br	8003bf8 <_dtoa_r+0xbcc>
 8003bec:	29017726 	beq	r5,r4,80041cc <_dtoa_r+0x11a0>
 8003bf0:	20ffffc3 	ldbu	r3,-1(r4)
 8003bf4:	202f883a 	mov	r23,r4
 8003bf8:	18803fcc 	andi	r2,r3,255
 8003bfc:	1080201c 	xori	r2,r2,128
 8003c00:	10bfe004 	addi	r2,r2,-128
 8003c04:	10800e60 	cmpeqi	r2,r2,57
 8003c08:	b93fffc4 	addi	r4,r23,-1
 8003c0c:	103ff71e 	bne	r2,zero,8003bec <_dtoa_r+0xbc0>
 8003c10:	18c00044 	addi	r3,r3,1
 8003c14:	20c00005 	stb	r3,0(r4)
 8003c18:	900b883a 	mov	r5,r18
 8003c1c:	e009883a 	mov	r4,fp
 8003c20:	80051940 	call	8005194 <_Bfree>
 8003c24:	803e9326 	beq	r16,zero,8003674 <_dtoa_r+0x648>
 8003c28:	a0000426 	beq	r20,zero,8003c3c <_dtoa_r+0xc10>
 8003c2c:	a4000326 	beq	r20,r16,8003c3c <_dtoa_r+0xc10>
 8003c30:	a00b883a 	mov	r5,r20
 8003c34:	e009883a 	mov	r4,fp
 8003c38:	80051940 	call	8005194 <_Bfree>
 8003c3c:	800b883a 	mov	r5,r16
 8003c40:	e009883a 	mov	r4,fp
 8003c44:	80051940 	call	8005194 <_Bfree>
 8003c48:	003e8a06 	br	8003674 <_dtoa_r+0x648>
 8003c4c:	d8000915 	stw	zero,36(sp)
 8003c50:	a0003616 	blt	r20,zero,8003d2c <_dtoa_r+0xd00>
 8003c54:	d8000515 	stw	zero,20(sp)
 8003c58:	d8c00217 	ldw	r3,8(sp)
 8003c5c:	dd800415 	stw	r22,16(sp)
 8003c60:	d8000815 	stw	zero,32(sp)
 8003c64:	188002a8 	cmpgeui	r2,r3,10
 8003c68:	a5a9883a 	add	r20,r20,r22
 8003c6c:	103d9726 	beq	r2,zero,80032cc <_dtoa_r+0x2a0>
 8003c70:	00800044 	movi	r2,1
 8003c74:	d8800715 	stw	r2,28(sp)
 8003c78:	00bfffc4 	movi	r2,-1
 8003c7c:	04bfffc4 	movi	r18,-1
 8003c80:	04000044 	movi	r16,1
 8003c84:	d8000215 	stw	zero,8(sp)
 8003c88:	d8800615 	stw	r2,24(sp)
 8003c8c:	d8001e15 	stw	zero,120(sp)
 8003c90:	d8800617 	ldw	r2,24(sp)
 8003c94:	e0001115 	stw	zero,68(fp)
 8003c98:	000b883a 	mov	r5,zero
 8003c9c:	d8800b15 	stw	r2,44(sp)
 8003ca0:	003daa06 	br	800334c <_dtoa_r+0x320>
 8003ca4:	18800160 	cmpeqi	r2,r3,5
 8003ca8:	00c00044 	movi	r3,1
 8003cac:	d8c00715 	stw	r3,28(sp)
 8003cb0:	10000d26 	beq	r2,zero,8003ce8 <_dtoa_r+0xcbc>
 8003cb4:	d8801e17 	ldw	r2,120(sp)
 8003cb8:	d8c00417 	ldw	r3,16(sp)
 8003cbc:	10c5883a 	add	r2,r2,r3
 8003cc0:	d8800b15 	stw	r2,44(sp)
 8003cc4:	10800044 	addi	r2,r2,1
 8003cc8:	d8800615 	stw	r2,24(sp)
 8003ccc:	100d883a 	mov	r6,r2
 8003cd0:	00bd9216 	blt	zero,r2,800331c <_dtoa_r+0x2f0>
 8003cd4:	01800044 	movi	r6,1
 8003cd8:	003d9006 	br	800331c <_dtoa_r+0x2f0>
 8003cdc:	188000a0 	cmpeqi	r2,r3,2
 8003ce0:	d8000715 	stw	zero,28(sp)
 8003ce4:	103d881e 	bne	r2,zero,8003308 <_dtoa_r+0x2dc>
 8003ce8:	e0001115 	stw	zero,68(fp)
 8003cec:	000b883a 	mov	r5,zero
 8003cf0:	e009883a 	mov	r4,fp
 8003cf4:	80050f00 	call	80050f0 <_Balloc>
 8003cf8:	d8800315 	stw	r2,12(sp)
 8003cfc:	e0801015 	stw	r2,64(fp)
 8003d00:	00bfffc4 	movi	r2,-1
 8003d04:	d8800b15 	stw	r2,44(sp)
 8003d08:	00800044 	movi	r2,1
 8003d0c:	d8800715 	stw	r2,28(sp)
 8003d10:	00bfffc4 	movi	r2,-1
 8003d14:	d8001e15 	stw	zero,120(sp)
 8003d18:	d8800615 	stw	r2,24(sp)
 8003d1c:	003e8f06 	br	800375c <_dtoa_r+0x730>
 8003d20:	00800044 	movi	r2,1
 8003d24:	d8800915 	stw	r2,36(sp)
 8003d28:	a03d5c0e 	bge	r20,zero,800329c <_dtoa_r+0x270>
 8003d2c:	04800044 	movi	r18,1
 8003d30:	9405c83a 	sub	r2,r18,r16
 8003d34:	d8800515 	stw	r2,20(sp)
 8003d38:	0029883a 	mov	r20,zero
 8003d3c:	003d5806 	br	80032a0 <_dtoa_r+0x274>
 8003d40:	b009883a 	mov	r4,r22
 8003d44:	800b7880 	call	800b788 <__floatsidf>
 8003d48:	a00d883a 	mov	r6,r20
 8003d4c:	980f883a 	mov	r7,r19
 8003d50:	1009883a 	mov	r4,r2
 8003d54:	180b883a 	mov	r5,r3
 8003d58:	800a3080 	call	800a308 <__eqdf2>
 8003d5c:	103d3e26 	beq	r2,zero,8003258 <_dtoa_r+0x22c>
 8003d60:	b5bfffc4 	addi	r22,r22,-1
 8003d64:	003d3c06 	br	8003258 <_dtoa_r+0x22c>
 8003d68:	00820074 	movhi	r2,2049
 8003d6c:	10b71804 	addi	r2,r2,-9120
 8003d70:	d8800315 	stw	r2,12(sp)
 8003d74:	003cdf06 	br	80030f4 <_dtoa_r+0xc8>
 8003d78:	dc800817 	ldw	r18,32(sp)
 8003d7c:	dcc00517 	ldw	r19,20(sp)
 8003d80:	0021883a 	mov	r16,zero
 8003d84:	003f2f06 	br	8003a44 <_dtoa_r+0xa18>
 8003d88:	a80b883a 	mov	r5,r21
 8003d8c:	100d883a 	mov	r6,r2
 8003d90:	e009883a 	mov	r4,fp
 8003d94:	80058b40 	call	80058b4 <__lshift>
 8003d98:	102b883a 	mov	r21,r2
 8003d9c:	003f6306 	br	8003b2c <_dtoa_r+0xb00>
 8003da0:	00800704 	movi	r2,28
 8003da4:	003f5a06 	br	8003b10 <_dtoa_r+0xae4>
 8003da8:	01000804 	movi	r4,32
 8003dac:	2089c83a 	sub	r4,r4,r2
 8003db0:	d8800117 	ldw	r2,4(sp)
 8003db4:	1108983a 	sll	r4,r2,r4
 8003db8:	003cf306 	br	8003188 <_dtoa_r+0x15c>
 8003dbc:	04000044 	movi	r16,1
 8003dc0:	003d4706 	br	80032e0 <_dtoa_r+0x2b4>
 8003dc4:	b00d883a 	mov	r6,r22
 8003dc8:	100b883a 	mov	r5,r2
 8003dcc:	e009883a 	mov	r4,fp
 8003dd0:	800578c0 	call	800578c <__pow5mult>
 8003dd4:	1025883a 	mov	r18,r2
 8003dd8:	d8800217 	ldw	r2,8(sp)
 8003ddc:	10800090 	cmplti	r2,r2,2
 8003de0:	10012f1e 	bne	r2,zero,80042a0 <_dtoa_r+0x1274>
 8003de4:	0023883a 	mov	r17,zero
 8003de8:	90800417 	ldw	r2,16(r18)
 8003dec:	10800104 	addi	r2,r2,4
 8003df0:	100490ba 	slli	r2,r2,2
 8003df4:	9085883a 	add	r2,r18,r2
 8003df8:	11000017 	ldw	r4,0(r2)
 8003dfc:	80054040 	call	8005404 <__hi0bits>
 8003e00:	00c00804 	movi	r3,32
 8003e04:	1885c83a 	sub	r2,r3,r2
 8003e08:	003f3806 	br	8003aec <_dtoa_r+0xac0>
 8003e0c:	800b883a 	mov	r5,r16
 8003e10:	000f883a 	mov	r7,zero
 8003e14:	01800284 	movi	r6,10
 8003e18:	e009883a 	mov	r4,fp
 8003e1c:	80051b80 	call	80051b8 <__multadd>
 8003e20:	1021883a 	mov	r16,r2
 8003e24:	d8800b17 	ldw	r2,44(sp)
 8003e28:	00821b0e 	bge	zero,r2,8004698 <_dtoa_r+0x166c>
 8003e2c:	d8800615 	stw	r2,24(sp)
 8003e30:	04c0b316 	blt	zero,r19,8004100 <_dtoa_r+0x10d4>
 8003e34:	8801341e 	bne	r17,zero,8004308 <_dtoa_r+0x12dc>
 8003e38:	8027883a 	mov	r19,r16
 8003e3c:	dc400317 	ldw	r17,12(sp)
 8003e40:	d8c00617 	ldw	r3,24(sp)
 8003e44:	d8800117 	ldw	r2,4(sp)
 8003e48:	8dffffc4 	addi	r23,r17,-1
 8003e4c:	b8c7883a 	add	r3,r23,r3
 8003e50:	d8c00615 	stw	r3,24(sp)
 8003e54:	d8c00217 	ldw	r3,8(sp)
 8003e58:	1080004c 	andi	r2,r2,1
 8003e5c:	d8800815 	stw	r2,32(sp)
 8003e60:	10c4b03a 	or	r2,r2,r3
 8003e64:	d8800715 	stw	r2,28(sp)
 8003e68:	00002c06 	br	8003f1c <_dtoa_r+0xef0>
 8003e6c:	b80b883a 	mov	r5,r23
 8003e70:	a809883a 	mov	r4,r21
 8003e74:	da000515 	stw	r8,20(sp)
 8003e78:	80059f00 	call	80059f0 <__mcmp>
 8003e7c:	b80b883a 	mov	r5,r23
 8003e80:	e009883a 	mov	r4,fp
 8003e84:	d8800115 	stw	r2,4(sp)
 8003e88:	80051940 	call	8005194 <_Bfree>
 8003e8c:	d8800117 	ldw	r2,4(sp)
 8003e90:	da000517 	ldw	r8,20(sp)
 8003e94:	1000021e 	bne	r2,zero,8003ea0 <_dtoa_r+0xe74>
 8003e98:	d8c00717 	ldw	r3,28(sp)
 8003e9c:	1801f226 	beq	r3,zero,8004668 <_dtoa_r+0x163c>
 8003ea0:	8dc00044 	addi	r23,r17,1
 8003ea4:	a0010516 	blt	r20,zero,80042bc <_dtoa_r+0x1290>
 8003ea8:	d8c00217 	ldw	r3,8(sp)
 8003eac:	a0e8b03a 	or	r20,r20,r3
 8003eb0:	d8c00817 	ldw	r3,32(sp)
 8003eb4:	1d28b03a 	or	r20,r3,r20
 8003eb8:	a0010026 	beq	r20,zero,80042bc <_dtoa_r+0x1290>
 8003ebc:	00812816 	blt	zero,r2,8004360 <_dtoa_r+0x1334>
 8003ec0:	d8800617 	ldw	r2,24(sp)
 8003ec4:	8a000005 	stb	r8,0(r17)
 8003ec8:	14412926 	beq	r2,r17,8004370 <_dtoa_r+0x1344>
 8003ecc:	a80b883a 	mov	r5,r21
 8003ed0:	000f883a 	mov	r7,zero
 8003ed4:	01800284 	movi	r6,10
 8003ed8:	e009883a 	mov	r4,fp
 8003edc:	80051b80 	call	80051b8 <__multadd>
 8003ee0:	102b883a 	mov	r21,r2
 8003ee4:	000f883a 	mov	r7,zero
 8003ee8:	01800284 	movi	r6,10
 8003eec:	800b883a 	mov	r5,r16
 8003ef0:	e009883a 	mov	r4,fp
 8003ef4:	84c02026 	beq	r16,r19,8003f78 <_dtoa_r+0xf4c>
 8003ef8:	80051b80 	call	80051b8 <__multadd>
 8003efc:	980b883a 	mov	r5,r19
 8003f00:	000f883a 	mov	r7,zero
 8003f04:	01800284 	movi	r6,10
 8003f08:	e009883a 	mov	r4,fp
 8003f0c:	1021883a 	mov	r16,r2
 8003f10:	80051b80 	call	80051b8 <__multadd>
 8003f14:	1027883a 	mov	r19,r2
 8003f18:	b823883a 	mov	r17,r23
 8003f1c:	900b883a 	mov	r5,r18
 8003f20:	a809883a 	mov	r4,r21
 8003f24:	8002df80 	call	8002df8 <quorem>
 8003f28:	800b883a 	mov	r5,r16
 8003f2c:	a809883a 	mov	r4,r21
 8003f30:	102d883a 	mov	r22,r2
 8003f34:	80059f00 	call	80059f0 <__mcmp>
 8003f38:	980d883a 	mov	r6,r19
 8003f3c:	900b883a 	mov	r5,r18
 8003f40:	e009883a 	mov	r4,fp
 8003f44:	1029883a 	mov	r20,r2
 8003f48:	8005a480 	call	8005a48 <__mdiff>
 8003f4c:	102f883a 	mov	r23,r2
 8003f50:	10800317 	ldw	r2,12(r2)
 8003f54:	b2000c04 	addi	r8,r22,48
 8003f58:	103fc426 	beq	r2,zero,8003e6c <_dtoa_r+0xe40>
 8003f5c:	b80b883a 	mov	r5,r23
 8003f60:	e009883a 	mov	r4,fp
 8003f64:	da000115 	stw	r8,4(sp)
 8003f68:	80051940 	call	8005194 <_Bfree>
 8003f6c:	00800044 	movi	r2,1
 8003f70:	da000117 	ldw	r8,4(sp)
 8003f74:	003fca06 	br	8003ea0 <_dtoa_r+0xe74>
 8003f78:	80051b80 	call	80051b8 <__multadd>
 8003f7c:	1021883a 	mov	r16,r2
 8003f80:	1027883a 	mov	r19,r2
 8003f84:	003fe406 	br	8003f18 <_dtoa_r+0xeec>
 8003f88:	d8800217 	ldw	r2,8(sp)
 8003f8c:	108000d0 	cmplti	r2,r2,3
 8003f90:	10004b1e 	bne	r2,zero,80040c0 <_dtoa_r+0x1094>
 8003f94:	d8800617 	ldw	r2,24(sp)
 8003f98:	103e0d1e 	bne	r2,zero,80037d0 <_dtoa_r+0x7a4>
 8003f9c:	900b883a 	mov	r5,r18
 8003fa0:	e009883a 	mov	r4,fp
 8003fa4:	000f883a 	mov	r7,zero
 8003fa8:	01800144 	movi	r6,5
 8003fac:	80051b80 	call	80051b8 <__multadd>
 8003fb0:	100b883a 	mov	r5,r2
 8003fb4:	a809883a 	mov	r4,r21
 8003fb8:	1025883a 	mov	r18,r2
 8003fbc:	80059f00 	call	80059f0 <__mcmp>
 8003fc0:	00be030e 	bge	zero,r2,80037d0 <_dtoa_r+0x7a4>
 8003fc4:	d8c00317 	ldw	r3,12(sp)
 8003fc8:	00800c44 	movi	r2,49
 8003fcc:	18800005 	stb	r2,0(r3)
 8003fd0:	d8800417 	ldw	r2,16(sp)
 8003fd4:	1dc00044 	addi	r23,r3,1
 8003fd8:	14400044 	addi	r17,r2,1
 8003fdc:	900b883a 	mov	r5,r18
 8003fe0:	e009883a 	mov	r4,fp
 8003fe4:	80051940 	call	8005194 <_Bfree>
 8003fe8:	88800044 	addi	r2,r17,1
 8003fec:	d8800415 	stw	r2,16(sp)
 8003ff0:	803f121e 	bne	r16,zero,8003c3c <_dtoa_r+0xc10>
 8003ff4:	003d9f06 	br	8003674 <_dtoa_r+0x648>
 8003ff8:	900b883a 	mov	r5,r18
 8003ffc:	a809883a 	mov	r4,r21
 8004000:	80059f00 	call	80059f0 <__mcmp>
 8004004:	103ed10e 	bge	r2,zero,8003b4c <_dtoa_r+0xb20>
 8004008:	a80b883a 	mov	r5,r21
 800400c:	000f883a 	mov	r7,zero
 8004010:	01800284 	movi	r6,10
 8004014:	e009883a 	mov	r4,fp
 8004018:	80051b80 	call	80051b8 <__multadd>
 800401c:	102b883a 	mov	r21,r2
 8004020:	d8800417 	ldw	r2,16(sp)
 8004024:	153fffc4 	addi	r20,r2,-1
 8004028:	d8800717 	ldw	r2,28(sp)
 800402c:	103f771e 	bne	r2,zero,8003e0c <_dtoa_r+0xde0>
 8004030:	d8800b17 	ldw	r2,44(sp)
 8004034:	0081910e 	bge	zero,r2,800467c <_dtoa_r+0x1650>
 8004038:	d8800615 	stw	r2,24(sp)
 800403c:	003eca06 	br	8003b68 <_dtoa_r+0xb3c>
 8004040:	d9800817 	ldw	r6,32(sp)
 8004044:	a80b883a 	mov	r5,r21
 8004048:	e009883a 	mov	r4,fp
 800404c:	800578c0 	call	800578c <__pow5mult>
 8004050:	102b883a 	mov	r21,r2
 8004054:	003e9a06 	br	8003ac0 <_dtoa_r+0xa94>
 8004058:	00820074 	movhi	r2,2049
 800405c:	1007883a 	mov	r3,r2
 8004060:	18f72104 	addi	r3,r3,-9084
 8004064:	00820074 	movhi	r2,2049
 8004068:	d8c00315 	stw	r3,12(sp)
 800406c:	10b721c4 	addi	r2,r2,-9081
 8004070:	003da506 	br	8003708 <_dtoa_r+0x6dc>
 8004074:	d8800117 	ldw	r2,4(sp)
 8004078:	103e991e 	bne	r2,zero,8003ae0 <_dtoa_r+0xab4>
 800407c:	00800434 	movhi	r2,16
 8004080:	10bfffc4 	addi	r2,r2,-1
 8004084:	8884703a 	and	r2,r17,r2
 8004088:	103e951e 	bne	r2,zero,8003ae0 <_dtoa_r+0xab4>
 800408c:	8c5ffc2c 	andhi	r17,r17,32752
 8004090:	883e9326 	beq	r17,zero,8003ae0 <_dtoa_r+0xab4>
 8004094:	d8800517 	ldw	r2,20(sp)
 8004098:	a5000044 	addi	r20,r20,1
 800409c:	04400044 	movi	r17,1
 80040a0:	10800044 	addi	r2,r2,1
 80040a4:	d8800515 	stw	r2,20(sp)
 80040a8:	003e8e06 	br	8003ae4 <_dtoa_r+0xab8>
 80040ac:	00800044 	movi	r2,1
 80040b0:	04800044 	movi	r18,1
 80040b4:	d8800615 	stw	r2,24(sp)
 80040b8:	d8801e15 	stw	r2,120(sp)
 80040bc:	003ef406 	br	8003c90 <_dtoa_r+0xc64>
 80040c0:	d8800417 	ldw	r2,16(sp)
 80040c4:	10800044 	addi	r2,r2,1
 80040c8:	d8800415 	stw	r2,16(sp)
 80040cc:	d8800717 	ldw	r2,28(sp)
 80040d0:	103f571e 	bne	r2,zero,8003e30 <_dtoa_r+0xe04>
 80040d4:	900b883a 	mov	r5,r18
 80040d8:	a809883a 	mov	r4,r21
 80040dc:	8002df80 	call	8002df8 <quorem>
 80040e0:	12000c04 	addi	r8,r2,48
 80040e4:	d8800317 	ldw	r2,12(sp)
 80040e8:	0029883a 	mov	r20,zero
 80040ec:	15c00044 	addi	r23,r2,1
 80040f0:	12000005 	stb	r8,0(r2)
 80040f4:	003eb006 	br	8003bb8 <_dtoa_r+0xb8c>
 80040f8:	a005883a 	mov	r2,r20
 80040fc:	003e5506 	br	8003a54 <_dtoa_r+0xa28>
 8004100:	800b883a 	mov	r5,r16
 8004104:	980d883a 	mov	r6,r19
 8004108:	e009883a 	mov	r4,fp
 800410c:	80058b40 	call	80058b4 <__lshift>
 8004110:	1021883a 	mov	r16,r2
 8004114:	003f4706 	br	8003e34 <_dtoa_r+0xe08>
 8004118:	14a5c83a 	sub	r18,r2,r18
 800411c:	003e3e06 	br	8003a18 <_dtoa_r+0x9ec>
 8004120:	00820074 	movhi	r2,2049
 8004124:	10b73204 	addi	r2,r2,-9016
 8004128:	11800817 	ldw	r6,32(r2)
 800412c:	11c00917 	ldw	r7,36(r2)
 8004130:	d9000117 	ldw	r4,4(sp)
 8004134:	880b883a 	mov	r5,r17
 8004138:	da400e15 	stw	r9,56(sp)
 800413c:	da800d15 	stw	r10,52(sp)
 8004140:	80099a40 	call	80099a4 <__divdf3>
 8004144:	d8800c15 	stw	r2,48(sp)
 8004148:	1827883a 	mov	r19,r3
 800414c:	bdc003cc 	andi	r23,r23,15
 8004150:	040000c4 	movi	r16,3
 8004154:	da800d17 	ldw	r10,52(sp)
 8004158:	da400e17 	ldw	r9,56(sp)
 800415c:	003c9206 	br	80033a8 <_dtoa_r+0x37c>
 8004160:	d8000715 	stw	zero,28(sp)
 8004164:	003ed306 	br	8003cb4 <_dtoa_r+0xc88>
 8004168:	1000031e 	bne	r2,zero,8004178 <_dtoa_r+0x114c>
 800416c:	da000117 	ldw	r8,4(sp)
 8004170:	4200004c 	andi	r8,r8,1
 8004174:	403e9b1e 	bne	r8,zero,8003be4 <_dtoa_r+0xbb8>
 8004178:	1805883a 	mov	r2,r3
 800417c:	00000206 	br	8004188 <_dtoa_r+0x115c>
 8004180:	b8bfff83 	ldbu	r2,-2(r23)
 8004184:	182f883a 	mov	r23,r3
 8004188:	10803fcc 	andi	r2,r2,255
 800418c:	1080201c 	xori	r2,r2,128
 8004190:	10bfe004 	addi	r2,r2,-128
 8004194:	10800c18 	cmpnei	r2,r2,48
 8004198:	b8ffffc4 	addi	r3,r23,-1
 800419c:	103ff826 	beq	r2,zero,8004180 <_dtoa_r+0x1154>
 80041a0:	003e9d06 	br	8003c18 <_dtoa_r+0xbec>
 80041a4:	d8c00a17 	ldw	r3,40(sp)
 80041a8:	1800bc26 	beq	r3,zero,800449c <_dtoa_r+0x1470>
 80041ac:	d8c00517 	ldw	r3,20(sp)
 80041b0:	10810cc4 	addi	r2,r2,1075
 80041b4:	a0a9883a 	add	r20,r20,r2
 80041b8:	1885883a 	add	r2,r3,r2
 80041bc:	1827883a 	mov	r19,r3
 80041c0:	dc800817 	ldw	r18,32(sp)
 80041c4:	d8800515 	stw	r2,20(sp)
 80041c8:	003e1a06 	br	8003a34 <_dtoa_r+0xa08>
 80041cc:	d8c00317 	ldw	r3,12(sp)
 80041d0:	00800c44 	movi	r2,49
 80041d4:	18800005 	stb	r2,0(r3)
 80041d8:	d8800417 	ldw	r2,16(sp)
 80041dc:	10800044 	addi	r2,r2,1
 80041e0:	d8800415 	stw	r2,16(sp)
 80041e4:	003e8c06 	br	8003c18 <_dtoa_r+0xbec>
 80041e8:	8009883a 	mov	r4,r16
 80041ec:	800b7880 	call	800b788 <__floatsidf>
 80041f0:	900d883a 	mov	r6,r18
 80041f4:	980f883a 	mov	r7,r19
 80041f8:	1009883a 	mov	r4,r2
 80041fc:	180b883a 	mov	r5,r3
 8004200:	800a5680 	call	800a568 <__muldf3>
 8004204:	000d883a 	mov	r6,zero
 8004208:	01d00734 	movhi	r7,16412
 800420c:	1009883a 	mov	r4,r2
 8004210:	180b883a 	mov	r5,r3
 8004214:	80090040 	call	8009004 <__adddf3>
 8004218:	d8800c15 	stw	r2,48(sp)
 800421c:	00bf3034 	movhi	r2,64704
 8004220:	1885883a 	add	r2,r3,r2
 8004224:	d8800d15 	stw	r2,52(sp)
 8004228:	9009883a 	mov	r4,r18
 800422c:	980b883a 	mov	r5,r19
 8004230:	000d883a 	mov	r6,zero
 8004234:	01d00534 	movhi	r7,16404
 8004238:	800ad480 	call	800ad48 <__subdf3>
 800423c:	ddc00c17 	ldw	r23,48(sp)
 8004240:	dcc00d17 	ldw	r19,52(sp)
 8004244:	1009883a 	mov	r4,r2
 8004248:	b80d883a 	mov	r6,r23
 800424c:	980f883a 	mov	r7,r19
 8004250:	180b883a 	mov	r5,r3
 8004254:	1025883a 	mov	r18,r2
 8004258:	1821883a 	mov	r16,r3
 800425c:	800a3880 	call	800a388 <__gedf2>
 8004260:	0080ee16 	blt	zero,r2,800461c <_dtoa_r+0x15f0>
 8004264:	99e0003c 	xorhi	r7,r19,32768
 8004268:	b80d883a 	mov	r6,r23
 800426c:	9009883a 	mov	r4,r18
 8004270:	800b883a 	mov	r5,r16
 8004274:	800a4780 	call	800a478 <__ledf2>
 8004278:	103d380e 	bge	r2,zero,800375c <_dtoa_r+0x730>
 800427c:	0025883a 	mov	r18,zero
 8004280:	0021883a 	mov	r16,zero
 8004284:	003d5206 	br	80037d0 <_dtoa_r+0x7a4>
 8004288:	d8800417 	ldw	r2,16(sp)
 800428c:	1000ad1e 	bne	r2,zero,8004544 <_dtoa_r+0x1518>
 8004290:	dc800117 	ldw	r18,4(sp)
 8004294:	8827883a 	mov	r19,r17
 8004298:	04000084 	movi	r16,2
 800429c:	003c5b06 	br	800340c <_dtoa_r+0x3e0>
 80042a0:	d8800117 	ldw	r2,4(sp)
 80042a4:	103ecf1e 	bne	r2,zero,8003de4 <_dtoa_r+0xdb8>
 80042a8:	00800434 	movhi	r2,16
 80042ac:	10bfffc4 	addi	r2,r2,-1
 80042b0:	8884703a 	and	r2,r17,r2
 80042b4:	103f7526 	beq	r2,zero,800408c <_dtoa_r+0x1060>
 80042b8:	003eca06 	br	8003de4 <_dtoa_r+0xdb8>
 80042bc:	00800e0e 	bge	zero,r2,80042f8 <_dtoa_r+0x12cc>
 80042c0:	a80b883a 	mov	r5,r21
 80042c4:	01800044 	movi	r6,1
 80042c8:	e009883a 	mov	r4,fp
 80042cc:	da000115 	stw	r8,4(sp)
 80042d0:	80058b40 	call	80058b4 <__lshift>
 80042d4:	900b883a 	mov	r5,r18
 80042d8:	1009883a 	mov	r4,r2
 80042dc:	102b883a 	mov	r21,r2
 80042e0:	80059f00 	call	80059f0 <__mcmp>
 80042e4:	da000117 	ldw	r8,4(sp)
 80042e8:	0080d50e 	bge	zero,r2,8004640 <_dtoa_r+0x1614>
 80042ec:	42000e60 	cmpeqi	r8,r8,57
 80042f0:	4000c31e 	bne	r8,zero,8004600 <_dtoa_r+0x15d4>
 80042f4:	b2000c44 	addi	r8,r22,49
 80042f8:	8029883a 	mov	r20,r16
 80042fc:	8a000005 	stb	r8,0(r17)
 8004300:	9821883a 	mov	r16,r19
 8004304:	003e4406 	br	8003c18 <_dtoa_r+0xbec>
 8004308:	81400117 	ldw	r5,4(r16)
 800430c:	e009883a 	mov	r4,fp
 8004310:	80050f00 	call	80050f0 <_Balloc>
 8004314:	81800417 	ldw	r6,16(r16)
 8004318:	81400304 	addi	r5,r16,12
 800431c:	11000304 	addi	r4,r2,12
 8004320:	31800084 	addi	r6,r6,2
 8004324:	300c90ba 	slli	r6,r6,2
 8004328:	1023883a 	mov	r17,r2
 800432c:	8004ff00 	call	8004ff0 <memcpy>
 8004330:	01800044 	movi	r6,1
 8004334:	880b883a 	mov	r5,r17
 8004338:	e009883a 	mov	r4,fp
 800433c:	80058b40 	call	80058b4 <__lshift>
 8004340:	1027883a 	mov	r19,r2
 8004344:	003ebd06 	br	8003e3c <_dtoa_r+0xe10>
 8004348:	dd400117 	ldw	r21,4(sp)
 800434c:	003cc906 	br	8003674 <_dtoa_r+0x648>
 8004350:	d8800517 	ldw	r2,20(sp)
 8004354:	d8c00617 	ldw	r3,24(sp)
 8004358:	10e7c83a 	sub	r19,r2,r3
 800435c:	003db506 	br	8003a34 <_dtoa_r+0xa08>
 8004360:	40800e58 	cmpnei	r2,r8,57
 8004364:	1000a626 	beq	r2,zero,8004600 <_dtoa_r+0x15d4>
 8004368:	42000044 	addi	r8,r8,1
 800436c:	003fe206 	br	80042f8 <_dtoa_r+0x12cc>
 8004370:	8029883a 	mov	r20,r16
 8004374:	9821883a 	mov	r16,r19
 8004378:	003e0f06 	br	8003bb8 <_dtoa_r+0xb8c>
 800437c:	d9000c17 	ldw	r4,48(sp)
 8004380:	d9400d17 	ldw	r5,52(sp)
 8004384:	da401015 	stw	r9,64(sp)
 8004388:	800a5680 	call	800a568 <__muldf3>
 800438c:	d9000e17 	ldw	r4,56(sp)
 8004390:	d8c00d15 	stw	r3,52(sp)
 8004394:	da401017 	ldw	r9,64(sp)
 8004398:	d8c00317 	ldw	r3,12(sp)
 800439c:	d8800c15 	stw	r2,48(sp)
 80043a0:	20800058 	cmpnei	r2,r4,1
 80043a4:	1a400005 	stb	r9,0(r3)
 80043a8:	1907883a 	add	r3,r3,r4
 80043ac:	1809883a 	mov	r4,r3
 80043b0:	10001d26 	beq	r2,zero,8004428 <_dtoa_r+0x13fc>
 80043b4:	8007883a 	mov	r3,r16
 80043b8:	9005883a 	mov	r2,r18
 80043bc:	dc400e15 	stw	r17,56(sp)
 80043c0:	2021883a 	mov	r16,r4
 80043c4:	000d883a 	mov	r6,zero
 80043c8:	01d00934 	movhi	r7,16420
 80043cc:	1009883a 	mov	r4,r2
 80043d0:	180b883a 	mov	r5,r3
 80043d4:	800a5680 	call	800a568 <__muldf3>
 80043d8:	180b883a 	mov	r5,r3
 80043dc:	1009883a 	mov	r4,r2
 80043e0:	1825883a 	mov	r18,r3
 80043e4:	1023883a 	mov	r17,r2
 80043e8:	800b7080 	call	800b708 <__fixdfsi>
 80043ec:	1009883a 	mov	r4,r2
 80043f0:	1027883a 	mov	r19,r2
 80043f4:	800b7880 	call	800b788 <__floatsidf>
 80043f8:	100d883a 	mov	r6,r2
 80043fc:	180f883a 	mov	r7,r3
 8004400:	8809883a 	mov	r4,r17
 8004404:	900b883a 	mov	r5,r18
 8004408:	bdc00044 	addi	r23,r23,1
 800440c:	9cc00c04 	addi	r19,r19,48
 8004410:	800ad480 	call	800ad48 <__subdf3>
 8004414:	bcffffc5 	stb	r19,-1(r23)
 8004418:	bc3fea1e 	bne	r23,r16,80043c4 <_dtoa_r+0x1398>
 800441c:	dc400e17 	ldw	r17,56(sp)
 8004420:	1025883a 	mov	r18,r2
 8004424:	1821883a 	mov	r16,r3
 8004428:	d9000c17 	ldw	r4,48(sp)
 800442c:	d9400d17 	ldw	r5,52(sp)
 8004430:	000d883a 	mov	r6,zero
 8004434:	01cff834 	movhi	r7,16352
 8004438:	80090040 	call	8009004 <__adddf3>
 800443c:	100d883a 	mov	r6,r2
 8004440:	180f883a 	mov	r7,r3
 8004444:	9009883a 	mov	r4,r18
 8004448:	800b883a 	mov	r5,r16
 800444c:	800a3880 	call	800a388 <__gedf2>
 8004450:	00807516 	blt	zero,r2,8004628 <_dtoa_r+0x15fc>
 8004454:	d9800c17 	ldw	r6,48(sp)
 8004458:	d9c00d17 	ldw	r7,52(sp)
 800445c:	0009883a 	mov	r4,zero
 8004460:	014ff834 	movhi	r5,16352
 8004464:	800ad480 	call	800ad48 <__subdf3>
 8004468:	100d883a 	mov	r6,r2
 800446c:	180f883a 	mov	r7,r3
 8004470:	9009883a 	mov	r4,r18
 8004474:	800b883a 	mov	r5,r16
 8004478:	800a4780 	call	800a478 <__ledf2>
 800447c:	103cb70e 	bge	r2,zero,800375c <_dtoa_r+0x730>
 8004480:	00000106 	br	8004488 <_dtoa_r+0x145c>
 8004484:	182f883a 	mov	r23,r3
 8004488:	b8bfffc7 	ldb	r2,-1(r23)
 800448c:	b8ffffc4 	addi	r3,r23,-1
 8004490:	10800c20 	cmpeqi	r2,r2,48
 8004494:	103ffb1e 	bne	r2,zero,8004484 <_dtoa_r+0x1458>
 8004498:	003c7306 	br	8003668 <_dtoa_r+0x63c>
 800449c:	d8c01217 	ldw	r3,72(sp)
 80044a0:	d9000517 	ldw	r4,20(sp)
 80044a4:	00800d84 	movi	r2,54
 80044a8:	10c5c83a 	sub	r2,r2,r3
 80044ac:	a0a9883a 	add	r20,r20,r2
 80044b0:	2085883a 	add	r2,r4,r2
 80044b4:	2027883a 	mov	r19,r4
 80044b8:	dc800817 	ldw	r18,32(sp)
 80044bc:	d8800515 	stw	r2,20(sp)
 80044c0:	003d5c06 	br	8003a34 <_dtoa_r+0xa08>
 80044c4:	d8800617 	ldw	r2,24(sp)
 80044c8:	103f4726 	beq	r2,zero,80041e8 <_dtoa_r+0x11bc>
 80044cc:	ddc00b17 	ldw	r23,44(sp)
 80044d0:	05fca20e 	bge	zero,r23,800375c <_dtoa_r+0x730>
 80044d4:	980b883a 	mov	r5,r19
 80044d8:	000d883a 	mov	r6,zero
 80044dc:	01d00934 	movhi	r7,16420
 80044e0:	9009883a 	mov	r4,r18
 80044e4:	800a5680 	call	800a568 <__muldf3>
 80044e8:	81000044 	addi	r4,r16,1
 80044ec:	1025883a 	mov	r18,r2
 80044f0:	1827883a 	mov	r19,r3
 80044f4:	800b7880 	call	800b788 <__floatsidf>
 80044f8:	900d883a 	mov	r6,r18
 80044fc:	980f883a 	mov	r7,r19
 8004500:	1009883a 	mov	r4,r2
 8004504:	180b883a 	mov	r5,r3
 8004508:	800a5680 	call	800a568 <__muldf3>
 800450c:	000d883a 	mov	r6,zero
 8004510:	01d00734 	movhi	r7,16412
 8004514:	1009883a 	mov	r4,r2
 8004518:	180b883a 	mov	r5,r3
 800451c:	80090040 	call	8009004 <__adddf3>
 8004520:	d8800c15 	stw	r2,48(sp)
 8004524:	d8800417 	ldw	r2,16(sp)
 8004528:	ddc00e15 	stw	r23,56(sp)
 800452c:	10bfffc4 	addi	r2,r2,-1
 8004530:	d8800f15 	stw	r2,60(sp)
 8004534:	00bf3034 	movhi	r2,64704
 8004538:	1885883a 	add	r2,r3,r2
 800453c:	d8800d15 	stw	r2,52(sp)
 8004540:	003bd006 	br	8003484 <_dtoa_r+0x458>
 8004544:	d8800417 	ldw	r2,16(sp)
 8004548:	d9000117 	ldw	r4,4(sp)
 800454c:	880b883a 	mov	r5,r17
 8004550:	00afc83a 	sub	r23,zero,r2
 8004554:	b88003cc 	andi	r2,r23,15
 8004558:	100690fa 	slli	r3,r2,3
 800455c:	00820074 	movhi	r2,2049
 8004560:	10b73c04 	addi	r2,r2,-8976
 8004564:	10c5883a 	add	r2,r2,r3
 8004568:	11800017 	ldw	r6,0(r2)
 800456c:	11c00117 	ldw	r7,4(r2)
 8004570:	b82fd13a 	srai	r23,r23,4
 8004574:	800a5680 	call	800a568 <__muldf3>
 8004578:	1025883a 	mov	r18,r2
 800457c:	1827883a 	mov	r19,r3
 8004580:	b8004a26 	beq	r23,zero,80046ac <_dtoa_r+0x1680>
 8004584:	02020074 	movhi	r8,2049
 8004588:	04000084 	movi	r16,2
 800458c:	42373204 	addi	r8,r8,-9016
 8004590:	dc400c15 	stw	r17,48(sp)
 8004594:	000f883a 	mov	r7,zero
 8004598:	8023883a 	mov	r17,r16
 800459c:	4021883a 	mov	r16,r8
 80045a0:	b980004c 	andi	r6,r23,1
 80045a4:	1009883a 	mov	r4,r2
 80045a8:	b82fd07a 	srai	r23,r23,1
 80045ac:	180b883a 	mov	r5,r3
 80045b0:	30000526 	beq	r6,zero,80045c8 <_dtoa_r+0x159c>
 80045b4:	81c00117 	ldw	r7,4(r16)
 80045b8:	81800017 	ldw	r6,0(r16)
 80045bc:	8c400044 	addi	r17,r17,1
 80045c0:	800a5680 	call	800a568 <__muldf3>
 80045c4:	01c00044 	movi	r7,1
 80045c8:	84000204 	addi	r16,r16,8
 80045cc:	b83ff41e 	bne	r23,zero,80045a0 <_dtoa_r+0x1574>
 80045d0:	39c03fcc 	andi	r7,r7,255
 80045d4:	8821883a 	mov	r16,r17
 80045d8:	dc400c17 	ldw	r17,48(sp)
 80045dc:	383b8b26 	beq	r7,zero,800340c <_dtoa_r+0x3e0>
 80045e0:	1025883a 	mov	r18,r2
 80045e4:	1827883a 	mov	r19,r3
 80045e8:	003b8806 	br	800340c <_dtoa_r+0x3e0>
 80045ec:	d8800417 	ldw	r2,16(sp)
 80045f0:	02000c44 	movi	r8,49
 80045f4:	10800044 	addi	r2,r2,1
 80045f8:	d8800415 	stw	r2,16(sp)
 80045fc:	003cf606 	br	80039d8 <_dtoa_r+0x9ac>
 8004600:	00800e44 	movi	r2,57
 8004604:	8029883a 	mov	r20,r16
 8004608:	88800005 	stb	r2,0(r17)
 800460c:	9821883a 	mov	r16,r19
 8004610:	00c00e44 	movi	r3,57
 8004614:	d9400317 	ldw	r5,12(sp)
 8004618:	003d7706 	br	8003bf8 <_dtoa_r+0xbcc>
 800461c:	0025883a 	mov	r18,zero
 8004620:	0021883a 	mov	r16,zero
 8004624:	003e6706 	br	8003fc4 <_dtoa_r+0xf98>
 8004628:	d8800f17 	ldw	r2,60(sp)
 800462c:	ba3fffc3 	ldbu	r8,-1(r23)
 8004630:	d9000317 	ldw	r4,12(sp)
 8004634:	10800044 	addi	r2,r2,1
 8004638:	d8800415 	stw	r2,16(sp)
 800463c:	003cdf06 	br	80039bc <_dtoa_r+0x990>
 8004640:	103f2d1e 	bne	r2,zero,80042f8 <_dtoa_r+0x12cc>
 8004644:	4080004c 	andi	r2,r8,1
 8004648:	103f281e 	bne	r2,zero,80042ec <_dtoa_r+0x12c0>
 800464c:	003f2a06 	br	80042f8 <_dtoa_r+0x12cc>
 8004650:	d8800f17 	ldw	r2,60(sp)
 8004654:	8811883a 	mov	r8,r17
 8004658:	d9000317 	ldw	r4,12(sp)
 800465c:	10800044 	addi	r2,r2,1
 8004660:	d8800415 	stw	r2,16(sp)
 8004664:	003cd506 	br	80039bc <_dtoa_r+0x990>
 8004668:	40800e60 	cmpeqi	r2,r8,57
 800466c:	8dc00044 	addi	r23,r17,1
 8004670:	103fe31e 	bne	r2,zero,8004600 <_dtoa_r+0x15d4>
 8004674:	053f1f16 	blt	zero,r20,80042f4 <_dtoa_r+0x12c8>
 8004678:	003f1f06 	br	80042f8 <_dtoa_r+0x12cc>
 800467c:	d8800217 	ldw	r2,8(sp)
 8004680:	108000c8 	cmpgei	r2,r2,3
 8004684:	103e9326 	beq	r2,zero,80040d4 <_dtoa_r+0x10a8>
 8004688:	d8800b17 	ldw	r2,44(sp)
 800468c:	dd000415 	stw	r20,16(sp)
 8004690:	d8800615 	stw	r2,24(sp)
 8004694:	003e3f06 	br	8003f94 <_dtoa_r+0xf68>
 8004698:	d8800217 	ldw	r2,8(sp)
 800469c:	108000c8 	cmpgei	r2,r2,3
 80046a0:	103ff91e 	bne	r2,zero,8004688 <_dtoa_r+0x165c>
 80046a4:	d8800b17 	ldw	r2,44(sp)
 80046a8:	003de006 	br	8003e2c <_dtoa_r+0xe00>
 80046ac:	04000084 	movi	r16,2
 80046b0:	003b5606 	br	800340c <_dtoa_r+0x3e0>
 80046b4:	d8800f17 	ldw	r2,60(sp)
 80046b8:	d9000317 	ldw	r4,12(sp)
 80046bc:	10800044 	addi	r2,r2,1
 80046c0:	d8800415 	stw	r2,16(sp)
 80046c4:	003cbd06 	br	80039bc <_dtoa_r+0x990>
 80046c8:	00820074 	movhi	r2,2049
 80046cc:	10b72204 	addi	r2,r2,-9080
 80046d0:	d8800315 	stw	r2,12(sp)
 80046d4:	003a8706 	br	80030f4 <_dtoa_r+0xc8>
 80046d8:	000b883a 	mov	r5,zero
 80046dc:	003b1b06 	br	800334c <_dtoa_r+0x320>
 80046e0:	18c00120 	cmpeqi	r3,r3,4
 80046e4:	183d0f1e 	bne	r3,zero,8003b24 <_dtoa_r+0xaf8>
 80046e8:	00c00f04 	movi	r3,60
 80046ec:	1885c83a 	sub	r2,r3,r2
 80046f0:	003d0706 	br	8003b10 <_dtoa_r+0xae4>

080046f4 <__localeconv_l>:
 80046f4:	20803c04 	addi	r2,r4,240
 80046f8:	f800283a 	ret

080046fc <_localeconv_r>:
 80046fc:	00820074 	movhi	r2,2049
 8004700:	10bbc304 	addi	r2,r2,-4340
 8004704:	f800283a 	ret

08004708 <localeconv>:
 8004708:	00820074 	movhi	r2,2049
 800470c:	10bbc304 	addi	r2,r2,-4340
 8004710:	f800283a 	ret

08004714 <_malloc_r>:
 8004714:	defff604 	addi	sp,sp,-40
 8004718:	dc400115 	stw	r17,4(sp)
 800471c:	2c4002c4 	addi	r17,r5,11
 8004720:	dc800215 	stw	r18,8(sp)
 8004724:	dfc00915 	stw	ra,36(sp)
 8004728:	df000815 	stw	fp,32(sp)
 800472c:	ddc00715 	stw	r23,28(sp)
 8004730:	dd800615 	stw	r22,24(sp)
 8004734:	dd400515 	stw	r21,20(sp)
 8004738:	dd000415 	stw	r20,16(sp)
 800473c:	dcc00315 	stw	r19,12(sp)
 8004740:	dc000015 	stw	r16,0(sp)
 8004744:	888005e8 	cmpgeui	r2,r17,23
 8004748:	2025883a 	mov	r18,r4
 800474c:	10001b1e 	bne	r2,zero,80047bc <_malloc_r+0xa8>
 8004750:	29400468 	cmpgeui	r5,r5,17
 8004754:	2800951e 	bne	r5,zero,80049ac <_malloc_r+0x298>
 8004758:	800baa80 	call	800baa8 <__malloc_lock>
 800475c:	04400404 	movi	r17,16
 8004760:	00800604 	movi	r2,24
 8004764:	01800084 	movi	r6,2
 8004768:	04c20074 	movhi	r19,2049
 800476c:	9cfa8504 	addi	r19,r19,-5612
 8004770:	9885883a 	add	r2,r19,r2
 8004774:	14000117 	ldw	r16,4(r2)
 8004778:	10fffe04 	addi	r3,r2,-8
 800477c:	80c09e26 	beq	r16,r3,80049f8 <_malloc_r+0x2e4>
 8004780:	80800117 	ldw	r2,4(r16)
 8004784:	81000317 	ldw	r4,12(r16)
 8004788:	00ffff04 	movi	r3,-4
 800478c:	10c4703a 	and	r2,r2,r3
 8004790:	81400217 	ldw	r5,8(r16)
 8004794:	8085883a 	add	r2,r16,r2
 8004798:	10c00117 	ldw	r3,4(r2)
 800479c:	29000315 	stw	r4,12(r5)
 80047a0:	21400215 	stw	r5,8(r4)
 80047a4:	18c00054 	ori	r3,r3,1
 80047a8:	10c00115 	stw	r3,4(r2)
 80047ac:	9009883a 	mov	r4,r18
 80047b0:	800bacc0 	call	800bacc <__malloc_unlock>
 80047b4:	80800204 	addi	r2,r16,8
 80047b8:	00007f06 	br	80049b8 <_malloc_r+0x2a4>
 80047bc:	00bffe04 	movi	r2,-8
 80047c0:	88a2703a 	and	r17,r17,r2
 80047c4:	88007916 	blt	r17,zero,80049ac <_malloc_r+0x298>
 80047c8:	89407836 	bltu	r17,r5,80049ac <_malloc_r+0x298>
 80047cc:	800baa80 	call	800baa8 <__malloc_lock>
 80047d0:	88807e28 	cmpgeui	r2,r17,504
 80047d4:	10013326 	beq	r2,zero,8004ca4 <_malloc_r+0x590>
 80047d8:	8804d27a 	srli	r2,r17,9
 80047dc:	10008226 	beq	r2,zero,80049e8 <_malloc_r+0x2d4>
 80047e0:	10c00168 	cmpgeui	r3,r2,5
 80047e4:	1801151e 	bne	r3,zero,8004c3c <_malloc_r+0x528>
 80047e8:	8804d1ba 	srli	r2,r17,6
 80047ec:	11800e44 	addi	r6,r2,57
 80047f0:	300a90fa 	slli	r5,r6,3
 80047f4:	12000e04 	addi	r8,r2,56
 80047f8:	04c20074 	movhi	r19,2049
 80047fc:	9cfa8504 	addi	r19,r19,-5612
 8004800:	994b883a 	add	r5,r19,r5
 8004804:	2c000117 	ldw	r16,4(r5)
 8004808:	297ffe04 	addi	r5,r5,-8
 800480c:	2c001126 	beq	r5,r16,8004854 <_malloc_r+0x140>
 8004810:	80800117 	ldw	r2,4(r16)
 8004814:	00ffff04 	movi	r3,-4
 8004818:	10c4703a 	and	r2,r2,r3
 800481c:	1447c83a 	sub	r3,r2,r17
 8004820:	19000408 	cmpgei	r4,r3,16
 8004824:	2000e81e 	bne	r4,zero,8004bc8 <_malloc_r+0x4b4>
 8004828:	1800e90e 	bge	r3,zero,8004bd0 <_malloc_r+0x4bc>
 800482c:	01ffff04 	movi	r7,-4
 8004830:	00000606 	br	800484c <_malloc_r+0x138>
 8004834:	80800117 	ldw	r2,4(r16)
 8004838:	11c4703a 	and	r2,r2,r7
 800483c:	1447c83a 	sub	r3,r2,r17
 8004840:	19000408 	cmpgei	r4,r3,16
 8004844:	2000e01e 	bne	r4,zero,8004bc8 <_malloc_r+0x4b4>
 8004848:	1800e10e 	bge	r3,zero,8004bd0 <_malloc_r+0x4bc>
 800484c:	84000317 	ldw	r16,12(r16)
 8004850:	2c3ff81e 	bne	r5,r16,8004834 <_malloc_r+0x120>
 8004854:	9c000417 	ldw	r16,16(r19)
 8004858:	02020074 	movhi	r8,2049
 800485c:	423a8704 	addi	r8,r8,-5604
 8004860:	82006c26 	beq	r16,r8,8004a14 <_malloc_r+0x300>
 8004864:	80c00117 	ldw	r3,4(r16)
 8004868:	00bfff04 	movi	r2,-4
 800486c:	1884703a 	and	r2,r3,r2
 8004870:	1447c83a 	sub	r3,r2,r17
 8004874:	19000410 	cmplti	r4,r3,16
 8004878:	20011526 	beq	r4,zero,8004cd0 <_malloc_r+0x5bc>
 800487c:	9a000515 	stw	r8,20(r19)
 8004880:	9a000415 	stw	r8,16(r19)
 8004884:	18010a0e 	bge	r3,zero,8004cb0 <_malloc_r+0x59c>
 8004888:	10c08028 	cmpgeui	r3,r2,512
 800488c:	1800d21e 	bne	r3,zero,8004bd8 <_malloc_r+0x4c4>
 8004890:	1004d0fa 	srli	r2,r2,3
 8004894:	99400117 	ldw	r5,4(r19)
 8004898:	10c00044 	addi	r3,r2,1
 800489c:	1009d0ba 	srai	r4,r2,2
 80048a0:	180690fa 	slli	r3,r3,3
 80048a4:	00800044 	movi	r2,1
 80048a8:	1104983a 	sll	r2,r2,r4
 80048ac:	98c7883a 	add	r3,r19,r3
 80048b0:	19000017 	ldw	r4,0(r3)
 80048b4:	1144b03a 	or	r2,r2,r5
 80048b8:	197ffe04 	addi	r5,r3,-8
 80048bc:	81400315 	stw	r5,12(r16)
 80048c0:	81000215 	stw	r4,8(r16)
 80048c4:	98800115 	stw	r2,4(r19)
 80048c8:	1c000015 	stw	r16,0(r3)
 80048cc:	24000315 	stw	r16,12(r4)
 80048d0:	3007d0ba 	srai	r3,r6,2
 80048d4:	01000044 	movi	r4,1
 80048d8:	20c8983a 	sll	r4,r4,r3
 80048dc:	11005236 	bltu	r2,r4,8004a28 <_malloc_r+0x314>
 80048e0:	2086703a 	and	r3,r4,r2
 80048e4:	18000a1e 	bne	r3,zero,8004910 <_malloc_r+0x1fc>
 80048e8:	00ffff04 	movi	r3,-4
 80048ec:	2109883a 	add	r4,r4,r4
 80048f0:	30cc703a 	and	r6,r6,r3
 80048f4:	2086703a 	and	r3,r4,r2
 80048f8:	31800104 	addi	r6,r6,4
 80048fc:	1800041e 	bne	r3,zero,8004910 <_malloc_r+0x1fc>
 8004900:	2109883a 	add	r4,r4,r4
 8004904:	2086703a 	and	r3,r4,r2
 8004908:	31800104 	addi	r6,r6,4
 800490c:	183ffc26 	beq	r3,zero,8004900 <_malloc_r+0x1ec>
 8004910:	027fff04 	movi	r9,-4
 8004914:	301490fa 	slli	r10,r6,3
 8004918:	3017883a 	mov	r11,r6
 800491c:	9a95883a 	add	r10,r19,r10
 8004920:	500f883a 	mov	r7,r10
 8004924:	3c000317 	ldw	r16,12(r7)
 8004928:	3c00cd26 	beq	r7,r16,8004c60 <_malloc_r+0x54c>
 800492c:	80800117 	ldw	r2,4(r16)
 8004930:	1244703a 	and	r2,r2,r9
 8004934:	1447c83a 	sub	r3,r2,r17
 8004938:	19400408 	cmpgei	r5,r3,16
 800493c:	2800081e 	bne	r5,zero,8004960 <_malloc_r+0x24c>
 8004940:	1800cc0e 	bge	r3,zero,8004c74 <_malloc_r+0x560>
 8004944:	84000317 	ldw	r16,12(r16)
 8004948:	3c00c526 	beq	r7,r16,8004c60 <_malloc_r+0x54c>
 800494c:	80800117 	ldw	r2,4(r16)
 8004950:	1244703a 	and	r2,r2,r9
 8004954:	1447c83a 	sub	r3,r2,r17
 8004958:	19400410 	cmplti	r5,r3,16
 800495c:	283ff81e 	bne	r5,zero,8004940 <_malloc_r+0x22c>
 8004960:	81000317 	ldw	r4,12(r16)
 8004964:	81400217 	ldw	r5,8(r16)
 8004968:	89800054 	ori	r6,r17,1
 800496c:	81800115 	stw	r6,4(r16)
 8004970:	29000315 	stw	r4,12(r5)
 8004974:	21400215 	stw	r5,8(r4)
 8004978:	8463883a 	add	r17,r16,r17
 800497c:	9c400515 	stw	r17,20(r19)
 8004980:	9c400415 	stw	r17,16(r19)
 8004984:	19000054 	ori	r4,r3,1
 8004988:	89000115 	stw	r4,4(r17)
 800498c:	8085883a 	add	r2,r16,r2
 8004990:	8a000315 	stw	r8,12(r17)
 8004994:	8a000215 	stw	r8,8(r17)
 8004998:	10c00015 	stw	r3,0(r2)
 800499c:	9009883a 	mov	r4,r18
 80049a0:	800bacc0 	call	800bacc <__malloc_unlock>
 80049a4:	80800204 	addi	r2,r16,8
 80049a8:	00000306 	br	80049b8 <_malloc_r+0x2a4>
 80049ac:	00800304 	movi	r2,12
 80049b0:	90800015 	stw	r2,0(r18)
 80049b4:	0005883a 	mov	r2,zero
 80049b8:	dfc00917 	ldw	ra,36(sp)
 80049bc:	df000817 	ldw	fp,32(sp)
 80049c0:	ddc00717 	ldw	r23,28(sp)
 80049c4:	dd800617 	ldw	r22,24(sp)
 80049c8:	dd400517 	ldw	r21,20(sp)
 80049cc:	dd000417 	ldw	r20,16(sp)
 80049d0:	dcc00317 	ldw	r19,12(sp)
 80049d4:	dc800217 	ldw	r18,8(sp)
 80049d8:	dc400117 	ldw	r17,4(sp)
 80049dc:	dc000017 	ldw	r16,0(sp)
 80049e0:	dec00a04 	addi	sp,sp,40
 80049e4:	f800283a 	ret
 80049e8:	01408004 	movi	r5,512
 80049ec:	01801004 	movi	r6,64
 80049f0:	02000fc4 	movi	r8,63
 80049f4:	003f8006 	br	80047f8 <_malloc_r+0xe4>
 80049f8:	14000317 	ldw	r16,12(r2)
 80049fc:	31800084 	addi	r6,r6,2
 8004a00:	143f5f1e 	bne	r2,r16,8004780 <_malloc_r+0x6c>
 8004a04:	9c000417 	ldw	r16,16(r19)
 8004a08:	02020074 	movhi	r8,2049
 8004a0c:	423a8704 	addi	r8,r8,-5604
 8004a10:	823f941e 	bne	r16,r8,8004864 <_malloc_r+0x150>
 8004a14:	3007d0ba 	srai	r3,r6,2
 8004a18:	01000044 	movi	r4,1
 8004a1c:	98800117 	ldw	r2,4(r19)
 8004a20:	20c8983a 	sll	r4,r4,r3
 8004a24:	113fae2e 	bgeu	r2,r4,80048e0 <_malloc_r+0x1cc>
 8004a28:	9c000217 	ldw	r16,8(r19)
 8004a2c:	00bfff04 	movi	r2,-4
 8004a30:	85000117 	ldw	r20,4(r16)
 8004a34:	a0ac703a 	and	r22,r20,r2
 8004a38:	b4400336 	bltu	r22,r17,8004a48 <_malloc_r+0x334>
 8004a3c:	b445c83a 	sub	r2,r22,r17
 8004a40:	10c00408 	cmpgei	r3,r2,16
 8004a44:	1800561e 	bne	r3,zero,8004ba0 <_malloc_r+0x48c>
 8004a48:	00820074 	movhi	r2,2049
 8004a4c:	10806917 	ldw	r2,420(r2)
 8004a50:	00c20074 	movhi	r3,2049
 8004a54:	1d088417 	ldw	r20,8720(r3)
 8004a58:	10bfffd8 	cmpnei	r2,r2,-1
 8004a5c:	85ab883a 	add	r21,r16,r22
 8004a60:	8d29883a 	add	r20,r17,r20
 8004a64:	1000c826 	beq	r2,zero,8004d88 <_malloc_r+0x674>
 8004a68:	a50403c4 	addi	r20,r20,4111
 8004a6c:	00bc0004 	movi	r2,-4096
 8004a70:	a0a8703a 	and	r20,r20,r2
 8004a74:	a00b883a 	mov	r5,r20
 8004a78:	9009883a 	mov	r4,r18
 8004a7c:	80060a40 	call	80060a4 <_sbrk_r>
 8004a80:	102f883a 	mov	r23,r2
 8004a84:	10bfffd8 	cmpnei	r2,r2,-1
 8004a88:	10009a26 	beq	r2,zero,8004cf4 <_malloc_r+0x5e0>
 8004a8c:	bd409836 	bltu	r23,r21,8004cf0 <_malloc_r+0x5dc>
 8004a90:	00820074 	movhi	r2,2049
 8004a94:	10888e17 	ldw	r2,8760(r2)
 8004a98:	00c20074 	movhi	r3,2049
 8004a9c:	a085883a 	add	r2,r20,r2
 8004aa0:	18888e15 	stw	r2,8760(r3)
 8004aa4:	1007883a 	mov	r3,r2
 8004aa8:	adc0dd26 	beq	r21,r23,8004e20 <_malloc_r+0x70c>
 8004aac:	00820074 	movhi	r2,2049
 8004ab0:	10806917 	ldw	r2,420(r2)
 8004ab4:	10bfffd8 	cmpnei	r2,r2,-1
 8004ab8:	1000e026 	beq	r2,zero,8004e3c <_malloc_r+0x728>
 8004abc:	bd6bc83a 	sub	r21,r23,r21
 8004ac0:	a8c7883a 	add	r3,r21,r3
 8004ac4:	00820074 	movhi	r2,2049
 8004ac8:	10c88e15 	stw	r3,8760(r2)
 8004acc:	bf0001cc 	andi	fp,r23,7
 8004ad0:	e000b626 	beq	fp,zero,8004dac <_malloc_r+0x698>
 8004ad4:	bf2fc83a 	sub	r23,r23,fp
 8004ad8:	bdc00204 	addi	r23,r23,8
 8004adc:	00840204 	movi	r2,4104
 8004ae0:	1705c83a 	sub	r2,r2,fp
 8004ae4:	bd29883a 	add	r20,r23,r20
 8004ae8:	1505c83a 	sub	r2,r2,r20
 8004aec:	1543ffcc 	andi	r21,r2,4095
 8004af0:	a80b883a 	mov	r5,r21
 8004af4:	9009883a 	mov	r4,r18
 8004af8:	80060a40 	call	80060a4 <_sbrk_r>
 8004afc:	10ffffe0 	cmpeqi	r3,r2,-1
 8004b00:	1800e41e 	bne	r3,zero,8004e94 <_malloc_r+0x780>
 8004b04:	15c5c83a 	sub	r2,r2,r23
 8004b08:	1569883a 	add	r20,r2,r21
 8004b0c:	00820074 	movhi	r2,2049
 8004b10:	10888e17 	ldw	r2,8760(r2)
 8004b14:	9dc00215 	stw	r23,8(r19)
 8004b18:	a5000054 	ori	r20,r20,1
 8004b1c:	a885883a 	add	r2,r21,r2
 8004b20:	00c20074 	movhi	r3,2049
 8004b24:	18888e15 	stw	r2,8760(r3)
 8004b28:	bd000115 	stw	r20,4(r23)
 8004b2c:	84c0c626 	beq	r16,r19,8004e48 <_malloc_r+0x734>
 8004b30:	b0c00428 	cmpgeui	r3,r22,16
 8004b34:	1800c626 	beq	r3,zero,8004e50 <_malloc_r+0x73c>
 8004b38:	81000117 	ldw	r4,4(r16)
 8004b3c:	017ffe04 	movi	r5,-8
 8004b40:	b0fffd04 	addi	r3,r22,-12
 8004b44:	1946703a 	and	r3,r3,r5
 8004b48:	2100004c 	andi	r4,r4,1
 8004b4c:	20c8b03a 	or	r4,r4,r3
 8004b50:	81000115 	stw	r4,4(r16)
 8004b54:	01400144 	movi	r5,5
 8004b58:	80c9883a 	add	r4,r16,r3
 8004b5c:	21400115 	stw	r5,4(r4)
 8004b60:	21400215 	stw	r5,8(r4)
 8004b64:	18c00428 	cmpgeui	r3,r3,16
 8004b68:	1800cf1e 	bne	r3,zero,8004ea8 <_malloc_r+0x794>
 8004b6c:	bd000117 	ldw	r20,4(r23)
 8004b70:	b821883a 	mov	r16,r23
 8004b74:	00c20074 	movhi	r3,2049
 8004b78:	18c88317 	ldw	r3,8716(r3)
 8004b7c:	1880022e 	bgeu	r3,r2,8004b88 <_malloc_r+0x474>
 8004b80:	00c20074 	movhi	r3,2049
 8004b84:	18888315 	stw	r2,8716(r3)
 8004b88:	00c20074 	movhi	r3,2049
 8004b8c:	18c88217 	ldw	r3,8712(r3)
 8004b90:	18805a2e 	bgeu	r3,r2,8004cfc <_malloc_r+0x5e8>
 8004b94:	00c20074 	movhi	r3,2049
 8004b98:	18888215 	stw	r2,8712(r3)
 8004b9c:	00005706 	br	8004cfc <_malloc_r+0x5e8>
 8004ba0:	88c00054 	ori	r3,r17,1
 8004ba4:	80c00115 	stw	r3,4(r16)
 8004ba8:	8463883a 	add	r17,r16,r17
 8004bac:	10800054 	ori	r2,r2,1
 8004bb0:	9c400215 	stw	r17,8(r19)
 8004bb4:	88800115 	stw	r2,4(r17)
 8004bb8:	9009883a 	mov	r4,r18
 8004bbc:	800bacc0 	call	800bacc <__malloc_unlock>
 8004bc0:	80800204 	addi	r2,r16,8
 8004bc4:	003f7c06 	br	80049b8 <_malloc_r+0x2a4>
 8004bc8:	400d883a 	mov	r6,r8
 8004bcc:	003f2106 	br	8004854 <_malloc_r+0x140>
 8004bd0:	81000317 	ldw	r4,12(r16)
 8004bd4:	003eee06 	br	8004790 <_malloc_r+0x7c>
 8004bd8:	1006d27a 	srli	r3,r2,9
 8004bdc:	19000168 	cmpgeui	r4,r3,5
 8004be0:	20003e26 	beq	r4,zero,8004cdc <_malloc_r+0x5c8>
 8004be4:	19000568 	cmpgeui	r4,r3,21
 8004be8:	20007a1e 	bne	r4,zero,8004dd4 <_malloc_r+0x6c0>
 8004bec:	19401704 	addi	r5,r3,92
 8004bf0:	280a90fa 	slli	r5,r5,3
 8004bf4:	190016c4 	addi	r4,r3,91
 8004bf8:	994b883a 	add	r5,r19,r5
 8004bfc:	28c00017 	ldw	r3,0(r5)
 8004c00:	297ffe04 	addi	r5,r5,-8
 8004c04:	28c06226 	beq	r5,r3,8004d90 <_malloc_r+0x67c>
 8004c08:	01ffff04 	movi	r7,-4
 8004c0c:	19000117 	ldw	r4,4(r3)
 8004c10:	21c8703a 	and	r4,r4,r7
 8004c14:	1100022e 	bgeu	r2,r4,8004c20 <_malloc_r+0x50c>
 8004c18:	18c00217 	ldw	r3,8(r3)
 8004c1c:	28fffb1e 	bne	r5,r3,8004c0c <_malloc_r+0x4f8>
 8004c20:	19400317 	ldw	r5,12(r3)
 8004c24:	98800117 	ldw	r2,4(r19)
 8004c28:	81400315 	stw	r5,12(r16)
 8004c2c:	80c00215 	stw	r3,8(r16)
 8004c30:	2c000215 	stw	r16,8(r5)
 8004c34:	1c000315 	stw	r16,12(r3)
 8004c38:	003f2506 	br	80048d0 <_malloc_r+0x1bc>
 8004c3c:	10c00568 	cmpgeui	r3,r2,21
 8004c40:	18003826 	beq	r3,zero,8004d24 <_malloc_r+0x610>
 8004c44:	10c01568 	cmpgeui	r3,r2,85
 8004c48:	1800691e 	bne	r3,zero,8004df0 <_malloc_r+0x6dc>
 8004c4c:	8804d33a 	srli	r2,r17,12
 8004c50:	11801bc4 	addi	r6,r2,111
 8004c54:	12001b84 	addi	r8,r2,110
 8004c58:	300a90fa 	slli	r5,r6,3
 8004c5c:	003ee606 	br	80047f8 <_malloc_r+0xe4>
 8004c60:	5ac00044 	addi	r11,r11,1
 8004c64:	588000cc 	andi	r2,r11,3
 8004c68:	39c00204 	addi	r7,r7,8
 8004c6c:	103f2d1e 	bne	r2,zero,8004924 <_malloc_r+0x210>
 8004c70:	00003306 	br	8004d40 <_malloc_r+0x62c>
 8004c74:	8085883a 	add	r2,r16,r2
 8004c78:	10c00117 	ldw	r3,4(r2)
 8004c7c:	81000317 	ldw	r4,12(r16)
 8004c80:	81400217 	ldw	r5,8(r16)
 8004c84:	18c00054 	ori	r3,r3,1
 8004c88:	10c00115 	stw	r3,4(r2)
 8004c8c:	29000315 	stw	r4,12(r5)
 8004c90:	21400215 	stw	r5,8(r4)
 8004c94:	9009883a 	mov	r4,r18
 8004c98:	800bacc0 	call	800bacc <__malloc_unlock>
 8004c9c:	80800204 	addi	r2,r16,8
 8004ca0:	003f4506 	br	80049b8 <_malloc_r+0x2a4>
 8004ca4:	880cd0fa 	srli	r6,r17,3
 8004ca8:	88800204 	addi	r2,r17,8
 8004cac:	003eae06 	br	8004768 <_malloc_r+0x54>
 8004cb0:	8085883a 	add	r2,r16,r2
 8004cb4:	10c00117 	ldw	r3,4(r2)
 8004cb8:	9009883a 	mov	r4,r18
 8004cbc:	18c00054 	ori	r3,r3,1
 8004cc0:	10c00115 	stw	r3,4(r2)
 8004cc4:	800bacc0 	call	800bacc <__malloc_unlock>
 8004cc8:	80800204 	addi	r2,r16,8
 8004ccc:	003f3a06 	br	80049b8 <_malloc_r+0x2a4>
 8004cd0:	89000054 	ori	r4,r17,1
 8004cd4:	81000115 	stw	r4,4(r16)
 8004cd8:	003f2706 	br	8004978 <_malloc_r+0x264>
 8004cdc:	1006d1ba 	srli	r3,r2,6
 8004ce0:	19400e44 	addi	r5,r3,57
 8004ce4:	19000e04 	addi	r4,r3,56
 8004ce8:	280a90fa 	slli	r5,r5,3
 8004cec:	003fc206 	br	8004bf8 <_malloc_r+0x4e4>
 8004cf0:	84c04626 	beq	r16,r19,8004e0c <_malloc_r+0x6f8>
 8004cf4:	9c000217 	ldw	r16,8(r19)
 8004cf8:	85000117 	ldw	r20,4(r16)
 8004cfc:	00bfff04 	movi	r2,-4
 8004d00:	a0a8703a 	and	r20,r20,r2
 8004d04:	a445c83a 	sub	r2,r20,r17
 8004d08:	a4400236 	bltu	r20,r17,8004d14 <_malloc_r+0x600>
 8004d0c:	10c00408 	cmpgei	r3,r2,16
 8004d10:	183fa31e 	bne	r3,zero,8004ba0 <_malloc_r+0x48c>
 8004d14:	9009883a 	mov	r4,r18
 8004d18:	800bacc0 	call	800bacc <__malloc_unlock>
 8004d1c:	0005883a 	mov	r2,zero
 8004d20:	003f2506 	br	80049b8 <_malloc_r+0x2a4>
 8004d24:	11801704 	addi	r6,r2,92
 8004d28:	120016c4 	addi	r8,r2,91
 8004d2c:	300a90fa 	slli	r5,r6,3
 8004d30:	003eb106 	br	80047f8 <_malloc_r+0xe4>
 8004d34:	50800217 	ldw	r2,8(r10)
 8004d38:	31bfffc4 	addi	r6,r6,-1
 8004d3c:	1280701e 	bne	r2,r10,8004f00 <_malloc_r+0x7ec>
 8004d40:	308000cc 	andi	r2,r6,3
 8004d44:	52bffe04 	addi	r10,r10,-8
 8004d48:	103ffa1e 	bne	r2,zero,8004d34 <_malloc_r+0x620>
 8004d4c:	98c00117 	ldw	r3,4(r19)
 8004d50:	0104303a 	nor	r2,zero,r4
 8004d54:	10c4703a 	and	r2,r2,r3
 8004d58:	98800115 	stw	r2,4(r19)
 8004d5c:	2109883a 	add	r4,r4,r4
 8004d60:	113f3136 	bltu	r2,r4,8004a28 <_malloc_r+0x314>
 8004d64:	203f3026 	beq	r4,zero,8004a28 <_malloc_r+0x314>
 8004d68:	2086703a 	and	r3,r4,r2
 8004d6c:	1800041e 	bne	r3,zero,8004d80 <_malloc_r+0x66c>
 8004d70:	2109883a 	add	r4,r4,r4
 8004d74:	2086703a 	and	r3,r4,r2
 8004d78:	5ac00104 	addi	r11,r11,4
 8004d7c:	183ffc26 	beq	r3,zero,8004d70 <_malloc_r+0x65c>
 8004d80:	580d883a 	mov	r6,r11
 8004d84:	003ee306 	br	8004914 <_malloc_r+0x200>
 8004d88:	a5000404 	addi	r20,r20,16
 8004d8c:	003f3906 	br	8004a74 <_malloc_r+0x360>
 8004d90:	2009d0ba 	srai	r4,r4,2
 8004d94:	00800044 	movi	r2,1
 8004d98:	99c00117 	ldw	r7,4(r19)
 8004d9c:	1104983a 	sll	r2,r2,r4
 8004da0:	11c4b03a 	or	r2,r2,r7
 8004da4:	98800115 	stw	r2,4(r19)
 8004da8:	003f9f06 	br	8004c28 <_malloc_r+0x514>
 8004dac:	bd05883a 	add	r2,r23,r20
 8004db0:	0085c83a 	sub	r2,zero,r2
 8004db4:	1543ffcc 	andi	r21,r2,4095
 8004db8:	a80b883a 	mov	r5,r21
 8004dbc:	9009883a 	mov	r4,r18
 8004dc0:	80060a40 	call	80060a4 <_sbrk_r>
 8004dc4:	10ffffe0 	cmpeqi	r3,r2,-1
 8004dc8:	183f4e26 	beq	r3,zero,8004b04 <_malloc_r+0x3f0>
 8004dcc:	002b883a 	mov	r21,zero
 8004dd0:	003f4e06 	br	8004b0c <_malloc_r+0x3f8>
 8004dd4:	19001568 	cmpgeui	r4,r3,85
 8004dd8:	2000201e 	bne	r4,zero,8004e5c <_malloc_r+0x748>
 8004ddc:	1006d33a 	srli	r3,r2,12
 8004de0:	19401bc4 	addi	r5,r3,111
 8004de4:	19001b84 	addi	r4,r3,110
 8004de8:	280a90fa 	slli	r5,r5,3
 8004dec:	003f8206 	br	8004bf8 <_malloc_r+0x4e4>
 8004df0:	10c05568 	cmpgeui	r3,r2,341
 8004df4:	1800201e 	bne	r3,zero,8004e78 <_malloc_r+0x764>
 8004df8:	8804d3fa 	srli	r2,r17,15
 8004dfc:	11801e04 	addi	r6,r2,120
 8004e00:	12001dc4 	addi	r8,r2,119
 8004e04:	300a90fa 	slli	r5,r6,3
 8004e08:	003e7b06 	br	80047f8 <_malloc_r+0xe4>
 8004e0c:	00820074 	movhi	r2,2049
 8004e10:	10c88e17 	ldw	r3,8760(r2)
 8004e14:	a0c7883a 	add	r3,r20,r3
 8004e18:	10c88e15 	stw	r3,8760(r2)
 8004e1c:	003f2306 	br	8004aac <_malloc_r+0x398>
 8004e20:	a903ffcc 	andi	r4,r21,4095
 8004e24:	203f211e 	bne	r4,zero,8004aac <_malloc_r+0x398>
 8004e28:	9c000217 	ldw	r16,8(r19)
 8004e2c:	b529883a 	add	r20,r22,r20
 8004e30:	a5000054 	ori	r20,r20,1
 8004e34:	85000115 	stw	r20,4(r16)
 8004e38:	003f4e06 	br	8004b74 <_malloc_r+0x460>
 8004e3c:	00820074 	movhi	r2,2049
 8004e40:	15c06915 	stw	r23,420(r2)
 8004e44:	003f2106 	br	8004acc <_malloc_r+0x3b8>
 8004e48:	b821883a 	mov	r16,r23
 8004e4c:	003f4906 	br	8004b74 <_malloc_r+0x460>
 8004e50:	00800044 	movi	r2,1
 8004e54:	b8800115 	stw	r2,4(r23)
 8004e58:	003fae06 	br	8004d14 <_malloc_r+0x600>
 8004e5c:	19005568 	cmpgeui	r4,r3,341
 8004e60:	2000191e 	bne	r4,zero,8004ec8 <_malloc_r+0x7b4>
 8004e64:	1006d3fa 	srli	r3,r2,15
 8004e68:	19401e04 	addi	r5,r3,120
 8004e6c:	19001dc4 	addi	r4,r3,119
 8004e70:	280a90fa 	slli	r5,r5,3
 8004e74:	003f6006 	br	8004bf8 <_malloc_r+0x4e4>
 8004e78:	10815568 	cmpgeui	r2,r2,1365
 8004e7c:	1000191e 	bne	r2,zero,8004ee4 <_malloc_r+0x7d0>
 8004e80:	8804d4ba 	srli	r2,r17,18
 8004e84:	11801f44 	addi	r6,r2,125
 8004e88:	12001f04 	addi	r8,r2,124
 8004e8c:	300a90fa 	slli	r5,r6,3
 8004e90:	003e5906 	br	80047f8 <_malloc_r+0xe4>
 8004e94:	e73ffe04 	addi	fp,fp,-8
 8004e98:	a729883a 	add	r20,r20,fp
 8004e9c:	a5e9c83a 	sub	r20,r20,r23
 8004ea0:	002b883a 	mov	r21,zero
 8004ea4:	003f1906 	br	8004b0c <_malloc_r+0x3f8>
 8004ea8:	81400204 	addi	r5,r16,8
 8004eac:	9009883a 	mov	r4,r18
 8004eb0:	80075e00 	call	80075e0 <_free_r>
 8004eb4:	9c000217 	ldw	r16,8(r19)
 8004eb8:	00820074 	movhi	r2,2049
 8004ebc:	10888e17 	ldw	r2,8760(r2)
 8004ec0:	85000117 	ldw	r20,4(r16)
 8004ec4:	003f2b06 	br	8004b74 <_malloc_r+0x460>
 8004ec8:	18c15568 	cmpgeui	r3,r3,1365
 8004ecc:	1800091e 	bne	r3,zero,8004ef4 <_malloc_r+0x7e0>
 8004ed0:	1006d4ba 	srli	r3,r2,18
 8004ed4:	19401f44 	addi	r5,r3,125
 8004ed8:	19001f04 	addi	r4,r3,124
 8004edc:	280a90fa 	slli	r5,r5,3
 8004ee0:	003f4506 	br	8004bf8 <_malloc_r+0x4e4>
 8004ee4:	0140fe04 	movi	r5,1016
 8004ee8:	01801fc4 	movi	r6,127
 8004eec:	02001f84 	movi	r8,126
 8004ef0:	003e4106 	br	80047f8 <_malloc_r+0xe4>
 8004ef4:	0140fe04 	movi	r5,1016
 8004ef8:	01001f84 	movi	r4,126
 8004efc:	003f3e06 	br	8004bf8 <_malloc_r+0x4e4>
 8004f00:	98800117 	ldw	r2,4(r19)
 8004f04:	003f9506 	br	8004d5c <_malloc_r+0x648>

08004f08 <memchr>:
 8004f08:	208000cc 	andi	r2,r4,3
 8004f0c:	280f883a 	mov	r7,r5
 8004f10:	10003526 	beq	r2,zero,8004fe8 <memchr+0xe0>
 8004f14:	30bfffc4 	addi	r2,r6,-1
 8004f18:	30001926 	beq	r6,zero,8004f80 <memchr+0x78>
 8004f1c:	20c00003 	ldbu	r3,0(r4)
 8004f20:	29803fcc 	andi	r6,r5,255
 8004f24:	30c0061e 	bne	r6,r3,8004f40 <memchr+0x38>
 8004f28:	00001706 	br	8004f88 <memchr+0x80>
 8004f2c:	10bfffc4 	addi	r2,r2,-1
 8004f30:	10ffffe0 	cmpeqi	r3,r2,-1
 8004f34:	1800121e 	bne	r3,zero,8004f80 <memchr+0x78>
 8004f38:	20c00003 	ldbu	r3,0(r4)
 8004f3c:	19801226 	beq	r3,r6,8004f88 <memchr+0x80>
 8004f40:	21000044 	addi	r4,r4,1
 8004f44:	20c000cc 	andi	r3,r4,3
 8004f48:	183ff81e 	bne	r3,zero,8004f2c <memchr+0x24>
 8004f4c:	10c00128 	cmpgeui	r3,r2,4
 8004f50:	18000f1e 	bne	r3,zero,8004f90 <memchr+0x88>
 8004f54:	10000a26 	beq	r2,zero,8004f80 <memchr+0x78>
 8004f58:	20c00003 	ldbu	r3,0(r4)
 8004f5c:	29403fcc 	andi	r5,r5,255
 8004f60:	19400926 	beq	r3,r5,8004f88 <memchr+0x80>
 8004f64:	2085883a 	add	r2,r4,r2
 8004f68:	39403fcc 	andi	r5,r7,255
 8004f6c:	00000206 	br	8004f78 <memchr+0x70>
 8004f70:	20c00003 	ldbu	r3,0(r4)
 8004f74:	19400426 	beq	r3,r5,8004f88 <memchr+0x80>
 8004f78:	21000044 	addi	r4,r4,1
 8004f7c:	113ffc1e 	bne	r2,r4,8004f70 <memchr+0x68>
 8004f80:	0005883a 	mov	r2,zero
 8004f84:	f800283a 	ret
 8004f88:	2005883a 	mov	r2,r4
 8004f8c:	f800283a 	ret
 8004f90:	280c923a 	slli	r6,r5,8
 8004f94:	2a403fcc 	andi	r9,r5,255
 8004f98:	02bfbff4 	movhi	r10,65279
 8004f9c:	31bfffcc 	andi	r6,r6,65535
 8004fa0:	3246b03a 	or	r3,r6,r9
 8004fa4:	1812943a 	slli	r9,r3,16
 8004fa8:	02202074 	movhi	r8,32897
 8004fac:	52bfbfc4 	addi	r10,r10,-257
 8004fb0:	48d2b03a 	or	r9,r9,r3
 8004fb4:	42202004 	addi	r8,r8,-32640
 8004fb8:	20c00017 	ldw	r3,0(r4)
 8004fbc:	48c6f03a 	xor	r3,r9,r3
 8004fc0:	1a8d883a 	add	r6,r3,r10
 8004fc4:	00c6303a 	nor	r3,zero,r3
 8004fc8:	30c6703a 	and	r3,r6,r3
 8004fcc:	1a06703a 	and	r3,r3,r8
 8004fd0:	183fe11e 	bne	r3,zero,8004f58 <memchr+0x50>
 8004fd4:	10bfff04 	addi	r2,r2,-4
 8004fd8:	10c00128 	cmpgeui	r3,r2,4
 8004fdc:	21000104 	addi	r4,r4,4
 8004fe0:	183ff51e 	bne	r3,zero,8004fb8 <memchr+0xb0>
 8004fe4:	003fdb06 	br	8004f54 <memchr+0x4c>
 8004fe8:	3005883a 	mov	r2,r6
 8004fec:	003fd706 	br	8004f4c <memchr+0x44>

08004ff0 <memcpy>:
 8004ff0:	30c00430 	cmpltui	r3,r6,16
 8004ff4:	2005883a 	mov	r2,r4
 8004ff8:	18002d1e 	bne	r3,zero,80050b0 <memcpy+0xc0>
 8004ffc:	2906b03a 	or	r3,r5,r4
 8005000:	18c000cc 	andi	r3,r3,3
 8005004:	1800351e 	bne	r3,zero,80050dc <memcpy+0xec>
 8005008:	32fffc04 	addi	r11,r6,-16
 800500c:	5816d13a 	srli	r11,r11,4
 8005010:	2007883a 	mov	r3,r4
 8005014:	280f883a 	mov	r7,r5
 8005018:	5ac00044 	addi	r11,r11,1
 800501c:	5816913a 	slli	r11,r11,4
 8005020:	22c9883a 	add	r4,r4,r11
 8005024:	3a000017 	ldw	r8,0(r7)
 8005028:	3a800117 	ldw	r10,4(r7)
 800502c:	3a400217 	ldw	r9,8(r7)
 8005030:	39c00404 	addi	r7,r7,16
 8005034:	1a000015 	stw	r8,0(r3)
 8005038:	3a3fff17 	ldw	r8,-4(r7)
 800503c:	1a800115 	stw	r10,4(r3)
 8005040:	1a400215 	stw	r9,8(r3)
 8005044:	18c00404 	addi	r3,r3,16
 8005048:	1a3fff15 	stw	r8,-4(r3)
 800504c:	20fff51e 	bne	r4,r3,8005024 <memcpy+0x34>
 8005050:	3100030c 	andi	r4,r6,12
 8005054:	2acb883a 	add	r5,r5,r11
 8005058:	320003cc 	andi	r8,r6,15
 800505c:	20002226 	beq	r4,zero,80050e8 <memcpy+0xf8>
 8005060:	2809883a 	mov	r4,r5
 8005064:	1813883a 	mov	r9,r3
 8005068:	21000104 	addi	r4,r4,4
 800506c:	22bfff17 	ldw	r10,-4(r4)
 8005070:	410fc83a 	sub	r7,r8,r4
 8005074:	4a400104 	addi	r9,r9,4
 8005078:	29cf883a 	add	r7,r5,r7
 800507c:	4abfff15 	stw	r10,-4(r9)
 8005080:	39c00128 	cmpgeui	r7,r7,4
 8005084:	383ff81e 	bne	r7,zero,8005068 <memcpy+0x78>
 8005088:	413fff04 	addi	r4,r8,-4
 800508c:	2008d0ba 	srli	r4,r4,2
 8005090:	318000cc 	andi	r6,r6,3
 8005094:	31ffffc4 	addi	r7,r6,-1
 8005098:	21000044 	addi	r4,r4,1
 800509c:	200890ba 	slli	r4,r4,2
 80050a0:	1907883a 	add	r3,r3,r4
 80050a4:	290b883a 	add	r5,r5,r4
 80050a8:	3000041e 	bne	r6,zero,80050bc <memcpy+0xcc>
 80050ac:	f800283a 	ret
 80050b0:	2007883a 	mov	r3,r4
 80050b4:	31ffffc4 	addi	r7,r6,-1
 80050b8:	303ffc26 	beq	r6,zero,80050ac <memcpy+0xbc>
 80050bc:	39c00044 	addi	r7,r7,1
 80050c0:	19cf883a 	add	r7,r3,r7
 80050c4:	29400044 	addi	r5,r5,1
 80050c8:	29bfffc3 	ldbu	r6,-1(r5)
 80050cc:	18c00044 	addi	r3,r3,1
 80050d0:	19bfffc5 	stb	r6,-1(r3)
 80050d4:	19fffb1e 	bne	r3,r7,80050c4 <memcpy+0xd4>
 80050d8:	f800283a 	ret
 80050dc:	31ffffc4 	addi	r7,r6,-1
 80050e0:	2007883a 	mov	r3,r4
 80050e4:	003ff506 	br	80050bc <memcpy+0xcc>
 80050e8:	400d883a 	mov	r6,r8
 80050ec:	003ff106 	br	80050b4 <memcpy+0xc4>

080050f0 <_Balloc>:
 80050f0:	20801317 	ldw	r2,76(r4)
 80050f4:	defffc04 	addi	sp,sp,-16
 80050f8:	dc400115 	stw	r17,4(sp)
 80050fc:	dc000015 	stw	r16,0(sp)
 8005100:	dfc00315 	stw	ra,12(sp)
 8005104:	dc800215 	stw	r18,8(sp)
 8005108:	2021883a 	mov	r16,r4
 800510c:	2823883a 	mov	r17,r5
 8005110:	10000e26 	beq	r2,zero,800514c <_Balloc+0x5c>
 8005114:	880690ba 	slli	r3,r17,2
 8005118:	10c7883a 	add	r3,r2,r3
 800511c:	18800017 	ldw	r2,0(r3)
 8005120:	10001126 	beq	r2,zero,8005168 <_Balloc+0x78>
 8005124:	11000017 	ldw	r4,0(r2)
 8005128:	19000015 	stw	r4,0(r3)
 800512c:	10000415 	stw	zero,16(r2)
 8005130:	10000315 	stw	zero,12(r2)
 8005134:	dfc00317 	ldw	ra,12(sp)
 8005138:	dc800217 	ldw	r18,8(sp)
 800513c:	dc400117 	ldw	r17,4(sp)
 8005140:	dc000017 	ldw	r16,0(sp)
 8005144:	dec00404 	addi	sp,sp,16
 8005148:	f800283a 	ret
 800514c:	01800844 	movi	r6,33
 8005150:	01400104 	movi	r5,4
 8005154:	80073f80 	call	80073f8 <_calloc_r>
 8005158:	80801315 	stw	r2,76(r16)
 800515c:	103fed1e 	bne	r2,zero,8005114 <_Balloc+0x24>
 8005160:	0005883a 	mov	r2,zero
 8005164:	003ff306 	br	8005134 <_Balloc+0x44>
 8005168:	04800044 	movi	r18,1
 800516c:	9464983a 	sll	r18,r18,r17
 8005170:	01400044 	movi	r5,1
 8005174:	8009883a 	mov	r4,r16
 8005178:	91800144 	addi	r6,r18,5
 800517c:	300c90ba 	slli	r6,r6,2
 8005180:	80073f80 	call	80073f8 <_calloc_r>
 8005184:	103ff626 	beq	r2,zero,8005160 <_Balloc+0x70>
 8005188:	14400115 	stw	r17,4(r2)
 800518c:	14800215 	stw	r18,8(r2)
 8005190:	003fe606 	br	800512c <_Balloc+0x3c>

08005194 <_Bfree>:
 8005194:	28000726 	beq	r5,zero,80051b4 <_Bfree+0x20>
 8005198:	28c00117 	ldw	r3,4(r5)
 800519c:	20801317 	ldw	r2,76(r4)
 80051a0:	180690ba 	slli	r3,r3,2
 80051a4:	10c5883a 	add	r2,r2,r3
 80051a8:	10c00017 	ldw	r3,0(r2)
 80051ac:	28c00015 	stw	r3,0(r5)
 80051b0:	11400015 	stw	r5,0(r2)
 80051b4:	f800283a 	ret

080051b8 <__multadd>:
 80051b8:	defff704 	addi	sp,sp,-36
 80051bc:	dcc00315 	stw	r19,12(sp)
 80051c0:	2cc00417 	ldw	r19,16(r5)
 80051c4:	ddc00715 	stw	r23,28(sp)
 80051c8:	dd800615 	stw	r22,24(sp)
 80051cc:	dd400515 	stw	r21,20(sp)
 80051d0:	dd000415 	stw	r20,16(sp)
 80051d4:	dc800215 	stw	r18,8(sp)
 80051d8:	dc400115 	stw	r17,4(sp)
 80051dc:	dfc00815 	stw	ra,32(sp)
 80051e0:	dc000015 	stw	r16,0(sp)
 80051e4:	2829883a 	mov	r20,r5
 80051e8:	202b883a 	mov	r21,r4
 80051ec:	3025883a 	mov	r18,r6
 80051f0:	3823883a 	mov	r17,r7
 80051f4:	2d800504 	addi	r22,r5,20
 80051f8:	002f883a 	mov	r23,zero
 80051fc:	b4000017 	ldw	r16,0(r22)
 8005200:	900b883a 	mov	r5,r18
 8005204:	b5800104 	addi	r22,r22,4
 8005208:	813fffcc 	andi	r4,r16,65535
 800520c:	8000acc0 	call	8000acc <__mulsi3>
 8005210:	8008d43a 	srli	r4,r16,16
 8005214:	900b883a 	mov	r5,r18
 8005218:	1461883a 	add	r16,r2,r17
 800521c:	8000acc0 	call	8000acc <__mulsi3>
 8005220:	800ed43a 	srli	r7,r16,16
 8005224:	843fffcc 	andi	r16,r16,65535
 8005228:	bdc00044 	addi	r23,r23,1
 800522c:	11c5883a 	add	r2,r2,r7
 8005230:	1006943a 	slli	r3,r2,16
 8005234:	1022d43a 	srli	r17,r2,16
 8005238:	1c21883a 	add	r16,r3,r16
 800523c:	b43fff15 	stw	r16,-4(r22)
 8005240:	bcffee16 	blt	r23,r19,80051fc <__multadd+0x44>
 8005244:	88000826 	beq	r17,zero,8005268 <__multadd+0xb0>
 8005248:	a0800217 	ldw	r2,8(r20)
 800524c:	9880120e 	bge	r19,r2,8005298 <__multadd+0xe0>
 8005250:	98800144 	addi	r2,r19,5
 8005254:	100490ba 	slli	r2,r2,2
 8005258:	9cc00044 	addi	r19,r19,1
 800525c:	a085883a 	add	r2,r20,r2
 8005260:	14400015 	stw	r17,0(r2)
 8005264:	a4c00415 	stw	r19,16(r20)
 8005268:	a005883a 	mov	r2,r20
 800526c:	dfc00817 	ldw	ra,32(sp)
 8005270:	ddc00717 	ldw	r23,28(sp)
 8005274:	dd800617 	ldw	r22,24(sp)
 8005278:	dd400517 	ldw	r21,20(sp)
 800527c:	dd000417 	ldw	r20,16(sp)
 8005280:	dcc00317 	ldw	r19,12(sp)
 8005284:	dc800217 	ldw	r18,8(sp)
 8005288:	dc400117 	ldw	r17,4(sp)
 800528c:	dc000017 	ldw	r16,0(sp)
 8005290:	dec00904 	addi	sp,sp,36
 8005294:	f800283a 	ret
 8005298:	a1400117 	ldw	r5,4(r20)
 800529c:	a809883a 	mov	r4,r21
 80052a0:	29400044 	addi	r5,r5,1
 80052a4:	80050f00 	call	80050f0 <_Balloc>
 80052a8:	a1800417 	ldw	r6,16(r20)
 80052ac:	a1400304 	addi	r5,r20,12
 80052b0:	11000304 	addi	r4,r2,12
 80052b4:	31800084 	addi	r6,r6,2
 80052b8:	300c90ba 	slli	r6,r6,2
 80052bc:	1021883a 	mov	r16,r2
 80052c0:	8004ff00 	call	8004ff0 <memcpy>
 80052c4:	a0000926 	beq	r20,zero,80052ec <__multadd+0x134>
 80052c8:	a0c00117 	ldw	r3,4(r20)
 80052cc:	a8801317 	ldw	r2,76(r21)
 80052d0:	180690ba 	slli	r3,r3,2
 80052d4:	10c5883a 	add	r2,r2,r3
 80052d8:	10c00017 	ldw	r3,0(r2)
 80052dc:	a0c00015 	stw	r3,0(r20)
 80052e0:	15000015 	stw	r20,0(r2)
 80052e4:	8029883a 	mov	r20,r16
 80052e8:	003fd906 	br	8005250 <__multadd+0x98>
 80052ec:	8029883a 	mov	r20,r16
 80052f0:	003fd706 	br	8005250 <__multadd+0x98>

080052f4 <__s2b>:
 80052f4:	defff904 	addi	sp,sp,-28
 80052f8:	dc800215 	stw	r18,8(sp)
 80052fc:	dc000015 	stw	r16,0(sp)
 8005300:	2025883a 	mov	r18,r4
 8005304:	2821883a 	mov	r16,r5
 8005308:	39000204 	addi	r4,r7,8
 800530c:	01400244 	movi	r5,9
 8005310:	dcc00315 	stw	r19,12(sp)
 8005314:	dc400115 	stw	r17,4(sp)
 8005318:	dfc00615 	stw	ra,24(sp)
 800531c:	3823883a 	mov	r17,r7
 8005320:	dd400515 	stw	r21,20(sp)
 8005324:	dd000415 	stw	r20,16(sp)
 8005328:	3027883a 	mov	r19,r6
 800532c:	80009140 	call	8000914 <__divsi3>
 8005330:	88c00290 	cmplti	r3,r17,10
 8005334:	1800311e 	bne	r3,zero,80053fc <__s2b+0x108>
 8005338:	00c00044 	movi	r3,1
 800533c:	000b883a 	mov	r5,zero
 8005340:	18c7883a 	add	r3,r3,r3
 8005344:	29400044 	addi	r5,r5,1
 8005348:	18bffd16 	blt	r3,r2,8005340 <__s2b+0x4c>
 800534c:	9009883a 	mov	r4,r18
 8005350:	80050f00 	call	80050f0 <_Balloc>
 8005354:	d8c00717 	ldw	r3,28(sp)
 8005358:	10c00515 	stw	r3,20(r2)
 800535c:	00c00044 	movi	r3,1
 8005360:	10c00415 	stw	r3,16(r2)
 8005364:	98c00290 	cmplti	r3,r19,10
 8005368:	1800211e 	bne	r3,zero,80053f0 <__s2b+0xfc>
 800536c:	85400244 	addi	r21,r16,9
 8005370:	84e9883a 	add	r20,r16,r19
 8005374:	a821883a 	mov	r16,r21
 8005378:	84000044 	addi	r16,r16,1
 800537c:	81ffffc7 	ldb	r7,-1(r16)
 8005380:	01800284 	movi	r6,10
 8005384:	100b883a 	mov	r5,r2
 8005388:	39fff404 	addi	r7,r7,-48
 800538c:	9009883a 	mov	r4,r18
 8005390:	80051b80 	call	80051b8 <__multadd>
 8005394:	a43ff81e 	bne	r20,r16,8005378 <__s2b+0x84>
 8005398:	9c3ffe04 	addi	r16,r19,-8
 800539c:	ac21883a 	add	r16,r21,r16
 80053a0:	9c400a0e 	bge	r19,r17,80053cc <__s2b+0xd8>
 80053a4:	8ce3c83a 	sub	r17,r17,r19
 80053a8:	8463883a 	add	r17,r16,r17
 80053ac:	84000044 	addi	r16,r16,1
 80053b0:	81ffffc7 	ldb	r7,-1(r16)
 80053b4:	01800284 	movi	r6,10
 80053b8:	100b883a 	mov	r5,r2
 80053bc:	39fff404 	addi	r7,r7,-48
 80053c0:	9009883a 	mov	r4,r18
 80053c4:	80051b80 	call	80051b8 <__multadd>
 80053c8:	8c3ff81e 	bne	r17,r16,80053ac <__s2b+0xb8>
 80053cc:	dfc00617 	ldw	ra,24(sp)
 80053d0:	dd400517 	ldw	r21,20(sp)
 80053d4:	dd000417 	ldw	r20,16(sp)
 80053d8:	dcc00317 	ldw	r19,12(sp)
 80053dc:	dc800217 	ldw	r18,8(sp)
 80053e0:	dc400117 	ldw	r17,4(sp)
 80053e4:	dc000017 	ldw	r16,0(sp)
 80053e8:	dec00704 	addi	sp,sp,28
 80053ec:	f800283a 	ret
 80053f0:	84000284 	addi	r16,r16,10
 80053f4:	04c00244 	movi	r19,9
 80053f8:	003fe906 	br	80053a0 <__s2b+0xac>
 80053fc:	000b883a 	mov	r5,zero
 8005400:	003fd206 	br	800534c <__s2b+0x58>

08005404 <__hi0bits>:
 8005404:	20bfffec 	andhi	r2,r4,65535
 8005408:	1000131e 	bne	r2,zero,8005458 <__hi0bits+0x54>
 800540c:	2008943a 	slli	r4,r4,16
 8005410:	00800404 	movi	r2,16
 8005414:	20ffc02c 	andhi	r3,r4,65280
 8005418:	1800021e 	bne	r3,zero,8005424 <__hi0bits+0x20>
 800541c:	2008923a 	slli	r4,r4,8
 8005420:	10800204 	addi	r2,r2,8
 8005424:	20fc002c 	andhi	r3,r4,61440
 8005428:	1800021e 	bne	r3,zero,8005434 <__hi0bits+0x30>
 800542c:	2008913a 	slli	r4,r4,4
 8005430:	10800104 	addi	r2,r2,4
 8005434:	20f0002c 	andhi	r3,r4,49152
 8005438:	1800021e 	bne	r3,zero,8005444 <__hi0bits+0x40>
 800543c:	200890ba 	slli	r4,r4,2
 8005440:	10800084 	addi	r2,r2,2
 8005444:	20000316 	blt	r4,zero,8005454 <__hi0bits+0x50>
 8005448:	2110002c 	andhi	r4,r4,16384
 800544c:	10800044 	addi	r2,r2,1
 8005450:	20000326 	beq	r4,zero,8005460 <__hi0bits+0x5c>
 8005454:	f800283a 	ret
 8005458:	0005883a 	mov	r2,zero
 800545c:	003fed06 	br	8005414 <__hi0bits+0x10>
 8005460:	00800804 	movi	r2,32
 8005464:	f800283a 	ret

08005468 <__lo0bits>:
 8005468:	20c00017 	ldw	r3,0(r4)
 800546c:	188001cc 	andi	r2,r3,7
 8005470:	10000826 	beq	r2,zero,8005494 <__lo0bits+0x2c>
 8005474:	1880004c 	andi	r2,r3,1
 8005478:	10001f1e 	bne	r2,zero,80054f8 <__lo0bits+0x90>
 800547c:	1880008c 	andi	r2,r3,2
 8005480:	10002126 	beq	r2,zero,8005508 <__lo0bits+0xa0>
 8005484:	1806d07a 	srli	r3,r3,1
 8005488:	00800044 	movi	r2,1
 800548c:	20c00015 	stw	r3,0(r4)
 8005490:	f800283a 	ret
 8005494:	18bfffcc 	andi	r2,r3,65535
 8005498:	1000151e 	bne	r2,zero,80054f0 <__lo0bits+0x88>
 800549c:	1806d43a 	srli	r3,r3,16
 80054a0:	00800404 	movi	r2,16
 80054a4:	19403fcc 	andi	r5,r3,255
 80054a8:	2800021e 	bne	r5,zero,80054b4 <__lo0bits+0x4c>
 80054ac:	1806d23a 	srli	r3,r3,8
 80054b0:	10800204 	addi	r2,r2,8
 80054b4:	194003cc 	andi	r5,r3,15
 80054b8:	2800021e 	bne	r5,zero,80054c4 <__lo0bits+0x5c>
 80054bc:	1806d13a 	srli	r3,r3,4
 80054c0:	10800104 	addi	r2,r2,4
 80054c4:	194000cc 	andi	r5,r3,3
 80054c8:	2800021e 	bne	r5,zero,80054d4 <__lo0bits+0x6c>
 80054cc:	1806d0ba 	srli	r3,r3,2
 80054d0:	10800084 	addi	r2,r2,2
 80054d4:	1940004c 	andi	r5,r3,1
 80054d8:	2800031e 	bne	r5,zero,80054e8 <__lo0bits+0x80>
 80054dc:	1806d07a 	srli	r3,r3,1
 80054e0:	10800044 	addi	r2,r2,1
 80054e4:	18000626 	beq	r3,zero,8005500 <__lo0bits+0x98>
 80054e8:	20c00015 	stw	r3,0(r4)
 80054ec:	f800283a 	ret
 80054f0:	0005883a 	mov	r2,zero
 80054f4:	003feb06 	br	80054a4 <__lo0bits+0x3c>
 80054f8:	0005883a 	mov	r2,zero
 80054fc:	f800283a 	ret
 8005500:	00800804 	movi	r2,32
 8005504:	f800283a 	ret
 8005508:	1806d0ba 	srli	r3,r3,2
 800550c:	00800084 	movi	r2,2
 8005510:	20c00015 	stw	r3,0(r4)
 8005514:	f800283a 	ret

08005518 <__i2b>:
 8005518:	defffe04 	addi	sp,sp,-8
 800551c:	dc000015 	stw	r16,0(sp)
 8005520:	2821883a 	mov	r16,r5
 8005524:	01400044 	movi	r5,1
 8005528:	dfc00115 	stw	ra,4(sp)
 800552c:	80050f00 	call	80050f0 <_Balloc>
 8005530:	01000044 	movi	r4,1
 8005534:	14000515 	stw	r16,20(r2)
 8005538:	11000415 	stw	r4,16(r2)
 800553c:	dfc00117 	ldw	ra,4(sp)
 8005540:	dc000017 	ldw	r16,0(sp)
 8005544:	dec00204 	addi	sp,sp,8
 8005548:	f800283a 	ret

0800554c <__multiply>:
 800554c:	defff104 	addi	sp,sp,-60
 8005550:	dd800b15 	stw	r22,44(sp)
 8005554:	dc400615 	stw	r17,24(sp)
 8005558:	2d800417 	ldw	r22,16(r5)
 800555c:	34400417 	ldw	r17,16(r6)
 8005560:	ddc00c15 	stw	r23,48(sp)
 8005564:	dc800715 	stw	r18,28(sp)
 8005568:	dfc00e15 	stw	ra,56(sp)
 800556c:	df000d15 	stw	fp,52(sp)
 8005570:	dd400a15 	stw	r21,40(sp)
 8005574:	dd000915 	stw	r20,36(sp)
 8005578:	dcc00815 	stw	r19,32(sp)
 800557c:	dc000515 	stw	r16,20(sp)
 8005580:	2825883a 	mov	r18,r5
 8005584:	302f883a 	mov	r23,r6
 8005588:	b4400516 	blt	r22,r17,80055a0 <__multiply+0x54>
 800558c:	8807883a 	mov	r3,r17
 8005590:	282f883a 	mov	r23,r5
 8005594:	b023883a 	mov	r17,r22
 8005598:	3025883a 	mov	r18,r6
 800559c:	182d883a 	mov	r22,r3
 80055a0:	b8800217 	ldw	r2,8(r23)
 80055a4:	8da9883a 	add	r20,r17,r22
 80055a8:	b9400117 	ldw	r5,4(r23)
 80055ac:	1500010e 	bge	r2,r20,80055b4 <__multiply+0x68>
 80055b0:	29400044 	addi	r5,r5,1
 80055b4:	a02690ba 	slli	r19,r20,2
 80055b8:	80050f00 	call	80050f0 <_Balloc>
 80055bc:	10c00504 	addi	r3,r2,20
 80055c0:	1cc9883a 	add	r4,r3,r19
 80055c4:	d8800415 	stw	r2,16(sp)
 80055c8:	d8c00015 	stw	r3,0(sp)
 80055cc:	d9000115 	stw	r4,4(sp)
 80055d0:	1805883a 	mov	r2,r3
 80055d4:	1900042e 	bgeu	r3,r4,80055e8 <__multiply+0x9c>
 80055d8:	d8c00117 	ldw	r3,4(sp)
 80055dc:	10000015 	stw	zero,0(r2)
 80055e0:	10800104 	addi	r2,r2,4
 80055e4:	10fffc36 	bltu	r2,r3,80055d8 <__multiply+0x8c>
 80055e8:	b02c90ba 	slli	r22,r22,2
 80055ec:	882290ba 	slli	r17,r17,2
 80055f0:	94800504 	addi	r18,r18,20
 80055f4:	b8800504 	addi	r2,r23,20
 80055f8:	9587883a 	add	r3,r18,r22
 80055fc:	d8800315 	stw	r2,12(sp)
 8005600:	d8c00215 	stw	r3,8(sp)
 8005604:	1463883a 	add	r17,r2,r17
 8005608:	90c00936 	bltu	r18,r3,8005630 <__multiply+0xe4>
 800560c:	00004606 	br	8005728 <__multiply+0x1dc>
 8005610:	8020d43a 	srli	r16,r16,16
 8005614:	8000271e 	bne	r16,zero,80056b4 <__multiply+0x168>
 8005618:	d8800017 	ldw	r2,0(sp)
 800561c:	94800104 	addi	r18,r18,4
 8005620:	10800104 	addi	r2,r2,4
 8005624:	d8800015 	stw	r2,0(sp)
 8005628:	d8800217 	ldw	r2,8(sp)
 800562c:	90803e2e 	bgeu	r18,r2,8005728 <__multiply+0x1dc>
 8005630:	94000017 	ldw	r16,0(r18)
 8005634:	873fffcc 	andi	fp,r16,65535
 8005638:	e03ff526 	beq	fp,zero,8005610 <__multiply+0xc4>
 800563c:	dcc00017 	ldw	r19,0(sp)
 8005640:	dd800317 	ldw	r22,12(sp)
 8005644:	002b883a 	mov	r21,zero
 8005648:	b5c00017 	ldw	r23,0(r22)
 800564c:	9c000017 	ldw	r16,0(r19)
 8005650:	e00b883a 	mov	r5,fp
 8005654:	b93fffcc 	andi	r4,r23,65535
 8005658:	8000acc0 	call	8000acc <__mulsi3>
 800565c:	b808d43a 	srli	r4,r23,16
 8005660:	80ffffcc 	andi	r3,r16,65535
 8005664:	10c5883a 	add	r2,r2,r3
 8005668:	e00b883a 	mov	r5,fp
 800566c:	156b883a 	add	r21,r2,r21
 8005670:	8020d43a 	srli	r16,r16,16
 8005674:	8000acc0 	call	8000acc <__mulsi3>
 8005678:	a808d43a 	srli	r4,r21,16
 800567c:	1405883a 	add	r2,r2,r16
 8005680:	a8ffffcc 	andi	r3,r21,65535
 8005684:	1105883a 	add	r2,r2,r4
 8005688:	1008943a 	slli	r4,r2,16
 800568c:	9cc00104 	addi	r19,r19,4
 8005690:	b5800104 	addi	r22,r22,4
 8005694:	20c6b03a 	or	r3,r4,r3
 8005698:	98ffff15 	stw	r3,-4(r19)
 800569c:	102ad43a 	srli	r21,r2,16
 80056a0:	b47fe936 	bltu	r22,r17,8005648 <__multiply+0xfc>
 80056a4:	9d400015 	stw	r21,0(r19)
 80056a8:	94000017 	ldw	r16,0(r18)
 80056ac:	8020d43a 	srli	r16,r16,16
 80056b0:	803fd926 	beq	r16,zero,8005618 <__multiply+0xcc>
 80056b4:	ddc00017 	ldw	r23,0(sp)
 80056b8:	dd400317 	ldw	r21,12(sp)
 80056bc:	0027883a 	mov	r19,zero
 80056c0:	bd800017 	ldw	r22,0(r23)
 80056c4:	b039883a 	mov	fp,r22
 80056c8:	a900000b 	ldhu	r4,0(r21)
 80056cc:	e038d43a 	srli	fp,fp,16
 80056d0:	800b883a 	mov	r5,r16
 80056d4:	8000acc0 	call	8000acc <__mulsi3>
 80056d8:	1739883a 	add	fp,r2,fp
 80056dc:	e4e7883a 	add	r19,fp,r19
 80056e0:	9804943a 	slli	r2,r19,16
 80056e4:	b0ffffcc 	andi	r3,r22,65535
 80056e8:	bdc00104 	addi	r23,r23,4
 80056ec:	10c6b03a 	or	r3,r2,r3
 80056f0:	b8ffff15 	stw	r3,-4(r23)
 80056f4:	ad400104 	addi	r21,r21,4
 80056f8:	a93fff8b 	ldhu	r4,-2(r21)
 80056fc:	bf000017 	ldw	fp,0(r23)
 8005700:	800b883a 	mov	r5,r16
 8005704:	8000acc0 	call	8000acc <__mulsi3>
 8005708:	980cd43a 	srli	r6,r19,16
 800570c:	e0ffffcc 	andi	r3,fp,65535
 8005710:	10c7883a 	add	r3,r2,r3
 8005714:	19ad883a 	add	r22,r3,r6
 8005718:	b026d43a 	srli	r19,r22,16
 800571c:	ac7fea36 	bltu	r21,r17,80056c8 <__multiply+0x17c>
 8005720:	bd800015 	stw	r22,0(r23)
 8005724:	003fbc06 	br	8005618 <__multiply+0xcc>
 8005728:	05000a0e 	bge	zero,r20,8005754 <__multiply+0x208>
 800572c:	d8c00117 	ldw	r3,4(sp)
 8005730:	18bfff17 	ldw	r2,-4(r3)
 8005734:	1cffff04 	addi	r19,r3,-4
 8005738:	10000326 	beq	r2,zero,8005748 <__multiply+0x1fc>
 800573c:	00000506 	br	8005754 <__multiply+0x208>
 8005740:	98800017 	ldw	r2,0(r19)
 8005744:	1000031e 	bne	r2,zero,8005754 <__multiply+0x208>
 8005748:	a53fffc4 	addi	r20,r20,-1
 800574c:	9cffff04 	addi	r19,r19,-4
 8005750:	a03ffb1e 	bne	r20,zero,8005740 <__multiply+0x1f4>
 8005754:	d8800417 	ldw	r2,16(sp)
 8005758:	15000415 	stw	r20,16(r2)
 800575c:	dfc00e17 	ldw	ra,56(sp)
 8005760:	df000d17 	ldw	fp,52(sp)
 8005764:	ddc00c17 	ldw	r23,48(sp)
 8005768:	dd800b17 	ldw	r22,44(sp)
 800576c:	dd400a17 	ldw	r21,40(sp)
 8005770:	dd000917 	ldw	r20,36(sp)
 8005774:	dcc00817 	ldw	r19,32(sp)
 8005778:	dc800717 	ldw	r18,28(sp)
 800577c:	dc400617 	ldw	r17,24(sp)
 8005780:	dc000517 	ldw	r16,20(sp)
 8005784:	dec00f04 	addi	sp,sp,60
 8005788:	f800283a 	ret

0800578c <__pow5mult>:
 800578c:	defffb04 	addi	sp,sp,-20
 8005790:	dcc00315 	stw	r19,12(sp)
 8005794:	dc000015 	stw	r16,0(sp)
 8005798:	dfc00415 	stw	ra,16(sp)
 800579c:	dc800215 	stw	r18,8(sp)
 80057a0:	dc400115 	stw	r17,4(sp)
 80057a4:	308000cc 	andi	r2,r6,3
 80057a8:	3021883a 	mov	r16,r6
 80057ac:	2027883a 	mov	r19,r4
 80057b0:	10002d1e 	bne	r2,zero,8005868 <__pow5mult+0xdc>
 80057b4:	2825883a 	mov	r18,r5
 80057b8:	8021d0ba 	srai	r16,r16,2
 80057bc:	80001926 	beq	r16,zero,8005824 <__pow5mult+0x98>
 80057c0:	9c401217 	ldw	r17,72(r19)
 80057c4:	8800061e 	bne	r17,zero,80057e0 <__pow5mult+0x54>
 80057c8:	00002f06 	br	8005888 <__pow5mult+0xfc>
 80057cc:	8021d07a 	srai	r16,r16,1
 80057d0:	80001426 	beq	r16,zero,8005824 <__pow5mult+0x98>
 80057d4:	88800017 	ldw	r2,0(r17)
 80057d8:	10001a26 	beq	r2,zero,8005844 <__pow5mult+0xb8>
 80057dc:	1023883a 	mov	r17,r2
 80057e0:	8080004c 	andi	r2,r16,1
 80057e4:	103ff926 	beq	r2,zero,80057cc <__pow5mult+0x40>
 80057e8:	880d883a 	mov	r6,r17
 80057ec:	900b883a 	mov	r5,r18
 80057f0:	9809883a 	mov	r4,r19
 80057f4:	800554c0 	call	800554c <__multiply>
 80057f8:	90001926 	beq	r18,zero,8005860 <__pow5mult+0xd4>
 80057fc:	91000117 	ldw	r4,4(r18)
 8005800:	98c01317 	ldw	r3,76(r19)
 8005804:	8021d07a 	srai	r16,r16,1
 8005808:	200890ba 	slli	r4,r4,2
 800580c:	1907883a 	add	r3,r3,r4
 8005810:	19000017 	ldw	r4,0(r3)
 8005814:	91000015 	stw	r4,0(r18)
 8005818:	1c800015 	stw	r18,0(r3)
 800581c:	1025883a 	mov	r18,r2
 8005820:	803fec1e 	bne	r16,zero,80057d4 <__pow5mult+0x48>
 8005824:	9005883a 	mov	r2,r18
 8005828:	dfc00417 	ldw	ra,16(sp)
 800582c:	dcc00317 	ldw	r19,12(sp)
 8005830:	dc800217 	ldw	r18,8(sp)
 8005834:	dc400117 	ldw	r17,4(sp)
 8005838:	dc000017 	ldw	r16,0(sp)
 800583c:	dec00504 	addi	sp,sp,20
 8005840:	f800283a 	ret
 8005844:	880d883a 	mov	r6,r17
 8005848:	880b883a 	mov	r5,r17
 800584c:	9809883a 	mov	r4,r19
 8005850:	800554c0 	call	800554c <__multiply>
 8005854:	88800015 	stw	r2,0(r17)
 8005858:	10000015 	stw	zero,0(r2)
 800585c:	003fdf06 	br	80057dc <__pow5mult+0x50>
 8005860:	1025883a 	mov	r18,r2
 8005864:	003fd906 	br	80057cc <__pow5mult+0x40>
 8005868:	100490ba 	slli	r2,r2,2
 800586c:	00c20074 	movhi	r3,2049
 8005870:	000f883a 	mov	r7,zero
 8005874:	10c7883a 	add	r3,r2,r3
 8005878:	19b72417 	ldw	r6,-9072(r3)
 800587c:	80051b80 	call	80051b8 <__multadd>
 8005880:	1025883a 	mov	r18,r2
 8005884:	003fcc06 	br	80057b8 <__pow5mult+0x2c>
 8005888:	01400044 	movi	r5,1
 800588c:	9809883a 	mov	r4,r19
 8005890:	80050f00 	call	80050f0 <_Balloc>
 8005894:	1023883a 	mov	r17,r2
 8005898:	00809c44 	movi	r2,625
 800589c:	88800515 	stw	r2,20(r17)
 80058a0:	00800044 	movi	r2,1
 80058a4:	88800415 	stw	r2,16(r17)
 80058a8:	9c401215 	stw	r17,72(r19)
 80058ac:	88000015 	stw	zero,0(r17)
 80058b0:	003fcb06 	br	80057e0 <__pow5mult+0x54>

080058b4 <__lshift>:
 80058b4:	defff904 	addi	sp,sp,-28
 80058b8:	dcc00315 	stw	r19,12(sp)
 80058bc:	dc400115 	stw	r17,4(sp)
 80058c0:	2cc00417 	ldw	r19,16(r5)
 80058c4:	3023d17a 	srai	r17,r6,5
 80058c8:	28800217 	ldw	r2,8(r5)
 80058cc:	dd400515 	stw	r21,20(sp)
 80058d0:	8ce7883a 	add	r19,r17,r19
 80058d4:	dd000415 	stw	r20,16(sp)
 80058d8:	dc800215 	stw	r18,8(sp)
 80058dc:	dc000015 	stw	r16,0(sp)
 80058e0:	dfc00615 	stw	ra,24(sp)
 80058e4:	9c000044 	addi	r16,r19,1
 80058e8:	2825883a 	mov	r18,r5
 80058ec:	302b883a 	mov	r21,r6
 80058f0:	2029883a 	mov	r20,r4
 80058f4:	29400117 	ldw	r5,4(r5)
 80058f8:	1400030e 	bge	r2,r16,8005908 <__lshift+0x54>
 80058fc:	1085883a 	add	r2,r2,r2
