
lab72.elf:     file format elf32-littlenios2
lab72.elf
architecture: nios2:r1, flags 0x00000112:
EXEC_P, HAS_SYMS, D_PAGED
start address 0x08000224

Program Header:
    LOAD off    0x00001000 vaddr 0x08000000 paddr 0x08000000 align 2**12
         filesz 0x00000020 memsz 0x00000020 flags r-x
    LOAD off    0x00001020 vaddr 0x08000020 paddr 0x08000020 align 2**12
         filesz 0x0000e180 memsz 0x0000e180 flags r-x
    LOAD off    0x0000f1a0 vaddr 0x0800e1a0 paddr 0x080101d4 align 2**12
         filesz 0x00002034 memsz 0x00002034 flags rw-
    LOAD off    0x00011208 vaddr 0x08012208 paddr 0x08012208 align 2**12
         filesz 0x00000000 memsz 0x00000158 flags rw-

Sections:
Idx Name          Size      VMA       LMA       File off  Algn
  0 .entry        00000020  08000000  08000000  00001000  2**5
                  CONTENTS, ALLOC, LOAD, READONLY, CODE
  1 .exceptions   00000204  08000020  08000020  00001020  2**2
                  CONTENTS, ALLOC, LOAD, READONLY, CODE
  2 .text         0000d9a8  08000224  08000224  00001224  2**2
                  CONTENTS, ALLOC, LOAD, READONLY, CODE
  3 .rodata       000005d4  0800dbcc  0800dbcc  0000ebcc  2**2
                  CONTENTS, ALLOC, LOAD, READONLY, DATA
  4 .rwdata       00002034  0800e1a0  080101d4  0000f1a0  2**2
                  CONTENTS, ALLOC, LOAD, DATA, SMALL_DATA
  5 .bss          00000158  08012208  08012208  00011208  2**2
                  ALLOC, SMALL_DATA
  6 .onchip_memory2_0 00000000  00000000  00000000  000111d4  2**0
                  CONTENTS
  7 .sdram        00000000  08012360  08012360  000111d4  2**0
                  CONTENTS
  8 .comment      0000002c  00000000  00000000  000111d4  2**0
                  CONTENTS, READONLY
  9 .debug_aranges 00000c10  00000000  00000000  00011200  2**3
                  CONTENTS, READONLY, DEBUGGING
 10 .debug_info   00035ad5  00000000  00000000  00011e10  2**0
                  CONTENTS, READONLY, DEBUGGING
 11 .debug_abbrev 0000b071  00000000  00000000  000478e5  2**0
                  CONTENTS, READONLY, DEBUGGING
 12 .debug_line   000133ef  00000000  00000000  00052956  2**0
                  CONTENTS, READONLY, DEBUGGING
 13 .debug_frame  000018ac  00000000  00000000  00065d48  2**2
                  CONTENTS, READONLY, DEBUGGING
 14 .debug_str    000038f2  00000000  00000000  000675f4  2**0
                  CONTENTS, READONLY, DEBUGGING
 15 .debug_loc    00018ac8  00000000  00000000  0006aee6  2**0
                  CONTENTS, READONLY, DEBUGGING
 16 .debug_alt_sim_info 00000040  00000000  00000000  000839b0  2**2
                  CONTENTS, READONLY, DEBUGGING
 17 .debug_ranges 00001730  00000000  00000000  000839f0  2**3
                  CONTENTS, READONLY, DEBUGGING
 18 .thread_model 00000003  00000000  00000000  00087c22  2**0
                  CONTENTS, READONLY
 19 .cpu          0000000c  00000000  00000000  00087c25  2**0
                  CONTENTS, READONLY
 20 .qsys         00000001  00000000  00000000  00087c31  2**0
                  CONTENTS, READONLY
 21 .simulation_enabled 00000001  00000000  00000000  00087c32  2**0
                  CONTENTS, READONLY
 22 .sysid_hash   00000004  00000000  00000000  00087c33  2**0
                  CONTENTS, READONLY
 23 .sysid_base   00000004  00000000  00000000  00087c37  2**0
                  CONTENTS, READONLY
 24 .sysid_time   00000004  00000000  00000000  00087c3b  2**0
                  CONTENTS, READONLY
 25 .stderr_dev   0000000b  00000000  00000000  00087c3f  2**0
                  CONTENTS, READONLY
 26 .stdin_dev    0000000b  00000000  00000000  00087c4a  2**0
                  CONTENTS, READONLY
 27 .stdout_dev   0000000b  00000000  00000000  00087c55  2**0
                  CONTENTS, READONLY
 28 .sopc_system_name 00000008  00000000  00000000  00087c60  2**0
                  CONTENTS, READONLY
 29 .quartus_project_dir 00000031  00000000  00000000  00087c68  2**0
                  CONTENTS, READONLY
 30 .jdi          00004e82  00000000  00000000  00087c99  2**0
                  CONTENTS, READONLY
 31 .sopcinfo     0008af3c  00000000  00000000  0008cb1b  2**0
                  CONTENTS, READONLY
SYMBOL TABLE:
08000000 l    d  .entry	00000000 .entry
08000020 l    d  .exceptions	00000000 .exceptions
08000224 l    d  .text	00000000 .text
0800dbcc l    d  .rodata	00000000 .rodata
0800e1a0 l    d  .rwdata	00000000 .rwdata
08012208 l    d  .bss	00000000 .bss
00000000 l    d  .onchip_memory2_0	00000000 .onchip_memory2_0
08012360 l    d  .sdram	00000000 .sdram
00000000 l    d  .comment	00000000 .comment
00000000 l    d  .debug_aranges	00000000 .debug_aranges
00000000 l    d  .debug_info	00000000 .debug_info
00000000 l    d  .debug_abbrev	00000000 .debug_abbrev
00000000 l    d  .debug_line	00000000 .debug_line
00000000 l    d  .debug_frame	00000000 .debug_frame
00000000 l    d  .debug_str	00000000 .debug_str
00000000 l    d  .debug_loc	00000000 .debug_loc
00000000 l    d  .debug_alt_sim_info	00000000 .debug_alt_sim_info
00000000 l    d  .debug_ranges	00000000 .debug_ranges
00000000 l    df *ABS*	00000000 ../lab72_bsp//obj/HAL/src/crt0.o
0800025c l       .text	00000000 alt_after_alt_main
00000000 l    df *ABS*	00000000 alt_irq_handler.c
00000000 l    df *ABS*	00000000 alt_instruction_exception_entry.c
00000000 l    df *ABS*	00000000 main.c
08010190 l     O .rwdata	00000004 vga_ctrl
0800e1a0 l     O .rwdata	00000170 colors
00000000 l    df *ABS*	00000000 palette_test.c
08010194 l     O .rwdata	00000004 vga_ctrl
0800e310 l     O .rwdata	00000170 colors
00000000 l    df *ABS*	00000000 text_mode_vga_color.c
08010198 l     O .rwdata	00000004 vga_ctrl
0800e480 l     O .rwdata	00000170 colors
00000000 l    df *ABS*	00000000 lib2-divmod.c
00000000 l    df *ABS*	00000000 lib2-mul.c
00000000 l    df *ABS*	00000000 rand.c
00000000 l    df *ABS*	00000000 sprintf.c
00000000 l    df *ABS*	00000000 strlen.c
00000000 l    df *ABS*	00000000 vfprintf.c
0800dc72 l     O .rodata	00000010 blanks.5207
0800dc62 l     O .rodata	00000010 zeroes.5208
00000000 l    df *ABS*	00000000 dtoa.c
08002df8 l     F .text	00000234 quorem
00000000 l    df *ABS*	00000000 impure.c
0800e5f0 l     O .rwdata	00000424 impure_data
00000000 l    df *ABS*	00000000 localeconv.c
00000000 l    df *ABS*	00000000 mallocr.c
00000000 l    df *ABS*	00000000 memchr.c
00000000 l    df *ABS*	00000000 memcpy.c
00000000 l    df *ABS*	00000000 mprec.c
0800dc94 l     O .rodata	0000000c p05.4024
00000000 l    df *ABS*	00000000 sbrkr.c
00000000 l    df *ABS*	00000000 vfprintf.c
0800ddc8 l     O .rodata	00000010 blanks.5187
0800ddb8 l     O .rodata	00000010 zeroes.5188
00000000 l    df *ABS*	00000000 mallocr.c
00000000 l    df *ABS*	00000000 mallocr.c
00000000 l    df *ABS*	00000000 int_errno.c
00000000 l    df *ABS*	00000000 locale.c
00000000 l    df *ABS*	00000000 mbtowc_r.c
00000000 l    df *ABS*	00000000 memmove.c
00000000 l    df *ABS*	00000000 memset.c
00000000 l    df *ABS*	00000000 mallocr.c
00000000 l    df *ABS*	00000000 strcmp.c
00000000 l    df *ABS*	00000000 wctomb_r.c
00000000 l    df *ABS*	00000000 ctype_.c
00000000 l    df *ABS*	00000000 libgcc2.c
00000000 l    df *ABS*	00000000 libgcc2.c
00000000 l    df *ABS*	00000000 libgcc2.c
00000000 l    df *ABS*	00000000 adddf3.c
00000000 l    df *ABS*	00000000 divdf3.c
00000000 l    df *ABS*	00000000 eqdf2.c
00000000 l    df *ABS*	00000000 gedf2.c
00000000 l    df *ABS*	00000000 ledf2.c
00000000 l    df *ABS*	00000000 muldf3.c
00000000 l    df *ABS*	00000000 subdf3.c
00000000 l    df *ABS*	00000000 unorddf2.c
00000000 l    df *ABS*	00000000 fixdfsi.c
00000000 l    df *ABS*	00000000 floatsidf.c
00000000 l    df *ABS*	00000000 floatunsidf.c
00000000 l    df *ABS*	00000000 libgcc2.c
00000000 l    df *ABS*	00000000 libgcc2.c
00000000 l    df *ABS*	00000000 alt_load.c
0800b940 l     F .text	00000068 alt_load_section
00000000 l    df *ABS*	00000000 alt_main.c
00000000 l    df *ABS*	00000000 alt_malloc_lock.c
00000000 l    df *ABS*	00000000 alt_sbrk.c
080101ac l     O .rwdata	00000004 heap_end
00000000 l    df *ABS*	00000000 alt_usleep.c
00000000 l    df *ABS*	00000000 alt_sys_init.c
0800bbd0 l     F .text	00000034 alt_dev_reg
0800ef88 l     O .rwdata	00001060 jtag_uart_0
00000000 l    df *ABS*	00000000 altera_avalon_jtag_uart_fd.c
00000000 l    df *ABS*	00000000 altera_avalon_jtag_uart_init.c
0800bec4 l     F .text	00000204 altera_avalon_jtag_uart_irq
0800c0c8 l     F .text	000000a0 altera_avalon_jtag_uart_timeout
00000000 l    df *ABS*	00000000 altera_avalon_jtag_uart_ioctl.c
00000000 l    df *ABS*	00000000 altera_avalon_jtag_uart_read.c
00000000 l    df *ABS*	00000000 altera_avalon_jtag_uart_write.c
00000000 l    df *ABS*	00000000 altera_avalon_timer_sc.c
0800c704 l     F .text	00000078 alt_avalon_timer_sc_irq
00000000 l    df *ABS*	00000000 alt_alarm_start.c
00000000 l    df *ABS*	00000000 alt_busy_sleep.c
00000000 l    df *ABS*	00000000 alt_close.c
0800ca7c l     F .text	0000003c alt_get_errno
00000000 l    df *ABS*	00000000 alt_dcache_flush_all.c
00000000 l    df *ABS*	00000000 alt_dev.c
0800cbb4 l     F .text	0000002c alt_dev_null_write
00000000 l    df *ABS*	00000000 alt_dev_llist_insert.c
0800cbe0 l     F .text	0000003c alt_get_errno
00000000 l    df *ABS*	00000000 alt_do_ctors.c
00000000 l    df *ABS*	00000000 alt_do_dtors.c
00000000 l    df *ABS*	00000000 alt_errno.c
00000000 l    df *ABS*	00000000 alt_icache_flush_all.c
00000000 l    df *ABS*	00000000 alt_iic.c
00000000 l    df *ABS*	00000000 alt_iic_isr_register.c
00000000 l    df *ABS*	00000000 alt_io_redirect.c
0800d034 l     F .text	000000d4 alt_open_fd
00000000 l    df *ABS*	00000000 alt_irq_vars.c
00000000 l    df *ABS*	00000000 alt_open.c
0800d184 l     F .text	0000003c alt_get_errno
0800d1c0 l     F .text	000000dc alt_file_locked
00000000 l    df *ABS*	00000000 alt_release_fd.c
00000000 l    df *ABS*	00000000 alt_tick.c
00000000 l    df *ABS*	00000000 altera_nios2_gen2_irq.c
00000000 l    df *ABS*	00000000 alt_find_dev.c
00000000 l    df *ABS*	00000000 alt_find_file.c
00000000 l    df *ABS*	00000000 alt_get_fd.c
00000000 l    df *ABS*	00000000 atexit.c
00000000 l    df *ABS*	00000000 exit.c
00000000 l    df *ABS*	00000000 memcmp.c
00000000 l    df *ABS*	00000000 __atexit.c
00000000 l    df *ABS*	00000000 __call_atexit.c
00000000 l    df *ABS*	00000000 alt_exit.c
08012234 g     O .bss	00000004 alt_instruction_exception_handler
08005f50 g     F .text	00000074 _mprec_log10
08006030 g     F .text	00000074 __any_on
0800dca0 g     O .rodata	00000028 __mprec_tinytens
0800ba2c g     F .text	0000007c alt_main
08012260 g     O .bss	00000100 alt_irq
080101d4 g       *ABS*	00000000 __flash_rwdata_start
0800a308 g     F .text	00000080 .hidden __eqdf2
08012360 g       *ABS*	00000000 __alt_heap_start
080078dc g     F .text	00000070 _setlocale_r
0800bacc g     F .text	00000024 __malloc_unlock
080006b8 g     F .text	0000025c textVGAColorScreenSaver
080079bc g     F .text	0000012c memmove
080050f0 g     F .text	000000a4 _Balloc
0800a388 g     F .text	000000f0 .hidden __gtdf2
0800d610 g     F .text	00000024 altera_nios2_gen2_irq_init
08000000 g     F .entry	0000000c __reset
080046f4 g     F .text	00000008 __localeconv_l
08000020 g       *ABS*	00000000 __flash_exceptions_start
08012214 g     O .bss	00000004 errno
080062c0 g     F .text	00001138 ___svfiprintf_internal_r
08012220 g     O .bss	00000004 alt_argv
08018190 g       *ABS*	00000000 _gp
0800bba0 g     F .text	00000030 usleep
08000440 g     F .text	00000050 textVGAColorClr
08010010 g     O .rwdata	00000180 alt_fd_list
0800d634 g     F .text	00000090 alt_find_dev
08004ff0 g     F .text	00000100 memcpy
0800b788 g     F .text	000000c8 .hidden __floatsidf
0800d108 g     F .text	0000007c alt_io_redirect
0800a478 g     F .text	000000f0 .hidden __ltdf2
0800dbcc g       *ABS*	00000000 __DTOR_END__
0800d884 g     F .text	00000098 alt_exception_cause_generated_bad_addr
08005eac g     F .text	000000a4 __ratio
0800c2c4 g     F .text	0000021c altera_avalon_jtag_uart_read
00000000 g       *ABS*	00000000 __alt_mem_onchip_memory2_0
08000a0c g     F .text	00000064 .hidden __udivsi3
0800dcf0 g     O .rodata	000000c8 __mprec_tens
08012210 g     O .bss	00000004 __malloc_top_pad
080046fc g     F .text	0000000c _localeconv_r
08005518 g     F .text	00000034 __i2b
080060a4 g     F .text	00000058 _sbrk_r
080101c0 g     O .rwdata	00000004 alt_max_fd
0801220c g     O .bss	00000004 __malloc_max_sbrked_mem
08009004 g     F .text	000009a0 .hidden __adddf3
08005c60 g     F .text	00000104 __b2d
08008a3c g     F .text	000005c8 .hidden __umoddi3
0801019c g     O .rwdata	00000004 _global_impure_ptr
08007bd8 g     F .text	0000062c _realloc_r
08012360 g       *ABS*	00000000 __bss_end
0800cf50 g     F .text	000000e4 alt_iic_isr_register
0800d508 g     F .text	00000108 alt_tick
08008420 g     F .text	0000061c .hidden __udivdi3
0800dcc8 g     O .rodata	00000028 __mprec_bigtens
080052f4 g     F .text	00000110 __s2b
0800b850 g     F .text	0000009c .hidden __floatunsidf
080059f0 g     F .text	00000058 __mcmp
0800cf04 g     F .text	0000004c alt_ic_irq_enabled
0800d46c g     F .text	0000009c alt_alarm_stop
08012228 g     O .bss	00000004 alt_irq_active
080000fc g     F .exceptions	000000c8 alt_irq_handler
0800ffe8 g     O .rwdata	00000028 alt_dev_null
0800cb94 g     F .text	00000020 alt_dcache_flush_all
08005404 g     F .text	00000064 __hi0bits
0800b708 g     F .text	00000080 .hidden __fixdfsi
080101d4 g       *ABS*	00000000 __ram_rwdata_end
080101b8 g     O .rwdata	00000008 alt_dev_list
0800e1a0 g       *ABS*	00000000 __ram_rodata_end
0800a478 g     F .text	000000f0 .hidden __ledf2
0800578c g     F .text	00000128 __pow5mult
08000a70 g     F .text	0000005c .hidden __umodsi3
08012360 g       *ABS*	00000000 end
0800be04 g     F .text	000000c0 altera_avalon_jtag_uart_init
080001c4 g     F .exceptions	00000060 alt_instruction_exception_entry
0800dbcc g       *ABS*	00000000 __CTOR_LIST__
0c000000 g       *ABS*	00000000 __alt_stack_pointer
0800c77c g     F .text	0000007c alt_avalon_timer_sc_init
0800b8ec g     F .text	00000054 .hidden __clzsi2
0800c4e0 g     F .text	00000224 altera_avalon_jtag_uart_write
08004f08 g     F .text	000000e8 memchr
08000b68 g     F .text	00000054 _sprintf_r
080075e0 g     F .text	000002fc _free_r
0800dee9 g     O .rodata	00000180 _ctype_b
0800794c g     F .text	0000000c __locale_mb_cur_max
0800da80 g     F .text	00000118 __call_exitprocs
080101a4 g     O .rwdata	00000004 __malloc_sbrk_base
08000224 g     F .text	0000003c _start
0801222c g     O .bss	00000004 _alt_tick_rate
08000b08 g     F .text	00000060 rand
080058b4 g     F .text	0000013c __lshift
08012230 g     O .bss	00000004 _alt_nticks
0800bc3c g     F .text	00000064 alt_sys_init
080060fc g     F .text	000001c4 __ssprint_r
0800d9f0 g     F .text	00000090 __register_exitproc
0800554c g     F .text	00000240 __multiply
0800c168 g     F .text	00000068 altera_avalon_jtag_uart_close
08000acc g     F .text	00000028 .hidden __mulsi3
0800e1a0 g       *ABS*	00000000 __ram_rwdata_start
0800dbcc g       *ABS*	00000000 __ram_rodata_start
08012238 g     O .bss	00000028 __malloc_current_mallinfo
08005d64 g     F .text	00000148 __d2b
0800bca0 g     F .text	00000060 altera_avalon_jtag_uart_read_fd
0800d7cc g     F .text	000000b8 alt_get_fd
0800c924 g     F .text	00000158 alt_busy_sleep
0800d964 g     F .text	0000008c memcmp
0800bd60 g     F .text	00000050 altera_avalon_jtag_uart_close_fd
08012360 g       *ABS*	00000000 __alt_stack_base
0800bdb0 g     F .text	00000054 altera_avalon_jtag_uart_ioctl_fd
080099a4 g     F .text	00000964 .hidden __divdf3
08005fc4 g     F .text	0000006c __copybits
0800ea14 g     O .rwdata	00000408 __malloc_av_
0800a568 g     F .text	000007e0 .hidden __muldf3
0800d6c4 g     F .text	00000108 alt_find_file
0800cc1c g     F .text	000000a4 alt_dev_llist_insert
0800baa8 g     F .text	00000024 __malloc_lock
0800baf0 g     F .text	000000b0 sbrk
08000cb8 g     F .text	00002140 ___svfprintf_internal_r
080073f8 g     F .text	000000cc _calloc_r
08012208 g       *ABS*	00000000 __bss_start
08007ae8 g     F .text	000000f0 memset
08000260 g     F .text	0000002c main
08012224 g     O .bss	00000004 alt_envp
08012208 g     O .bss	00000004 __malloc_max_total_mem
0800bd00 g     F .text	00000060 altera_avalon_jtag_uart_write_fd
08000af4 g     F .text	00000014 srand
0c000000 g       *ABS*	00000000 __alt_heap_limit
0800302c g     F .text	000016c8 _dtoa_r
08004714 g     F .text	000007f4 _malloc_r
080082e8 g     F .text	00000030 __ascii_wctomb
080101c4 g     O .rwdata	00000004 alt_errno
0800796c g     F .text	0000000c _mbtowc_r
08000914 g     F .text	00000080 .hidden __divsi3
080005ac g     F .text	0000010c setColorPalette
080074c4 g     F .text	0000011c _malloc_trim_r
0800dbcc g       *ABS*	00000000 __CTOR_END__
08008204 g     F .text	000000d8 strcmp
0800dbcc g       *ABS*	00000000 __flash_rodata_start
0800dbcc g       *ABS*	00000000 __DTOR_LIST__
0800a308 g     F .text	00000080 .hidden __nedf2
0800bc04 g     F .text	00000038 alt_irq_init
0800d3fc g     F .text	00000070 alt_release_fd
08000bbc g     F .text	00000064 sprintf
0800e069 g     O .rodata	00000100 .hidden __clz_tab
08012218 g     O .bss	00000004 _PathLocale
0800d91c g     F .text	00000014 atexit
08007958 g     F .text	00000014 setlocale
080101a0 g     O .rwdata	00000004 _impure_ptr
0801221c g     O .bss	00000004 alt_argc
0800cd20 g     F .text	00000060 _do_dtors
08000020 g       .exceptions	00000000 alt_irq_entry
08007978 g     F .text	00000044 __ascii_mbtowc
08005c04 g     F .text	0000005c __ulp
080101b0 g     O .rwdata	00000008 alt_fs_list
08000020 g       *ABS*	00000000 __ram_exceptions_start
08004708 g     F .text	0000000c localeconv
0800cda0 g     F .text	00000050 alt_ic_isr_register
080101d4 g       *ABS*	00000000 _edata
08012360 g       *ABS*	00000000 _end
08000224 g       *ABS*	00000000 __ram_exceptions_end
0800c1d0 g     F .text	000000f4 altera_avalon_jtag_uart_ioctl
08000490 g     F .text	0000011c textVGADrawColorText
0800ce78 g     F .text	0000008c alt_ic_irq_disable
080101a8 g     O .rwdata	00000004 __malloc_trim_threshold
0800d930 g     F .text	00000034 exit
08005a48 g     F .text	000001bc __mdiff
08000994 g     F .text	00000078 .hidden __modsi3
0c000000 g       *ABS*	00000000 __alt_data_end
08000020 g     F .exceptions	00000000 alt_exception
08000000 g       *ABS*	00000000 __alt_mem_sdram
0800dde8 g     O .rodata	00000101 _ctype_
0800b6b4 g     F .text	00000054 .hidden __unorddf2
0800db98 g     F .text	00000034 _exit
0800c7f8 g     F .text	0000012c alt_alarm_start
08008318 g     F .text	00000108 .hidden __muldi3
08000c20 g     F .text	00000098 strlen
0800d29c g     F .text	00000160 open
0800a388 g     F .text	000000f0 .hidden __gedf2
0800cd80 g     F .text	00000020 alt_icache_flush_all
080101c8 g     O .rwdata	00000004 alt_priority_mask
0800cdf0 g     F .text	00000088 alt_ic_irq_enable
080082dc g     F .text	0000000c _wctomb_r
0800ad48 g     F .text	0000096c .hidden __subdf3
08005468 g     F .text	000000b0 __lo0bits
080101cc g     O .rwdata	00000008 alt_alarm_list
0800ccc0 g     F .text	00000060 _do_ctors
0800cab8 g     F .text	000000dc close
0800ee1c g     O .rwdata	0000016c __global_locale
0800028c g     F .text	000001b4 paletteTest
0800b9a8 g     F .text	00000084 alt_load
080051b8 g     F .text	0000013c __multadd
08005194 g     F .text	00000024 _Bfree



Disassembly of section .entry:

08000000 <__reset>:
 * Jump to the _start entry point in the .text section if reset code
 * is allowed or if optimizing for RTL simulation.
 */
#if defined(ALT_ALLOW_CODE_AT_RESET) || defined(ALT_SIM_OPTIMIZE)
    /* Jump to the _start entry point in the .text section. */
    movhi r1, %hi(_start)
 8000000:	00420034 	movhi	at,2048
    ori r1, r1, %lo(_start)
 8000004:	08408914 	ori	at,at,548
    jmp r1
 8000008:	0800683a 	jmp	at
	...

Disassembly of section .exceptions:

08000020 <alt_exception>:

#else /* ALT_EXCEPTION_STACK disabled */
        /* 
         * Reserve space on normal stack for registers about to be pushed.
         */
        addi  sp, sp, -76
 8000020:	deffed04 	addi	sp,sp,-76
         * documentation for details).
         *
         * Leave a gap in the stack frame at 4(sp) for the muldiv handler to
         * store zero into.
         */
        stw   ra,  0(sp)
 8000024:	dfc00015 	stw	ra,0(sp)
        stw   r1,   8(sp)
 8000028:	d8400215 	stw	at,8(sp)
        stw   r2,  12(sp)
 800002c:	d8800315 	stw	r2,12(sp)
        stw   r3,  16(sp)
 8000030:	d8c00415 	stw	r3,16(sp)
        stw   r4,  20(sp)
 8000034:	d9000515 	stw	r4,20(sp)
        stw   r5,  24(sp)
 8000038:	d9400615 	stw	r5,24(sp)
        stw   r6,  28(sp)
 800003c:	d9800715 	stw	r6,28(sp)
        stw   r7,  32(sp)
 8000040:	d9c00815 	stw	r7,32(sp)
        rdctl r5, estatus   /* Read early to avoid usage stall */
 8000044:	000b307a 	rdctl	r5,estatus
        stw   r8,  36(sp)
 8000048:	da000915 	stw	r8,36(sp)
        stw   r9,  40(sp)
 800004c:	da400a15 	stw	r9,40(sp)
        stw   r10, 44(sp)
 8000050:	da800b15 	stw	r10,44(sp)
        stw   r11, 48(sp)
 8000054:	dac00c15 	stw	r11,48(sp)
        stw   r12, 52(sp)
 8000058:	db000d15 	stw	r12,52(sp)
        stw   r13, 56(sp)
 800005c:	db400e15 	stw	r13,56(sp)
        stw   r14, 60(sp)
 8000060:	db800f15 	stw	r14,60(sp)
        stw   r15, 64(sp)
 8000064:	dbc01015 	stw	r15,64(sp)
        /*
         * ea-4 contains the address of the instruction being executed
         * when the exception occured. For interrupt exceptions, we will
         * will be re-issue the isntruction. Store it in 72(sp)
         */
        stw   r5,  68(sp)  /* estatus */
 8000068:	d9401115 	stw	r5,68(sp)
        addi  r15, ea, -4  /* instruction that caused exception */
 800006c:	ebffff04 	addi	r15,ea,-4
        stw   r15,  72(sp)
 8000070:	dbc01215 	stw	r15,72(sp)
#else
        /*
         * Test to see if the exception was a software exception or caused 
         * by an external interrupt, and vector accordingly.
         */
        rdctl r4, ipending
 8000074:	0009313a 	rdctl	r4,ipending
        andi  r2, r5, 1
 8000078:	2880004c 	andi	r2,r5,1
        beq   r2, zero, .Lnot_irq
 800007c:	10000326 	beq	r2,zero,800008c <alt_exception+0x6c>
        beq   r4, zero, .Lnot_irq
 8000080:	20000226 	beq	r4,zero,800008c <alt_exception+0x6c>
        /*
         * Now that all necessary registers have been preserved, call 
         * alt_irq_handler() to process the interrupts.
         */

        call alt_irq_handler
 8000084:	80000fc0 	call	80000fc <alt_irq_handler>

        .section .exceptions.irqreturn, "xa"

        br    .Lexception_exit
 8000088:	00000706 	br	80000a8 <alt_exception+0x88>
         * upon completion, so we write ea (address of instruction *after*
         * the one where the exception occured) into 72(sp). The actual
         * instruction that caused the exception is written in r2, which these
         * handlers will utilize.
         */
        stw ea, 72(sp) /* EA is PC+4 so will skip over instruction causing exception */
 800008c:	df401215 	stw	ea,72(sp)
.Lunknown_16bit:
        addi.n r4, r4, 2 /* Need PC+2 to skip over instruction causing exception */
        stw r4, 72(sp)

#else /* CDX is not Enabled and all instructions are 32bits */
        ldw r2, -4(ea) /* Instruction value that caused exception */
 8000090:	e8bfff17 	ldw	r2,-4(ea)
         * debugger is present) or go into an infinite loop since the
         * handling behavior is undefined; in that case we will not return here.
         */

        /* Load exception-causing address as first argument (r4) */
        addi   r4, ea, -4
 8000094:	e93fff04 	addi	r4,ea,-4

        /* Call the instruction-exception entry */
        call   alt_instruction_exception_entry
 8000098:	80001c40 	call	80001c4 <alt_instruction_exception_entry>
         * instruction
         *
         * Return code was 0: Skip. The instruction after the exception is
         * already stored in 72(sp).
         */
        bne   r2, r0, .Lexception_exit
 800009c:	1000021e 	bne	r2,zero,80000a8 <alt_exception+0x88>

        /*
         * Otherwise, modify 72(sp) to re-issue the instruction that caused the
         * exception.
         */
        addi  r15, ea, -4  /* instruction that caused exception */
 80000a0:	ebffff04 	addi	r15,ea,-4
        stw   r15,  72(sp)
 80000a4:	dbc01215 	stw	r15,72(sp)
        /* 
         * Restore the saved registers, so that all general purpose registers 
         * have been restored to their state at the time the interrupt occured.
         */

        ldw   r5,  68(sp)
 80000a8:	d9401117 	ldw	r5,68(sp)
        ldw   ea,  72(sp)  /* This becomes the PC once eret is executed */
 80000ac:	df401217 	ldw	ea,72(sp)
        ldw   ra,   0(sp)
 80000b0:	dfc00017 	ldw	ra,0(sp)

        wrctl estatus, r5
 80000b4:	2801707a 	wrctl	estatus,r5

        ldw   r1,   8(sp)
 80000b8:	d8400217 	ldw	at,8(sp)
        ldw   r2,  12(sp)
 80000bc:	d8800317 	ldw	r2,12(sp)
        ldw   r3,  16(sp)
 80000c0:	d8c00417 	ldw	r3,16(sp)
        ldw   r4,  20(sp)
 80000c4:	d9000517 	ldw	r4,20(sp)
        ldw   r5,  24(sp)
 80000c8:	d9400617 	ldw	r5,24(sp)
        ldw   r6,  28(sp)
 80000cc:	d9800717 	ldw	r6,28(sp)
        ldw   r7,  32(sp)
 80000d0:	d9c00817 	ldw	r7,32(sp)

#if defined(ALT_EXCEPTION_STACK) && defined(ALT_STACK_CHECK)
        ldw   et, %gprel(alt_exception_old_stack_limit)(gp)
#endif

        ldw   r8,  36(sp)
 80000d4:	da000917 	ldw	r8,36(sp)
        ldw   r9,  40(sp)
 80000d8:	da400a17 	ldw	r9,40(sp)
        ldw   r10, 44(sp)
 80000dc:	da800b17 	ldw	r10,44(sp)
        ldw   r11, 48(sp)
 80000e0:	dac00c17 	ldw	r11,48(sp)
        ldw   r12, 52(sp)
 80000e4:	db000d17 	ldw	r12,52(sp)
        ldw   r13, 56(sp)
 80000e8:	db400e17 	ldw	r13,56(sp)
        ldw   r14, 60(sp)
 80000ec:	db800f17 	ldw	r14,60(sp)
        ldw   r15, 64(sp)
 80000f0:	dbc01017 	ldw	r15,64(sp)
        stw   et, %gprel(alt_stack_limit_value)(gp)
        stw   zero, %gprel(alt_exception_old_stack_limit)(gp)
#endif /* ALT_STACK_CHECK */
        ldw   sp,  76(sp)
#else /* ALT_EXCEPTION_STACK disabled */
        addi  sp, sp, 76
 80000f4:	dec01304 	addi	sp,sp,76

        /*
         * Return to the interrupted instruction.
         */

        eret
 80000f8:	ef80083a 	eret

080000fc <alt_irq_handler>:
 * instruction is present if the macro ALT_CI_INTERRUPT_VECTOR defined.
 */

void alt_irq_handler (void) __attribute__ ((section (".exceptions")));
void alt_irq_handler (void)
{
 80000fc:	defff904 	addi	sp,sp,-28
 8000100:	dfc00615 	stw	ra,24(sp)
 8000104:	df000515 	stw	fp,20(sp)
 8000108:	df000504 	addi	fp,sp,20
  
  /*
   * Notify the operating system that we are at interrupt level.
   */ 
  
  ALT_OS_INT_ENTER();
 800010c:	0001883a 	nop
#ifndef NIOS2_EIC_PRESENT
static ALT_INLINE alt_u32 ALT_ALWAYS_INLINE alt_irq_pending (void)
{
  alt_u32 active;

  NIOS2_READ_IPENDING (active);
 8000110:	0005313a 	rdctl	r2,ipending
 8000114:	e0bffc15 	stw	r2,-16(fp)

  return active;
 8000118:	e0bffc17 	ldw	r2,-16(fp)
   * Consider the case where the high priority interupt is asserted during
   * the interrupt entry sequence for a lower priority interrupt to see why
   * this is the case.
   */

  active = alt_irq_pending ();
 800011c:	e0bfff15 	stw	r2,-4(fp)

  do
  {
    i = 0;
 8000120:	e03ffd15 	stw	zero,-12(fp)
    mask = 1;
 8000124:	00800044 	movi	r2,1
 8000128:	e0bffe15 	stw	r2,-8(fp)
     * called to clear the interrupt condition.
     */

    do
    {
      if (active & mask)
 800012c:	e0ffff17 	ldw	r3,-4(fp)
 8000130:	e0bffe17 	ldw	r2,-8(fp)
 8000134:	1884703a 	and	r2,r3,r2
 8000138:	10001126 	beq	r2,zero,8000180 <alt_irq_handler+0x84>
      { 
#ifdef ALT_ENHANCED_INTERRUPT_API_PRESENT
        alt_irq[i].handler(alt_irq[i].context); 
 800013c:	e0bffd17 	ldw	r2,-12(fp)
 8000140:	100690fa 	slli	r3,r2,3
 8000144:	00820074 	movhi	r2,2049
 8000148:	1885883a 	add	r2,r3,r2
 800014c:	10c89817 	ldw	r3,8800(r2)
 8000150:	e0bffd17 	ldw	r2,-12(fp)
 8000154:	100890fa 	slli	r4,r2,3
 8000158:	00820074 	movhi	r2,2049
 800015c:	2085883a 	add	r2,r4,r2
 8000160:	10889917 	ldw	r2,8804(r2)
 8000164:	1009883a 	mov	r4,r2
 8000168:	183ee83a 	callr	r3
#else
        alt_irq[i].handler(alt_irq[i].context, i); 
#endif
        break;
 800016c:	0001883a 	nop
  NIOS2_READ_IPENDING (active);
 8000170:	0005313a 	rdctl	r2,ipending
 8000174:	e0bffb15 	stw	r2,-20(fp)
  return active;
 8000178:	e0bffb17 	ldw	r2,-20(fp)
 800017c:	00000706 	br	800019c <alt_irq_handler+0xa0>
      }
      mask <<= 1;
 8000180:	e0bffe17 	ldw	r2,-8(fp)
 8000184:	1085883a 	add	r2,r2,r2
 8000188:	e0bffe15 	stw	r2,-8(fp)
      i++;
 800018c:	e0bffd17 	ldw	r2,-12(fp)
 8000190:	10800044 	addi	r2,r2,1
 8000194:	e0bffd15 	stw	r2,-12(fp)
      if (active & mask)
 8000198:	003fe406 	br	800012c <alt_irq_handler+0x30>

    } while (1);

    active = alt_irq_pending ();
 800019c:	e0bfff15 	stw	r2,-4(fp)
    
  } while (active);
 80001a0:	e0bfff17 	ldw	r2,-4(fp)
 80001a4:	103fde1e 	bne	r2,zero,8000120 <alt_irq_handler+0x24>

  /*
   * Notify the operating system that interrupt processing is complete.
   */ 

  ALT_OS_INT_EXIT();
 80001a8:	0001883a 	nop
}
 80001ac:	0001883a 	nop
 80001b0:	e037883a 	mov	sp,fp
 80001b4:	dfc00117 	ldw	ra,4(sp)
 80001b8:	df000017 	ldw	fp,0(sp)
 80001bc:	dec00204 	addi	sp,sp,8
 80001c0:	f800283a 	ret

080001c4 <alt_instruction_exception_entry>:
 * that handler if it has been registered. Absent a handler, it will
 * break break or hang as discussed below.
 */
int 
alt_instruction_exception_entry (alt_u32 exception_pc)
{
 80001c4:	defffb04 	addi	sp,sp,-20
 80001c8:	dfc00415 	stw	ra,16(sp)
 80001cc:	df000315 	stw	fp,12(sp)
 80001d0:	df000304 	addi	fp,sp,12
 80001d4:	e13ffd15 	stw	r4,-12(fp)
  cause = ( (cause & NIOS2_EXCEPTION_REG_CAUSE_MASK) >>
              NIOS2_EXCEPTION_REG_CAUSE_OFST );

  NIOS2_READ_BADADDR(badaddr);
#else
  cause = NIOS2_EXCEPTION_CAUSE_NOT_PRESENT;
 80001d8:	00bfffc4 	movi	r2,-1
 80001dc:	e0bfff15 	stw	r2,-4(fp)
  badaddr = 0;
 80001e0:	e03ffe15 	stw	zero,-8(fp)
#endif /* NIOS2_HAS_EXTRA_EXCEPTION_INFO */

  if(alt_instruction_exception_handler) {
 80001e4:	d0a82917 	ldw	r2,-24412(gp)
 80001e8:	10000726 	beq	r2,zero,8000208 <alt_instruction_exception_entry+0x44>
     * Call handler. Its return value indicates whether the exception-causing
     * instruction should be re-issued. The code that called us,
     * alt_eceptions_entry.S, will look at this value and adjust the ea
     * register as necessary
     */
    return alt_instruction_exception_handler(cause, exception_pc, badaddr);
 80001ec:	d0a82917 	ldw	r2,-24412(gp)
 80001f0:	e0ffff17 	ldw	r3,-4(fp)
 80001f4:	e1bffe17 	ldw	r6,-8(fp)
 80001f8:	e17ffd17 	ldw	r5,-12(fp)
 80001fc:	1809883a 	mov	r4,r3
 8000200:	103ee83a 	callr	r2
 8000204:	00000206 	br	8000210 <alt_instruction_exception_entry+0x4c>
   *    (a peripheral which negates its interrupt output before its
   *    interrupt handler has been executed will cause spurious interrupts)
   */
  else {
#ifdef NIOS2_HAS_DEBUG_STUB
    NIOS2_BREAK();
 8000208:	003da03a 	break	0
      ;
#endif /* NIOS2_HAS_DEBUG_STUB */
  }

  /* We should not get here. Remove compiler warning. */
  return NIOS2_EXCEPTION_RETURN_REISSUE_INST;
 800020c:	0005883a 	mov	r2,zero
}
 8000210:	e037883a 	mov	sp,fp
 8000214:	dfc00117 	ldw	ra,4(sp)
 8000218:	df000017 	ldw	fp,0(sp)
 800021c:	dec00204 	addi	sp,sp,8
 8000220:	f800283a 	ret

Disassembly of section .text:

08000224 <_start>:

    /*
     * Now that the caches are initialized, set up the stack pointer and global pointer.
     * The values provided by the linker are assumed to be correctly aligned.
     */
    movhi sp, %hi(__alt_stack_pointer)
 8000224:	06c30034 	movhi	sp,3072
    ori sp, sp, %lo(__alt_stack_pointer)
 8000228:	dec00014 	ori	sp,sp,0
    movhi gp, %hi(_gp)
 800022c:	06820074 	movhi	gp,2049
    ori gp, gp, %lo(_gp)
 8000230:	d6a06414 	ori	gp,gp,33168
 */
#ifndef ALT_SIM_OPTIMIZE
    /* Log that the BSS is about to be cleared. */
    ALT_LOG_PUTS(alt_log_msg_bss)

    movhi r2, %hi(__bss_start)
 8000234:	00820074 	movhi	r2,2049
    ori r2, r2, %lo(__bss_start)
 8000238:	10888214 	ori	r2,r2,8712

    movhi r3, %hi(__bss_end)
 800023c:	00c20074 	movhi	r3,2049
    ori r3, r3, %lo(__bss_end)
 8000240:	18c8d814 	ori	r3,r3,9056

    beq r2, r3, 1f
 8000244:	10c00326 	beq	r2,r3,8000254 <_start+0x30>

0:
    stw zero, (r2)
 8000248:	10000015 	stw	zero,0(r2)
    addi r2, r2, 4
 800024c:	10800104 	addi	r2,r2,4
    bltu r2, r3, 0b
 8000250:	10fffd36 	bltu	r2,r3,8000248 <_start+0x24>
     * section aren't defined until alt_load() has been called).
     */
    mov   et, zero
#endif

    call alt_load
 8000254:	800b9a80 	call	800b9a8 <alt_load>

    /* Log that alt_main is about to be called. */
    ALT_LOG_PUTS(alt_log_msg_alt_main)

    /* Call the C entry point. It should never return. */
    call alt_main
 8000258:	800ba2c0 	call	800ba2c <alt_main>

0800025c <alt_after_alt_main>:

    /* Wait in infinite loop in case alt_main does return. */
alt_after_alt_main:
    br alt_after_alt_main
 800025c:	003fff06 	br	800025c <alt_after_alt_main>

08000260 <main>:
 */
#include "text_mode_vga_color.h"
#include <system.h>
#include <alt_types.h>

int main(){
 8000260:	defffe04 	addi	sp,sp,-8
 8000264:	dfc00115 	stw	ra,4(sp)
 8000268:	df000015 	stw	fp,0(sp)
 800026c:	d839883a 	mov	fp,sp
	textVGAColorScreenSaver();
 8000270:	80006b80 	call	80006b8 <textVGAColorScreenSaver>
    return 1;
 8000274:	00800044 	movi	r2,1
}
 8000278:	e037883a 	mov	sp,fp
 800027c:	dfc00117 	ldw	ra,4(sp)
 8000280:	df000017 	ldw	fp,0(sp)
 8000284:	dec00204 	addi	sp,sp,8
 8000288:	f800283a 	ret

0800028c <paletteTest>:

#include "text_mode_vga_color.h"


void paletteTest()
{
 800028c:	defffa04 	addi	sp,sp,-24
 8000290:	dfc00515 	stw	ra,20(sp)
 8000294:	df000415 	stw	fp,16(sp)
 8000298:	dc400315 	stw	r17,12(sp)
 800029c:	dc000215 	stw	r16,8(sp)
 80002a0:	df000404 	addi	fp,sp,16
	textVGAColorClr();
 80002a4:	80004400 	call	8000440 <textVGAColorClr>
	textVGADrawColorText ("This text should cycle through random colors", 0, 0, 0, 1);
 80002a8:	00800044 	movi	r2,1
 80002ac:	d8800015 	stw	r2,0(sp)
 80002b0:	000f883a 	mov	r7,zero
 80002b4:	000d883a 	mov	r6,zero
 80002b8:	000b883a 	mov	r5,zero
 80002bc:	01020074 	movhi	r4,2049
 80002c0:	2136f304 	addi	r4,r4,-9268
 80002c4:	80004900 	call	8000490 <textVGADrawColorText>

	for (int i = 0; i < 100; i ++)
 80002c8:	e03ffd15 	stw	zero,-12(fp)
 80002cc:	00005106 	br	8000414 <paletteTest+0x188>
	{
		usleep (20000);
 80002d0:	01138804 	movi	r4,20000
 80002d4:	800bba00 	call	800bba0 <usleep>
		setColorPalette(0, 	rand() % 16, rand() % 16,rand() % 16); //set color 0 to random color;
 80002d8:	8000b080 	call	8000b08 <rand>
 80002dc:	1007883a 	mov	r3,r2
 80002e0:	00a00034 	movhi	r2,32768
 80002e4:	108003c4 	addi	r2,r2,15
 80002e8:	1884703a 	and	r2,r3,r2
 80002ec:	1000040e 	bge	r2,zero,8000300 <paletteTest+0x74>
 80002f0:	10bfffc4 	addi	r2,r2,-1
 80002f4:	00fffc04 	movi	r3,-16
 80002f8:	10c4b03a 	or	r2,r2,r3
 80002fc:	10800044 	addi	r2,r2,1
 8000300:	14003fcc 	andi	r16,r2,255
 8000304:	8000b080 	call	8000b08 <rand>
 8000308:	1007883a 	mov	r3,r2
 800030c:	00a00034 	movhi	r2,32768
 8000310:	108003c4 	addi	r2,r2,15
 8000314:	1884703a 	and	r2,r3,r2
 8000318:	1000040e 	bge	r2,zero,800032c <paletteTest+0xa0>
 800031c:	10bfffc4 	addi	r2,r2,-1
 8000320:	00fffc04 	movi	r3,-16
 8000324:	10c4b03a 	or	r2,r2,r3
 8000328:	10800044 	addi	r2,r2,1
 800032c:	14403fcc 	andi	r17,r2,255
 8000330:	8000b080 	call	8000b08 <rand>
 8000334:	1007883a 	mov	r3,r2
 8000338:	00a00034 	movhi	r2,32768
 800033c:	108003c4 	addi	r2,r2,15
 8000340:	1884703a 	and	r2,r3,r2
 8000344:	1000040e 	bge	r2,zero,8000358 <paletteTest+0xcc>
 8000348:	10bfffc4 	addi	r2,r2,-1
 800034c:	00fffc04 	movi	r3,-16
 8000350:	10c4b03a 	or	r2,r2,r3
 8000354:	10800044 	addi	r2,r2,1
 8000358:	10803fcc 	andi	r2,r2,255
 800035c:	100f883a 	mov	r7,r2
 8000360:	880d883a 	mov	r6,r17
 8000364:	800b883a 	mov	r5,r16
 8000368:	0009883a 	mov	r4,zero
 800036c:	80005ac0 	call	80005ac <setColorPalette>
		setColorPalette(1, 	rand() % 16, rand() % 16,rand() % 16); //set color 1 to random color;
 8000370:	8000b080 	call	8000b08 <rand>
 8000374:	1007883a 	mov	r3,r2
 8000378:	00a00034 	movhi	r2,32768
 800037c:	108003c4 	addi	r2,r2,15
 8000380:	1884703a 	and	r2,r3,r2
 8000384:	1000040e 	bge	r2,zero,8000398 <paletteTest+0x10c>
 8000388:	10bfffc4 	addi	r2,r2,-1
 800038c:	00fffc04 	movi	r3,-16
 8000390:	10c4b03a 	or	r2,r2,r3
 8000394:	10800044 	addi	r2,r2,1
 8000398:	14003fcc 	andi	r16,r2,255
 800039c:	8000b080 	call	8000b08 <rand>
 80003a0:	1007883a 	mov	r3,r2
 80003a4:	00a00034 	movhi	r2,32768
 80003a8:	108003c4 	addi	r2,r2,15
 80003ac:	1884703a 	and	r2,r3,r2
 80003b0:	1000040e 	bge	r2,zero,80003c4 <paletteTest+0x138>
 80003b4:	10bfffc4 	addi	r2,r2,-1
 80003b8:	00fffc04 	movi	r3,-16
 80003bc:	10c4b03a 	or	r2,r2,r3
 80003c0:	10800044 	addi	r2,r2,1
 80003c4:	14403fcc 	andi	r17,r2,255
 80003c8:	8000b080 	call	8000b08 <rand>
 80003cc:	1007883a 	mov	r3,r2
 80003d0:	00a00034 	movhi	r2,32768
 80003d4:	108003c4 	addi	r2,r2,15
 80003d8:	1884703a 	and	r2,r3,r2
 80003dc:	1000040e 	bge	r2,zero,80003f0 <paletteTest+0x164>
 80003e0:	10bfffc4 	addi	r2,r2,-1
 80003e4:	00fffc04 	movi	r3,-16
 80003e8:	10c4b03a 	or	r2,r2,r3
 80003ec:	10800044 	addi	r2,r2,1
 80003f0:	10803fcc 	andi	r2,r2,255
 80003f4:	100f883a 	mov	r7,r2
 80003f8:	880d883a 	mov	r6,r17
 80003fc:	800b883a 	mov	r5,r16
 8000400:	01000044 	movi	r4,1
 8000404:	80005ac0 	call	80005ac <setColorPalette>
	for (int i = 0; i < 100; i ++)
 8000408:	e0bffd17 	ldw	r2,-12(fp)
 800040c:	10800044 	addi	r2,r2,1
 8000410:	e0bffd15 	stw	r2,-12(fp)
 8000414:	e0bffd17 	ldw	r2,-12(fp)
 8000418:	10801910 	cmplti	r2,r2,100
 800041c:	103fac1e 	bne	r2,zero,80002d0 <paletteTest+0x44>
	}

}
 8000420:	0001883a 	nop
 8000424:	e6fffe04 	addi	sp,fp,-8
 8000428:	dfc00317 	ldw	ra,12(sp)
 800042c:	df000217 	ldw	fp,8(sp)
 8000430:	dc400117 	ldw	r17,4(sp)
 8000434:	dc000017 	ldw	r16,0(sp)
 8000438:	dec00404 	addi	sp,sp,16
 800043c:	f800283a 	ret

08000440 <textVGAColorClr>:
#include <alt_types.h>
#include "text_mode_vga_color.h"
#include <stddef.h>

void textVGAColorClr()
{
 8000440:	defffe04 	addi	sp,sp,-8
 8000444:	df000115 	stw	fp,4(sp)
 8000448:	df000104 	addi	fp,sp,4
	for (int i = 0; i<(ROWS*COLUMNS) * 2; i++)
 800044c:	e03fff15 	stw	zero,-4(fp)
 8000450:	00000706 	br	8000470 <textVGAColorClr+0x30>
	{
		vga_ctrl->VRAM[i] = 0x00;
 8000454:	d0e00217 	ldw	r3,-32760(gp)
 8000458:	e0bfff17 	ldw	r2,-4(fp)
 800045c:	1885883a 	add	r2,r3,r2
 8000460:	10000005 	stb	zero,0(r2)
	for (int i = 0; i<(ROWS*COLUMNS) * 2; i++)
 8000464:	e0bfff17 	ldw	r2,-4(fp)
 8000468:	10800044 	addi	r2,r2,1
 800046c:	e0bfff15 	stw	r2,-4(fp)
 8000470:	e0bfff17 	ldw	r2,-4(fp)
 8000474:	1084b010 	cmplti	r2,r2,4800
 8000478:	103ff61e 	bne	r2,zero,8000454 <textVGAColorClr+0x14>
	}
}
 800047c:	0001883a 	nop
 8000480:	e037883a 	mov	sp,fp
 8000484:	df000017 	ldw	fp,0(sp)
 8000488:	dec00104 	addi	sp,sp,4
 800048c:	f800283a 	ret

08000490 <textVGADrawColorText>:

void textVGADrawColorText(char* str, int x, int y, alt_u8 background, alt_u8 foreground)
{
 8000490:	defff604 	addi	sp,sp,-40
 8000494:	dfc00915 	stw	ra,36(sp)
 8000498:	df000815 	stw	fp,32(sp)
 800049c:	dc400715 	stw	r17,28(sp)
 80004a0:	dc000615 	stw	r16,24(sp)
 80004a4:	df000804 	addi	fp,sp,32
 80004a8:	e13ffc15 	stw	r4,-16(fp)
 80004ac:	e17ffb15 	stw	r5,-20(fp)
 80004b0:	e1bffa15 	stw	r6,-24(fp)
 80004b4:	3807883a 	mov	r3,r7
 80004b8:	e0800217 	ldw	r2,8(fp)
 80004bc:	e0fff905 	stb	r3,-28(fp)
 80004c0:	e0bff805 	stb	r2,-32(fp)
	int i = 0;
 80004c4:	e03ffd15 	stw	zero,-12(fp)
	while (str[i]!=0)
 80004c8:	00002806 	br	800056c <textVGADrawColorText+0xdc>
	{
		vga_ctrl->VRAM[(y*COLUMNS + x + i) * 2] = foreground << 4 | background;
 80004cc:	e0bff803 	ldbu	r2,-32(fp)
 80004d0:	1004913a 	slli	r2,r2,4
 80004d4:	1007883a 	mov	r3,r2
 80004d8:	e0bff903 	ldbu	r2,-28(fp)
 80004dc:	1884b03a 	or	r2,r3,r2
 80004e0:	1023883a 	mov	r17,r2
 80004e4:	d4200217 	ldw	r16,-32760(gp)
 80004e8:	01401404 	movi	r5,80
 80004ec:	e13ffa17 	ldw	r4,-24(fp)
 80004f0:	8000acc0 	call	8000acc <__mulsi3>
 80004f4:	1007883a 	mov	r3,r2
 80004f8:	e0bffb17 	ldw	r2,-20(fp)
 80004fc:	1887883a 	add	r3,r3,r2
 8000500:	e0bffd17 	ldw	r2,-12(fp)
 8000504:	1885883a 	add	r2,r3,r2
 8000508:	1085883a 	add	r2,r2,r2
 800050c:	8807883a 	mov	r3,r17
 8000510:	8085883a 	add	r2,r16,r2
 8000514:	10c00005 	stb	r3,0(r2)
		vga_ctrl->VRAM[(y*COLUMNS + x + i) * 2 + 1] = str[i];
 8000518:	e0bffd17 	ldw	r2,-12(fp)
 800051c:	e0fffc17 	ldw	r3,-16(fp)
 8000520:	1885883a 	add	r2,r3,r2
 8000524:	14400003 	ldbu	r17,0(r2)
 8000528:	d4200217 	ldw	r16,-32760(gp)
 800052c:	01401404 	movi	r5,80
 8000530:	e13ffa17 	ldw	r4,-24(fp)
 8000534:	8000acc0 	call	8000acc <__mulsi3>
 8000538:	1007883a 	mov	r3,r2
 800053c:	e0bffb17 	ldw	r2,-20(fp)
 8000540:	1887883a 	add	r3,r3,r2
 8000544:	e0bffd17 	ldw	r2,-12(fp)
 8000548:	1885883a 	add	r2,r3,r2
 800054c:	1085883a 	add	r2,r2,r2
 8000550:	10800044 	addi	r2,r2,1
 8000554:	8807883a 	mov	r3,r17
 8000558:	8085883a 	add	r2,r16,r2
 800055c:	10c00005 	stb	r3,0(r2)
		i++;
 8000560:	e0bffd17 	ldw	r2,-12(fp)
 8000564:	10800044 	addi	r2,r2,1
 8000568:	e0bffd15 	stw	r2,-12(fp)
	while (str[i]!=0)
 800056c:	e0bffd17 	ldw	r2,-12(fp)
 8000570:	e0fffc17 	ldw	r3,-16(fp)
 8000574:	1885883a 	add	r2,r3,r2
 8000578:	10800003 	ldbu	r2,0(r2)
 800057c:	10803fcc 	andi	r2,r2,255
 8000580:	1080201c 	xori	r2,r2,128
 8000584:	10bfe004 	addi	r2,r2,-128
 8000588:	103fd01e 	bne	r2,zero,80004cc <textVGADrawColorText+0x3c>
	}
}
 800058c:	0001883a 	nop
 8000590:	e6fffe04 	addi	sp,fp,-8
 8000594:	dfc00317 	ldw	ra,12(sp)
 8000598:	df000217 	ldw	fp,8(sp)
 800059c:	dc400117 	ldw	r17,4(sp)
 80005a0:	dc000017 	ldw	r16,0(sp)
 80005a4:	dec00404 	addi	sp,sp,16
 80005a8:	f800283a 	ret

080005ac <setColorPalette>:

void setColorPalette (alt_u8 color, alt_u8 red, alt_u8 green, alt_u8 blue)
{
 80005ac:	defffb04 	addi	sp,sp,-20
 80005b0:	df000415 	stw	fp,16(sp)
 80005b4:	df000404 	addi	fp,sp,16
 80005b8:	2005883a 	mov	r2,r4
 80005bc:	3009883a 	mov	r4,r6
 80005c0:	3807883a 	mov	r3,r7
 80005c4:	e0bfff05 	stb	r2,-4(fp)
 80005c8:	2805883a 	mov	r2,r5
 80005cc:	e0bffe05 	stb	r2,-8(fp)
 80005d0:	2005883a 	mov	r2,r4
 80005d4:	e0bffd05 	stb	r2,-12(fp)
 80005d8:	1805883a 	mov	r2,r3
 80005dc:	e0bffc05 	stb	r2,-16(fp)
	//fill in this function to set the color palette starting at offset 0x0000 2000 (from base)
	if (color % 2 == 0)
 80005e0:	e0bfff03 	ldbu	r2,-4(fp)
 80005e4:	1080004c 	andi	r2,r2,1
 80005e8:	10803fcc 	andi	r2,r2,255
 80005ec:	1000171e 	bne	r2,zero,800064c <setColorPalette+0xa0>
	{
		vga_ctrl->Palette[4 * (color / 2)] =  blue << 4;
 80005f0:	d0e00217 	ldw	r3,-32760(gp)
 80005f4:	e0bfff03 	ldbu	r2,-4(fp)
 80005f8:	1004d07a 	srli	r2,r2,1
 80005fc:	10803fcc 	andi	r2,r2,255
 8000600:	100490ba 	slli	r2,r2,2
 8000604:	e13ffc03 	ldbu	r4,-16(fp)
 8000608:	2008913a 	slli	r4,r4,4
 800060c:	1885883a 	add	r2,r3,r2
 8000610:	11080005 	stb	r4,8192(r2)
		vga_ctrl->Palette[(4 * (color / 2)) + 1] = (red << 4) + green;
 8000614:	e0bffe03 	ldbu	r2,-8(fp)
 8000618:	1004913a 	slli	r2,r2,4
 800061c:	100b883a 	mov	r5,r2
 8000620:	d0e00217 	ldw	r3,-32760(gp)
 8000624:	e0bfff03 	ldbu	r2,-4(fp)
 8000628:	1004d07a 	srli	r2,r2,1
 800062c:	10803fcc 	andi	r2,r2,255
 8000630:	100490ba 	slli	r2,r2,2
 8000634:	10800044 	addi	r2,r2,1
 8000638:	e13ffd03 	ldbu	r4,-12(fp)
 800063c:	2149883a 	add	r4,r4,r5
 8000640:	1885883a 	add	r2,r3,r2
 8000644:	11080005 	stb	r4,8192(r2)
	else
	{
		vga_ctrl->Palette[(4 * (color / 2)) + 2] = (green << 4) + blue;
		vga_ctrl->Palette[(4 * (color / 2)) + 3] = red;
	}
}
 8000648:	00001606 	br	80006a4 <setColorPalette+0xf8>
		vga_ctrl->Palette[(4 * (color / 2)) + 2] = (green << 4) + blue;
 800064c:	e0bffd03 	ldbu	r2,-12(fp)
 8000650:	1004913a 	slli	r2,r2,4
 8000654:	100b883a 	mov	r5,r2
 8000658:	d0e00217 	ldw	r3,-32760(gp)
 800065c:	e0bfff03 	ldbu	r2,-4(fp)
 8000660:	1004d07a 	srli	r2,r2,1
 8000664:	10803fcc 	andi	r2,r2,255
 8000668:	100490ba 	slli	r2,r2,2
 800066c:	10800084 	addi	r2,r2,2
 8000670:	e13ffc03 	ldbu	r4,-16(fp)
 8000674:	2149883a 	add	r4,r4,r5
 8000678:	1885883a 	add	r2,r3,r2
 800067c:	11080005 	stb	r4,8192(r2)
		vga_ctrl->Palette[(4 * (color / 2)) + 3] = red;
 8000680:	d0e00217 	ldw	r3,-32760(gp)
 8000684:	e0bfff03 	ldbu	r2,-4(fp)
 8000688:	1004d07a 	srli	r2,r2,1
 800068c:	10803fcc 	andi	r2,r2,255
 8000690:	100490ba 	slli	r2,r2,2
 8000694:	108000c4 	addi	r2,r2,3
 8000698:	1885883a 	add	r2,r3,r2
 800069c:	e0fffe03 	ldbu	r3,-8(fp)
 80006a0:	10c80005 	stb	r3,8192(r2)
}
 80006a4:	0001883a 	nop
 80006a8:	e037883a 	mov	sp,fp
 80006ac:	df000017 	ldw	fp,0(sp)
 80006b0:	dec00104 	addi	sp,sp,4
 80006b4:	f800283a 	ret

080006b8 <textVGAColorScreenSaver>:


void textVGAColorScreenSaver()
{
 80006b8:	deffe104 	addi	sp,sp,-124
 80006bc:	dfc01e15 	stw	ra,120(sp)
 80006c0:	df001d15 	stw	fp,116(sp)
 80006c4:	dc801c15 	stw	r18,112(sp)
 80006c8:	dc401b15 	stw	r17,108(sp)
 80006cc:	dc001a15 	stw	r16,104(sp)
 80006d0:	df001d04 	addi	fp,sp,116
	//This is the function you call for your week 2 demo
	char color_string[80];
    int fg, bg, x, y;
	textVGAColorClr();
 80006d4:	80004400 	call	8000440 <textVGAColorClr>
	//initialize palette
	for (int i = 0; i < 16; i++)
 80006d8:	e03ffa15 	stw	zero,-24(fp)
 80006dc:	00002506 	br	8000774 <textVGAColorScreenSaver+0xbc>
	{
		setColorPalette (i, colors[i].red, colors[i].green, colors[i].blue);
 80006e0:	e0bffa17 	ldw	r2,-24(fp)
 80006e4:	14003fcc 	andi	r16,r2,255
 80006e8:	e0bffa17 	ldw	r2,-24(fp)
 80006ec:	014005c4 	movi	r5,23
 80006f0:	1009883a 	mov	r4,r2
 80006f4:	8000acc0 	call	8000acc <__mulsi3>
 80006f8:	1007883a 	mov	r3,r2
 80006fc:	00820074 	movhi	r2,2049
 8000700:	1885883a 	add	r2,r3,r2
 8000704:	10b92503 	ldbu	r2,-7020(r2)
 8000708:	14403fcc 	andi	r17,r2,255
 800070c:	e0bffa17 	ldw	r2,-24(fp)
 8000710:	014005c4 	movi	r5,23
 8000714:	1009883a 	mov	r4,r2
 8000718:	8000acc0 	call	8000acc <__mulsi3>
 800071c:	1007883a 	mov	r3,r2
 8000720:	00820074 	movhi	r2,2049
 8000724:	1885883a 	add	r2,r3,r2
 8000728:	10b92543 	ldbu	r2,-7019(r2)
 800072c:	14803fcc 	andi	r18,r2,255
 8000730:	e0bffa17 	ldw	r2,-24(fp)
 8000734:	014005c4 	movi	r5,23
 8000738:	1009883a 	mov	r4,r2
 800073c:	8000acc0 	call	8000acc <__mulsi3>
 8000740:	1007883a 	mov	r3,r2
 8000744:	00820074 	movhi	r2,2049
 8000748:	1885883a 	add	r2,r3,r2
 800074c:	10b92583 	ldbu	r2,-7018(r2)
 8000750:	10803fcc 	andi	r2,r2,255
 8000754:	100f883a 	mov	r7,r2
 8000758:	900d883a 	mov	r6,r18
 800075c:	880b883a 	mov	r5,r17
 8000760:	8009883a 	mov	r4,r16
 8000764:	80005ac0 	call	80005ac <setColorPalette>
	for (int i = 0; i < 16; i++)
 8000768:	e0bffa17 	ldw	r2,-24(fp)
 800076c:	10800044 	addi	r2,r2,1
 8000770:	e0bffa15 	stw	r2,-24(fp)
 8000774:	e0bffa17 	ldw	r2,-24(fp)
 8000778:	10800410 	cmplti	r2,r2,16
 800077c:	103fd81e 	bne	r2,zero,80006e0 <textVGAColorScreenSaver+0x28>
	}
	while (1)
	{
		fg = rand() % 16;
 8000780:	8000b080 	call	8000b08 <rand>
 8000784:	1007883a 	mov	r3,r2
 8000788:	00a00034 	movhi	r2,32768
 800078c:	108003c4 	addi	r2,r2,15
 8000790:	1884703a 	and	r2,r3,r2
 8000794:	1000040e 	bge	r2,zero,80007a8 <textVGAColorScreenSaver+0xf0>
 8000798:	10bfffc4 	addi	r2,r2,-1
 800079c:	00fffc04 	movi	r3,-16
 80007a0:	10c4b03a 	or	r2,r2,r3
 80007a4:	10800044 	addi	r2,r2,1
 80007a8:	e0bffc15 	stw	r2,-16(fp)
		bg = rand() % 16;
 80007ac:	8000b080 	call	8000b08 <rand>
 80007b0:	1007883a 	mov	r3,r2
 80007b4:	00a00034 	movhi	r2,32768
 80007b8:	108003c4 	addi	r2,r2,15
 80007bc:	1884703a 	and	r2,r3,r2
 80007c0:	1000040e 	bge	r2,zero,80007d4 <textVGAColorScreenSaver+0x11c>
 80007c4:	10bfffc4 	addi	r2,r2,-1
 80007c8:	00fffc04 	movi	r3,-16
 80007cc:	10c4b03a 	or	r2,r2,r3
 80007d0:	10800044 	addi	r2,r2,1
 80007d4:	e0bffb15 	stw	r2,-20(fp)
		while (fg == bg)
 80007d8:	00001606 	br	8000834 <textVGAColorScreenSaver+0x17c>
		{
			fg = rand() % 16;
 80007dc:	8000b080 	call	8000b08 <rand>
 80007e0:	1007883a 	mov	r3,r2
 80007e4:	00a00034 	movhi	r2,32768
 80007e8:	108003c4 	addi	r2,r2,15
 80007ec:	1884703a 	and	r2,r3,r2
 80007f0:	1000040e 	bge	r2,zero,8000804 <textVGAColorScreenSaver+0x14c>
 80007f4:	10bfffc4 	addi	r2,r2,-1
 80007f8:	00fffc04 	movi	r3,-16
 80007fc:	10c4b03a 	or	r2,r2,r3
 8000800:	10800044 	addi	r2,r2,1
 8000804:	e0bffc15 	stw	r2,-16(fp)
			bg = rand() % 16;
 8000808:	8000b080 	call	8000b08 <rand>
 800080c:	1007883a 	mov	r3,r2
 8000810:	00a00034 	movhi	r2,32768
 8000814:	108003c4 	addi	r2,r2,15
 8000818:	1884703a 	and	r2,r3,r2
 800081c:	1000040e 	bge	r2,zero,8000830 <textVGAColorScreenSaver+0x178>
 8000820:	10bfffc4 	addi	r2,r2,-1
 8000824:	00fffc04 	movi	r3,-16
 8000828:	10c4b03a 	or	r2,r2,r3
 800082c:	10800044 	addi	r2,r2,1
 8000830:	e0bffb15 	stw	r2,-20(fp)
		while (fg == bg)
 8000834:	e0fffc17 	ldw	r3,-16(fp)
 8000838:	e0bffb17 	ldw	r2,-20(fp)
 800083c:	18bfe726 	beq	r3,r2,80007dc <textVGAColorScreenSaver+0x124>
		}
		sprintf(color_string, "Drawing %s text with %s background", colors[fg].name, colors[bg].name);
 8000840:	014005c4 	movi	r5,23
 8000844:	e13ffc17 	ldw	r4,-16(fp)
 8000848:	8000acc0 	call	8000acc <__mulsi3>
 800084c:	1007883a 	mov	r3,r2
 8000850:	00820074 	movhi	r2,2049
 8000854:	10b92004 	addi	r2,r2,-7040
 8000858:	18a1883a 	add	r16,r3,r2
 800085c:	014005c4 	movi	r5,23
 8000860:	e13ffb17 	ldw	r4,-20(fp)
 8000864:	8000acc0 	call	8000acc <__mulsi3>
 8000868:	1007883a 	mov	r3,r2
 800086c:	00820074 	movhi	r2,2049
 8000870:	10b92004 	addi	r2,r2,-7040
 8000874:	1887883a 	add	r3,r3,r2
 8000878:	e0bfe404 	addi	r2,fp,-112
 800087c:	180f883a 	mov	r7,r3
 8000880:	800d883a 	mov	r6,r16
 8000884:	01420074 	movhi	r5,2049
 8000888:	2976ff04 	addi	r5,r5,-9220
 800088c:	1009883a 	mov	r4,r2
 8000890:	8000bbc0 	call	8000bbc <sprintf>
		x = rand() % (80-strlen(color_string));
 8000894:	8000b080 	call	8000b08 <rand>
 8000898:	1021883a 	mov	r16,r2
 800089c:	e0bfe404 	addi	r2,fp,-112
 80008a0:	1009883a 	mov	r4,r2
 80008a4:	8000c200 	call	8000c20 <strlen>
 80008a8:	1007883a 	mov	r3,r2
 80008ac:	00801404 	movi	r2,80
 80008b0:	10c5c83a 	sub	r2,r2,r3
 80008b4:	100b883a 	mov	r5,r2
 80008b8:	8009883a 	mov	r4,r16
 80008bc:	8000a700 	call	8000a70 <__umodsi3>
 80008c0:	e0bff915 	stw	r2,-28(fp)
		y = rand() % 30;
 80008c4:	8000b080 	call	8000b08 <rand>
 80008c8:	01400784 	movi	r5,30
 80008cc:	1009883a 	mov	r4,r2
 80008d0:	80009940 	call	8000994 <__modsi3>
 80008d4:	e0bff815 	stw	r2,-32(fp)
		textVGADrawColorText (color_string, x, y, bg, fg);
 80008d8:	e0bffb17 	ldw	r2,-20(fp)
 80008dc:	11003fcc 	andi	r4,r2,255
 80008e0:	e0bffc17 	ldw	r2,-16(fp)
 80008e4:	10803fcc 	andi	r2,r2,255
 80008e8:	e0ffe404 	addi	r3,fp,-112
 80008ec:	d8800015 	stw	r2,0(sp)
 80008f0:	200f883a 	mov	r7,r4
 80008f4:	e1bff817 	ldw	r6,-32(fp)
 80008f8:	e17ff917 	ldw	r5,-28(fp)
 80008fc:	1809883a 	mov	r4,r3
 8000900:	80004900 	call	8000490 <textVGADrawColorText>
		usleep (100000);
 8000904:	010000b4 	movhi	r4,2
 8000908:	2121a804 	addi	r4,r4,-31072
 800090c:	800bba00 	call	800bba0 <usleep>
	{
 8000910:	003f9b06 	br	8000780 <textVGAColorScreenSaver+0xc8>

08000914 <__divsi3>:
 8000914:	20001a16 	blt	r4,zero,8000980 <__divsi3+0x6c>
 8000918:	000f883a 	mov	r7,zero
 800091c:	2800020e 	bge	r5,zero,8000928 <__divsi3+0x14>
 8000920:	014bc83a 	sub	r5,zero,r5
 8000924:	39c0005c 	xori	r7,r7,1
 8000928:	200d883a 	mov	r6,r4
 800092c:	00c00044 	movi	r3,1
 8000930:	2900092e 	bgeu	r5,r4,8000958 <__divsi3+0x44>
 8000934:	00800804 	movi	r2,32
 8000938:	00c00044 	movi	r3,1
 800093c:	00000106 	br	8000944 <__divsi3+0x30>
 8000940:	10001226 	beq	r2,zero,800098c <__divsi3+0x78>
 8000944:	294b883a 	add	r5,r5,r5
 8000948:	10bfffc4 	addi	r2,r2,-1
 800094c:	18c7883a 	add	r3,r3,r3
 8000950:	293ffb36 	bltu	r5,r4,8000940 <__divsi3+0x2c>
 8000954:	18000d26 	beq	r3,zero,800098c <__divsi3+0x78>
 8000958:	0005883a 	mov	r2,zero
 800095c:	31400236 	bltu	r6,r5,8000968 <__divsi3+0x54>
 8000960:	314dc83a 	sub	r6,r6,r5
 8000964:	10c4b03a 	or	r2,r2,r3
 8000968:	1806d07a 	srli	r3,r3,1
 800096c:	280ad07a 	srli	r5,r5,1
 8000970:	183ffa1e 	bne	r3,zero,800095c <__divsi3+0x48>
 8000974:	38000126 	beq	r7,zero,800097c <__divsi3+0x68>
 8000978:	0085c83a 	sub	r2,zero,r2
 800097c:	f800283a 	ret
 8000980:	0109c83a 	sub	r4,zero,r4
 8000984:	01c00044 	movi	r7,1
 8000988:	003fe406 	br	800091c <__divsi3+0x8>
 800098c:	0005883a 	mov	r2,zero
 8000990:	003ff806 	br	8000974 <__divsi3+0x60>

08000994 <__modsi3>:
 8000994:	20001a16 	blt	r4,zero,8000a00 <__modsi3+0x6c>
 8000998:	000f883a 	mov	r7,zero
 800099c:	2005883a 	mov	r2,r4
 80009a0:	2800010e 	bge	r5,zero,80009a8 <__modsi3+0x14>
 80009a4:	014bc83a 	sub	r5,zero,r5
 80009a8:	00c00044 	movi	r3,1
 80009ac:	2900092e 	bgeu	r5,r4,80009d4 <__modsi3+0x40>
 80009b0:	01800804 	movi	r6,32
 80009b4:	00c00044 	movi	r3,1
 80009b8:	00000106 	br	80009c0 <__modsi3+0x2c>
 80009bc:	30000d26 	beq	r6,zero,80009f4 <__modsi3+0x60>
 80009c0:	294b883a 	add	r5,r5,r5
 80009c4:	31bfffc4 	addi	r6,r6,-1
 80009c8:	18c7883a 	add	r3,r3,r3
 80009cc:	293ffb36 	bltu	r5,r4,80009bc <__modsi3+0x28>
 80009d0:	18000826 	beq	r3,zero,80009f4 <__modsi3+0x60>
 80009d4:	1806d07a 	srli	r3,r3,1
 80009d8:	11400136 	bltu	r2,r5,80009e0 <__modsi3+0x4c>
 80009dc:	1145c83a 	sub	r2,r2,r5
 80009e0:	280ad07a 	srli	r5,r5,1
 80009e4:	183ffb1e 	bne	r3,zero,80009d4 <__modsi3+0x40>
 80009e8:	38000126 	beq	r7,zero,80009f0 <__modsi3+0x5c>
 80009ec:	0085c83a 	sub	r2,zero,r2
 80009f0:	f800283a 	ret
 80009f4:	2005883a 	mov	r2,r4
 80009f8:	383ffd26 	beq	r7,zero,80009f0 <__modsi3+0x5c>
 80009fc:	003ffb06 	br	80009ec <__modsi3+0x58>
 8000a00:	0109c83a 	sub	r4,zero,r4
 8000a04:	01c00044 	movi	r7,1
 8000a08:	003fe406 	br	800099c <__modsi3+0x8>

08000a0c <__udivsi3>:
 8000a0c:	200d883a 	mov	r6,r4
 8000a10:	2900152e 	bgeu	r5,r4,8000a68 <__udivsi3+0x5c>
 8000a14:	28001416 	blt	r5,zero,8000a68 <__udivsi3+0x5c>
 8000a18:	00800804 	movi	r2,32
 8000a1c:	00c00044 	movi	r3,1
 8000a20:	00000206 	br	8000a2c <__udivsi3+0x20>
 8000a24:	10000e26 	beq	r2,zero,8000a60 <__udivsi3+0x54>
 8000a28:	28000516 	blt	r5,zero,8000a40 <__udivsi3+0x34>
 8000a2c:	294b883a 	add	r5,r5,r5
 8000a30:	10bfffc4 	addi	r2,r2,-1
 8000a34:	18c7883a 	add	r3,r3,r3
 8000a38:	293ffa36 	bltu	r5,r4,8000a24 <__udivsi3+0x18>
 8000a3c:	18000826 	beq	r3,zero,8000a60 <__udivsi3+0x54>
 8000a40:	0005883a 	mov	r2,zero
 8000a44:	31400236 	bltu	r6,r5,8000a50 <__udivsi3+0x44>
 8000a48:	314dc83a 	sub	r6,r6,r5
 8000a4c:	10c4b03a 	or	r2,r2,r3
 8000a50:	1806d07a 	srli	r3,r3,1
 8000a54:	280ad07a 	srli	r5,r5,1
 8000a58:	183ffa1e 	bne	r3,zero,8000a44 <__udivsi3+0x38>
 8000a5c:	f800283a 	ret
 8000a60:	0005883a 	mov	r2,zero
 8000a64:	f800283a 	ret
 8000a68:	00c00044 	movi	r3,1
 8000a6c:	003ff406 	br	8000a40 <__udivsi3+0x34>

08000a70 <__umodsi3>:
 8000a70:	2005883a 	mov	r2,r4
 8000a74:	2900132e 	bgeu	r5,r4,8000ac4 <__umodsi3+0x54>
 8000a78:	28001216 	blt	r5,zero,8000ac4 <__umodsi3+0x54>
 8000a7c:	01800804 	movi	r6,32
 8000a80:	00c00044 	movi	r3,1
 8000a84:	00000206 	br	8000a90 <__umodsi3+0x20>
 8000a88:	30000c26 	beq	r6,zero,8000abc <__umodsi3+0x4c>
 8000a8c:	28000516 	blt	r5,zero,8000aa4 <__umodsi3+0x34>
 8000a90:	294b883a 	add	r5,r5,r5
 8000a94:	31bfffc4 	addi	r6,r6,-1
 8000a98:	18c7883a 	add	r3,r3,r3
 8000a9c:	293ffa36 	bltu	r5,r4,8000a88 <__umodsi3+0x18>
 8000aa0:	18000626 	beq	r3,zero,8000abc <__umodsi3+0x4c>
 8000aa4:	1806d07a 	srli	r3,r3,1
 8000aa8:	11400136 	bltu	r2,r5,8000ab0 <__umodsi3+0x40>
 8000aac:	1145c83a 	sub	r2,r2,r5
 8000ab0:	280ad07a 	srli	r5,r5,1
 8000ab4:	183ffb1e 	bne	r3,zero,8000aa4 <__umodsi3+0x34>
 8000ab8:	f800283a 	ret
 8000abc:	2005883a 	mov	r2,r4
 8000ac0:	f800283a 	ret
 8000ac4:	00c00044 	movi	r3,1
 8000ac8:	003ff606 	br	8000aa4 <__umodsi3+0x34>

08000acc <__mulsi3>:
 8000acc:	0005883a 	mov	r2,zero
 8000ad0:	20000726 	beq	r4,zero,8000af0 <__mulsi3+0x24>
 8000ad4:	20c0004c 	andi	r3,r4,1
 8000ad8:	2008d07a 	srli	r4,r4,1
 8000adc:	18000126 	beq	r3,zero,8000ae4 <__mulsi3+0x18>
 8000ae0:	1145883a 	add	r2,r2,r5
 8000ae4:	294b883a 	add	r5,r5,r5
 8000ae8:	203ffa1e 	bne	r4,zero,8000ad4 <__mulsi3+0x8>
 8000aec:	f800283a 	ret
 8000af0:	f800283a 	ret

08000af4 <srand>:
 8000af4:	00820074 	movhi	r2,2049
 8000af8:	10806817 	ldw	r2,416(r2)
 8000afc:	11002915 	stw	r4,164(r2)
 8000b00:	10002a15 	stw	zero,168(r2)
 8000b04:	f800283a 	ret

08000b08 <rand>:
 8000b08:	defffe04 	addi	sp,sp,-8
 8000b0c:	00820074 	movhi	r2,2049
 8000b10:	dc000015 	stw	r16,0(sp)
 8000b14:	14006817 	ldw	r16,416(r2)
 8000b18:	dfc00115 	stw	ra,4(sp)
 8000b1c:	01932574 	movhi	r6,19605
 8000b20:	81002917 	ldw	r4,164(r16)
 8000b24:	81402a17 	ldw	r5,168(r16)
 8000b28:	01d614b4 	movhi	r7,22610
 8000b2c:	319fcb44 	addi	r6,r6,32557
 8000b30:	39fd0b44 	addi	r7,r7,-3027
 8000b34:	80083180 	call	8008318 <__muldi3>
 8000b38:	11400044 	addi	r5,r2,1
 8000b3c:	2885803a 	cmpltu	r2,r5,r2
 8000b40:	01200034 	movhi	r4,32768
 8000b44:	10c5883a 	add	r2,r2,r3
 8000b48:	213fffc4 	addi	r4,r4,-1
 8000b4c:	80802a15 	stw	r2,168(r16)
 8000b50:	1104703a 	and	r2,r2,r4
 8000b54:	81402915 	stw	r5,164(r16)
 8000b58:	dfc00117 	ldw	ra,4(sp)
 8000b5c:	dc000017 	ldw	r16,0(sp)
 8000b60:	dec00204 	addi	sp,sp,8
 8000b64:	f800283a 	ret

08000b68 <_sprintf_r>:
 8000b68:	deffe404 	addi	sp,sp,-112
 8000b6c:	2811883a 	mov	r8,r5
 8000b70:	dfc01a15 	stw	ra,104(sp)
 8000b74:	d9c01b15 	stw	r7,108(sp)
 8000b78:	00a00034 	movhi	r2,32768
 8000b7c:	00fffff4 	movhi	r3,65535
 8000b80:	10bfffc4 	addi	r2,r2,-1
 8000b84:	18c08204 	addi	r3,r3,520
 8000b88:	d9c01b04 	addi	r7,sp,108
 8000b8c:	d80b883a 	mov	r5,sp
 8000b90:	d8c00315 	stw	r3,12(sp)
 8000b94:	da000015 	stw	r8,0(sp)
 8000b98:	da000415 	stw	r8,16(sp)
 8000b9c:	d8800515 	stw	r2,20(sp)
 8000ba0:	d8800215 	stw	r2,8(sp)
 8000ba4:	8000cb80 	call	8000cb8 <___svfprintf_internal_r>
 8000ba8:	d8c00017 	ldw	r3,0(sp)
 8000bac:	18000005 	stb	zero,0(r3)
 8000bb0:	dfc01a17 	ldw	ra,104(sp)
 8000bb4:	dec01c04 	addi	sp,sp,112
 8000bb8:	f800283a 	ret

08000bbc <sprintf>:
 8000bbc:	deffe304 	addi	sp,sp,-116
 8000bc0:	2011883a 	mov	r8,r4
 8000bc4:	dfc01a15 	stw	ra,104(sp)
 8000bc8:	d9801b15 	stw	r6,108(sp)
 8000bcc:	d9c01c15 	stw	r7,112(sp)
 8000bd0:	00820074 	movhi	r2,2049
 8000bd4:	11006817 	ldw	r4,416(r2)
 8000bd8:	00fffff4 	movhi	r3,65535
 8000bdc:	00a00034 	movhi	r2,32768
 8000be0:	10bfffc4 	addi	r2,r2,-1
 8000be4:	18c08204 	addi	r3,r3,520
 8000be8:	280d883a 	mov	r6,r5
 8000bec:	d9c01b04 	addi	r7,sp,108
 8000bf0:	d80b883a 	mov	r5,sp
 8000bf4:	d8c00315 	stw	r3,12(sp)
 8000bf8:	da000015 	stw	r8,0(sp)
 8000bfc:	da000415 	stw	r8,16(sp)
 8000c00:	d8800515 	stw	r2,20(sp)
 8000c04:	d8800215 	stw	r2,8(sp)
 8000c08:	8000cb80 	call	8000cb8 <___svfprintf_internal_r>
 8000c0c:	d8c00017 	ldw	r3,0(sp)
 8000c10:	18000005 	stb	zero,0(r3)
 8000c14:	dfc01a17 	ldw	ra,104(sp)
 8000c18:	dec01d04 	addi	sp,sp,116
 8000c1c:	f800283a 	ret

08000c20 <strlen>:
 8000c20:	208000cc 	andi	r2,r4,3
 8000c24:	10002026 	beq	r2,zero,8000ca8 <strlen+0x88>
 8000c28:	20800007 	ldb	r2,0(r4)
 8000c2c:	10002026 	beq	r2,zero,8000cb0 <strlen+0x90>
 8000c30:	2005883a 	mov	r2,r4
 8000c34:	00000206 	br	8000c40 <strlen+0x20>
 8000c38:	10c00007 	ldb	r3,0(r2)
 8000c3c:	18001826 	beq	r3,zero,8000ca0 <strlen+0x80>
 8000c40:	10800044 	addi	r2,r2,1
 8000c44:	10c000cc 	andi	r3,r2,3
 8000c48:	183ffb1e 	bne	r3,zero,8000c38 <strlen+0x18>
 8000c4c:	11400017 	ldw	r5,0(r2)
 8000c50:	01ffbff4 	movhi	r7,65279
 8000c54:	39ffbfc4 	addi	r7,r7,-257
 8000c58:	29c7883a 	add	r3,r5,r7
 8000c5c:	01a02074 	movhi	r6,32897
 8000c60:	014a303a 	nor	r5,zero,r5
 8000c64:	1946703a 	and	r3,r3,r5
 8000c68:	31a02004 	addi	r6,r6,-32640
 8000c6c:	1986703a 	and	r3,r3,r6
 8000c70:	1800091e 	bne	r3,zero,8000c98 <strlen+0x78>
 8000c74:	10800104 	addi	r2,r2,4
 8000c78:	11400017 	ldw	r5,0(r2)
 8000c7c:	29c7883a 	add	r3,r5,r7
 8000c80:	014a303a 	nor	r5,zero,r5
 8000c84:	1946703a 	and	r3,r3,r5
 8000c88:	1986703a 	and	r3,r3,r6
 8000c8c:	183ff926 	beq	r3,zero,8000c74 <strlen+0x54>
 8000c90:	00000106 	br	8000c98 <strlen+0x78>
 8000c94:	10800044 	addi	r2,r2,1
 8000c98:	10c00007 	ldb	r3,0(r2)
 8000c9c:	183ffd1e 	bne	r3,zero,8000c94 <strlen+0x74>
 8000ca0:	1105c83a 	sub	r2,r2,r4
 8000ca4:	f800283a 	ret
 8000ca8:	2005883a 	mov	r2,r4
 8000cac:	003fe706 	br	8000c4c <strlen+0x2c>
 8000cb0:	0005883a 	mov	r2,zero
 8000cb4:	f800283a 	ret

08000cb8 <___svfprintf_internal_r>:
 8000cb8:	deffbd04 	addi	sp,sp,-268
 8000cbc:	dfc04215 	stw	ra,264(sp)
 8000cc0:	dd403e15 	stw	r21,248(sp)
 8000cc4:	dcc03c15 	stw	r19,240(sp)
 8000cc8:	d9000515 	stw	r4,20(sp)
 8000ccc:	2827883a 	mov	r19,r5
 8000cd0:	302b883a 	mov	r21,r6
 8000cd4:	d9c00615 	stw	r7,24(sp)
 8000cd8:	df004115 	stw	fp,260(sp)
 8000cdc:	ddc04015 	stw	r23,256(sp)
 8000ce0:	dd803f15 	stw	r22,252(sp)
 8000ce4:	dd003d15 	stw	r20,244(sp)
 8000ce8:	dc803b15 	stw	r18,236(sp)
 8000cec:	dc403a15 	stw	r17,232(sp)
 8000cf0:	dc003915 	stw	r16,228(sp)
 8000cf4:	80046fc0 	call	80046fc <_localeconv_r>
 8000cf8:	10800017 	ldw	r2,0(r2)
 8000cfc:	1009883a 	mov	r4,r2
 8000d00:	d8800d15 	stw	r2,52(sp)
 8000d04:	8000c200 	call	8000c20 <strlen>
 8000d08:	d8800b15 	stw	r2,44(sp)
 8000d0c:	9880030b 	ldhu	r2,12(r19)
 8000d10:	1080200c 	andi	r2,r2,128
 8000d14:	10000226 	beq	r2,zero,8000d20 <___svfprintf_internal_r+0x68>
 8000d18:	98800417 	ldw	r2,16(r19)
 8000d1c:	1005a126 	beq	r2,zero,80023a4 <___svfprintf_internal_r+0x16ec>
 8000d20:	ddc02904 	addi	r23,sp,164
 8000d24:	ddc01c15 	stw	r23,112(sp)
 8000d28:	d8001e15 	stw	zero,120(sp)
 8000d2c:	d8001d15 	stw	zero,116(sp)
 8000d30:	d8000815 	stw	zero,32(sp)
 8000d34:	d8000915 	stw	zero,36(sp)
 8000d38:	d8000a15 	stw	zero,40(sp)
 8000d3c:	b811883a 	mov	r8,r23
 8000d40:	d8000c15 	stw	zero,48(sp)
 8000d44:	d8001115 	stw	zero,68(sp)
 8000d48:	d8000415 	stw	zero,16(sp)
 8000d4c:	a82d883a 	mov	r22,r21
 8000d50:	b0800007 	ldb	r2,0(r22)
 8000d54:	10009126 	beq	r2,zero,8000f9c <___svfprintf_internal_r+0x2e4>
 8000d58:	10800960 	cmpeqi	r2,r2,37
 8000d5c:	1004fd1e 	bne	r2,zero,8002154 <___svfprintf_internal_r+0x149c>
 8000d60:	b021883a 	mov	r16,r22
 8000d64:	00000206 	br	8000d70 <___svfprintf_internal_r+0xb8>
 8000d68:	18008226 	beq	r3,zero,8000f74 <___svfprintf_internal_r+0x2bc>
 8000d6c:	8821883a 	mov	r16,r17
 8000d70:	80800047 	ldb	r2,1(r16)
 8000d74:	84400044 	addi	r17,r16,1
 8000d78:	10c00958 	cmpnei	r3,r2,37
 8000d7c:	103ffa1e 	bne	r2,zero,8000d68 <___svfprintf_internal_r+0xb0>
 8000d80:	8da5c83a 	sub	r18,r17,r22
 8000d84:	90008526 	beq	r18,zero,8000f9c <___svfprintf_internal_r+0x2e4>
 8000d88:	d8c01e17 	ldw	r3,120(sp)
 8000d8c:	d8801d17 	ldw	r2,116(sp)
 8000d90:	45800015 	stw	r22,0(r8)
 8000d94:	1c87883a 	add	r3,r3,r18
 8000d98:	10800044 	addi	r2,r2,1
 8000d9c:	d8801d15 	stw	r2,116(sp)
 8000da0:	44800115 	stw	r18,4(r8)
 8000da4:	d8c01e15 	stw	r3,120(sp)
 8000da8:	10800208 	cmpgei	r2,r2,8
 8000dac:	1000741e 	bne	r2,zero,8000f80 <___svfprintf_internal_r+0x2c8>
 8000db0:	42000204 	addi	r8,r8,8
 8000db4:	d8c00417 	ldw	r3,16(sp)
 8000db8:	80800047 	ldb	r2,1(r16)
 8000dbc:	1c87883a 	add	r3,r3,r18
 8000dc0:	d8c00415 	stw	r3,16(sp)
 8000dc4:	10007526 	beq	r2,zero,8000f9c <___svfprintf_internal_r+0x2e4>
 8000dc8:	8a800047 	ldb	r10,1(r17)
 8000dcc:	8d800044 	addi	r22,r17,1
 8000dd0:	d8001545 	stb	zero,85(sp)
 8000dd4:	0009883a 	mov	r4,zero
 8000dd8:	000b883a 	mov	r5,zero
 8000ddc:	02ffffc4 	movi	r11,-1
 8000de0:	0021883a 	mov	r16,zero
 8000de4:	0019883a 	mov	r12,zero
 8000de8:	b5800044 	addi	r22,r22,1
 8000dec:	5039883a 	mov	fp,r10
 8000df0:	e0bff804 	addi	r2,fp,-32
 8000df4:	10c01668 	cmpgeui	r3,r2,89
 8000df8:	18008c1e 	bne	r3,zero,800102c <___svfprintf_internal_r+0x374>
 8000dfc:	100490ba 	slli	r2,r2,2
 8000e00:	00c20034 	movhi	r3,2048
 8000e04:	10c7883a 	add	r3,r2,r3
 8000e08:	18838417 	ldw	r2,3600(r3)
 8000e0c:	1000683a 	jmp	r2
 8000e10:	08001104 	addi	zero,at,68
 8000e14:	0800102c 	andhi	zero,at,64
 8000e18:	0800102c 	andhi	zero,at,64
 8000e1c:	080010f8 	rdprs	zero,at,67
 8000e20:	0800102c 	andhi	zero,at,64
 8000e24:	0800102c 	andhi	zero,at,64
 8000e28:	0800102c 	andhi	zero,at,64
 8000e2c:	0800102c 	andhi	zero,at,64
 8000e30:	0800102c 	andhi	zero,at,64
 8000e34:	0800102c 	andhi	zero,at,64
 8000e38:	080010d0 	cmplti	zero,at,67
 8000e3c:	080010c0 	call	80010c <__alt_mem_onchip_memory2_0+0x80010c>
 8000e40:	0800102c 	andhi	zero,at,64
 8000e44:	080010a8 	cmpgeui	zero,at,66
 8000e48:	0800105c 	xori	zero,at,65
 8000e4c:	0800102c 	andhi	zero,at,64
 8000e50:	08001050 	cmplti	zero,at,65
 8000e54:	08000ff4 	orhi	zero,at,63
 8000e58:	08000ff4 	orhi	zero,at,63
 8000e5c:	08000ff4 	orhi	zero,at,63
 8000e60:	08000ff4 	orhi	zero,at,63
 8000e64:	08000ff4 	orhi	zero,at,63
 8000e68:	08000ff4 	orhi	zero,at,63
 8000e6c:	08000ff4 	orhi	zero,at,63
 8000e70:	08000ff4 	orhi	zero,at,63
 8000e74:	08000ff4 	orhi	zero,at,63
 8000e78:	0800102c 	andhi	zero,at,64
 8000e7c:	0800102c 	andhi	zero,at,64
 8000e80:	0800102c 	andhi	zero,at,64
 8000e84:	0800102c 	andhi	zero,at,64
 8000e88:	0800102c 	andhi	zero,at,64
 8000e8c:	0800102c 	andhi	zero,at,64
 8000e90:	0800102c 	andhi	zero,at,64
 8000e94:	0800102c 	andhi	zero,at,64
 8000e98:	0800102c 	andhi	zero,at,64
 8000e9c:	0800102c 	andhi	zero,at,64
 8000ea0:	080016b8 	rdprs	zero,at,90
 8000ea4:	080015d8 	cmpnei	zero,at,87
 8000ea8:	0800102c 	andhi	zero,at,64
 8000eac:	080015d8 	cmpnei	zero,at,87
 8000eb0:	0800102c 	andhi	zero,at,64
 8000eb4:	0800102c 	andhi	zero,at,64
 8000eb8:	0800102c 	andhi	zero,at,64
 8000ebc:	0800102c 	andhi	zero,at,64
 8000ec0:	0800180c 	andi	zero,at,96
 8000ec4:	0800102c 	andhi	zero,at,64
 8000ec8:	0800102c 	andhi	zero,at,64
 8000ecc:	080015a4 	muli	zero,at,86
 8000ed0:	0800102c 	andhi	zero,at,64
 8000ed4:	0800102c 	andhi	zero,at,64
 8000ed8:	0800102c 	andhi	zero,at,64
 8000edc:	0800102c 	andhi	zero,at,64
 8000ee0:	0800102c 	andhi	zero,at,64
 8000ee4:	080017d8 	cmpnei	zero,at,95
 8000ee8:	0800102c 	andhi	zero,at,64
 8000eec:	0800102c 	andhi	zero,at,64
 8000ef0:	08001790 	cmplti	zero,at,94
 8000ef4:	0800102c 	andhi	zero,at,64
 8000ef8:	0800102c 	andhi	zero,at,64
 8000efc:	0800102c 	andhi	zero,at,64
 8000f00:	0800102c 	andhi	zero,at,64
 8000f04:	0800102c 	andhi	zero,at,64
 8000f08:	0800102c 	andhi	zero,at,64
 8000f0c:	0800102c 	andhi	zero,at,64
 8000f10:	0800102c 	andhi	zero,at,64
 8000f14:	0800102c 	andhi	zero,at,64
 8000f18:	0800102c 	andhi	zero,at,64
 8000f1c:	0800128c 	andi	zero,at,74
 8000f20:	08001218 	cmpnei	zero,at,72
 8000f24:	080015d8 	cmpnei	zero,at,87
 8000f28:	080015d8 	cmpnei	zero,at,87
 8000f2c:	080015d8 	cmpnei	zero,at,87
 8000f30:	08001510 	cmplti	zero,at,84
 8000f34:	08001218 	cmpnei	zero,at,72
 8000f38:	0800102c 	andhi	zero,at,64
 8000f3c:	0800102c 	andhi	zero,at,64
 8000f40:	080014fc 	xorhi	zero,at,83
 8000f44:	0800102c 	andhi	zero,at,64
 8000f48:	080014bc 	xorhi	zero,at,82
 8000f4c:	0800147c 	xorhi	zero,at,81
 8000f50:	08001528 	cmpgeui	zero,at,84
 8000f54:	0800151c 	xori	zero,at,84
 8000f58:	0800102c 	andhi	zero,at,64
 8000f5c:	080011b8 	rdprs	zero,at,70
 8000f60:	0800102c 	andhi	zero,at,64
 8000f64:	08001178 	rdprs	zero,at,69
 8000f68:	0800102c 	andhi	zero,at,64
 8000f6c:	0800102c 	andhi	zero,at,64
 8000f70:	08001130 	cmpltui	zero,at,68
 8000f74:	8da5c83a 	sub	r18,r17,r22
 8000f78:	903f9326 	beq	r18,zero,8000dc8 <___svfprintf_internal_r+0x110>
 8000f7c:	003f8206 	br	8000d88 <___svfprintf_internal_r+0xd0>
 8000f80:	d9000517 	ldw	r4,20(sp)
 8000f84:	d9801c04 	addi	r6,sp,112
 8000f88:	980b883a 	mov	r5,r19
 8000f8c:	80060fc0 	call	80060fc <__ssprint_r>
 8000f90:	1000081e 	bne	r2,zero,8000fb4 <___svfprintf_internal_r+0x2fc>
 8000f94:	b811883a 	mov	r8,r23
 8000f98:	003f8606 	br	8000db4 <___svfprintf_internal_r+0xfc>
 8000f9c:	d8801e17 	ldw	r2,120(sp)
 8000fa0:	10000426 	beq	r2,zero,8000fb4 <___svfprintf_internal_r+0x2fc>
 8000fa4:	d9000517 	ldw	r4,20(sp)
 8000fa8:	d9801c04 	addi	r6,sp,112
 8000fac:	980b883a 	mov	r5,r19
 8000fb0:	80060fc0 	call	80060fc <__ssprint_r>
 8000fb4:	9880030b 	ldhu	r2,12(r19)
 8000fb8:	1080100c 	andi	r2,r2,64
 8000fbc:	1007371e 	bne	r2,zero,8002c9c <___svfprintf_internal_r+0x1fe4>
 8000fc0:	d8800417 	ldw	r2,16(sp)
 8000fc4:	dfc04217 	ldw	ra,264(sp)
 8000fc8:	df004117 	ldw	fp,260(sp)
 8000fcc:	ddc04017 	ldw	r23,256(sp)
 8000fd0:	dd803f17 	ldw	r22,252(sp)
 8000fd4:	dd403e17 	ldw	r21,248(sp)
 8000fd8:	dd003d17 	ldw	r20,244(sp)
 8000fdc:	dcc03c17 	ldw	r19,240(sp)
 8000fe0:	dc803b17 	ldw	r18,236(sp)
 8000fe4:	dc403a17 	ldw	r17,232(sp)
 8000fe8:	dc003917 	ldw	r16,228(sp)
 8000fec:	dec04304 	addi	sp,sp,268
 8000ff0:	f800283a 	ret
 8000ff4:	0021883a 	mov	r16,zero
 8000ff8:	e0fff404 	addi	r3,fp,-48
 8000ffc:	800490ba 	slli	r2,r16,2
 8001000:	b5800044 	addi	r22,r22,1
 8001004:	b73fffc7 	ldb	fp,-1(r22)
 8001008:	1421883a 	add	r16,r2,r16
 800100c:	8421883a 	add	r16,r16,r16
 8001010:	1c21883a 	add	r16,r3,r16
 8001014:	e0fff404 	addi	r3,fp,-48
 8001018:	188002b0 	cmpltui	r2,r3,10
 800101c:	103ff71e 	bne	r2,zero,8000ffc <___svfprintf_internal_r+0x344>
 8001020:	e0bff804 	addi	r2,fp,-32
 8001024:	10c01668 	cmpgeui	r3,r2,89
 8001028:	183f7426 	beq	r3,zero,8000dfc <___svfprintf_internal_r+0x144>
 800102c:	21003fcc 	andi	r4,r4,255
 8001030:	2006931e 	bne	r4,zero,8002a80 <___svfprintf_internal_r+0x1dc8>
 8001034:	e03fd926 	beq	fp,zero,8000f9c <___svfprintf_internal_r+0x2e4>
 8001038:	df001f05 	stb	fp,124(sp)
 800103c:	d8001545 	stb	zero,85(sp)
 8001040:	05000044 	movi	r20,1
 8001044:	05400044 	movi	r21,1
 8001048:	dc401f04 	addi	r17,sp,124
 800104c:	00009806 	br	80012b0 <___svfprintf_internal_r+0x5f8>
 8001050:	63002014 	ori	r12,r12,128
 8001054:	b2800007 	ldb	r10,0(r22)
 8001058:	003f6306 	br	8000de8 <___svfprintf_internal_r+0x130>
 800105c:	b7000007 	ldb	fp,0(r22)
 8001060:	b0800044 	addi	r2,r22,1
 8001064:	e0c00aa0 	cmpeqi	r3,fp,42
 8001068:	1807511e 	bne	r3,zero,8002db0 <___svfprintf_internal_r+0x20f8>
 800106c:	e0fff404 	addi	r3,fp,-48
 8001070:	198002b0 	cmpltui	r6,r3,10
 8001074:	102d883a 	mov	r22,r2
 8001078:	0017883a 	mov	r11,zero
 800107c:	303f5c26 	beq	r6,zero,8000df0 <___svfprintf_internal_r+0x138>
 8001080:	580490ba 	slli	r2,r11,2
 8001084:	b5800044 	addi	r22,r22,1
 8001088:	b73fffc7 	ldb	fp,-1(r22)
 800108c:	12d7883a 	add	r11,r2,r11
 8001090:	5ad7883a 	add	r11,r11,r11
 8001094:	58d7883a 	add	r11,r11,r3
 8001098:	e0fff404 	addi	r3,fp,-48
 800109c:	188002b0 	cmpltui	r2,r3,10
 80010a0:	103ff71e 	bne	r2,zero,8001080 <___svfprintf_internal_r+0x3c8>
 80010a4:	003f5206 	br	8000df0 <___svfprintf_internal_r+0x138>
 80010a8:	b7000003 	ldbu	fp,0(r22)
 80010ac:	e2803fcc 	andi	r10,fp,255
 80010b0:	5280201c 	xori	r10,r10,128
 80010b4:	63000114 	ori	r12,r12,4
 80010b8:	52bfe004 	addi	r10,r10,-128
 80010bc:	003f4a06 	br	8000de8 <___svfprintf_internal_r+0x130>
 80010c0:	01000044 	movi	r4,1
 80010c4:	01400ac4 	movi	r5,43
 80010c8:	b2800007 	ldb	r10,0(r22)
 80010cc:	003f4606 	br	8000de8 <___svfprintf_internal_r+0x130>
 80010d0:	d8800617 	ldw	r2,24(sp)
 80010d4:	b7000003 	ldbu	fp,0(r22)
 80010d8:	14000017 	ldw	r16,0(r2)
 80010dc:	10800104 	addi	r2,r2,4
 80010e0:	80049316 	blt	r16,zero,8002330 <___svfprintf_internal_r+0x1678>
 80010e4:	d8800615 	stw	r2,24(sp)
 80010e8:	e2803fcc 	andi	r10,fp,255
 80010ec:	5280201c 	xori	r10,r10,128
 80010f0:	52bfe004 	addi	r10,r10,-128
 80010f4:	003f3c06 	br	8000de8 <___svfprintf_internal_r+0x130>
 80010f8:	63000054 	ori	r12,r12,1
 80010fc:	b2800007 	ldb	r10,0(r22)
 8001100:	003f3906 	br	8000de8 <___svfprintf_internal_r+0x130>
 8001104:	28803fcc 	andi	r2,r5,255
 8001108:	1080201c 	xori	r2,r2,128
 800110c:	10bfe004 	addi	r2,r2,-128
 8001110:	b7000003 	ldbu	fp,0(r22)
 8001114:	103ff41e 	bne	r2,zero,80010e8 <___svfprintf_internal_r+0x430>
 8001118:	e2803fcc 	andi	r10,fp,255
 800111c:	5280201c 	xori	r10,r10,128
 8001120:	01000044 	movi	r4,1
 8001124:	01400804 	movi	r5,32
 8001128:	52bfe004 	addi	r10,r10,-128
 800112c:	003f2e06 	br	8000de8 <___svfprintf_internal_r+0x130>
 8001130:	21003fcc 	andi	r4,r4,255
 8001134:	2006b51e 	bne	r4,zero,8002c0c <___svfprintf_internal_r+0x1f54>
 8001138:	00820074 	movhi	r2,2049
 800113c:	10b71104 	addi	r2,r2,-9148
 8001140:	d8800c15 	stw	r2,48(sp)
 8001144:	6080080c 	andi	r2,r12,32
 8001148:	10019826 	beq	r2,zero,80017ac <___svfprintf_internal_r+0xaf4>
 800114c:	d8800617 	ldw	r2,24(sp)
 8001150:	15000017 	ldw	r20,0(r2)
 8001154:	15400117 	ldw	r21,4(r2)
 8001158:	10800204 	addi	r2,r2,8
 800115c:	d8800615 	stw	r2,24(sp)
 8001160:	6080004c 	andi	r2,r12,1
 8001164:	10000226 	beq	r2,zero,8001170 <___svfprintf_internal_r+0x4b8>
 8001168:	a544b03a 	or	r2,r20,r21
 800116c:	10046a1e 	bne	r2,zero,8002318 <___svfprintf_internal_r+0x1660>
 8001170:	00800084 	movi	r2,2
 8001174:	0000fb06 	br	8001564 <___svfprintf_internal_r+0x8ac>
 8001178:	21003fcc 	andi	r4,r4,255
 800117c:	20069f1e 	bne	r4,zero,8002bfc <___svfprintf_internal_r+0x1f44>
 8001180:	6080080c 	andi	r2,r12,32
 8001184:	1001a41e 	bne	r2,zero,8001818 <___svfprintf_internal_r+0xb60>
 8001188:	d8800617 	ldw	r2,24(sp)
 800118c:	60c0040c 	andi	r3,r12,16
 8001190:	15000017 	ldw	r20,0(r2)
 8001194:	10800104 	addi	r2,r2,4
 8001198:	1801961e 	bne	r3,zero,80017f4 <___svfprintf_internal_r+0xb3c>
 800119c:	60c0100c 	andi	r3,r12,64
 80011a0:	1805b126 	beq	r3,zero,8002868 <___svfprintf_internal_r+0x1bb0>
 80011a4:	d8800615 	stw	r2,24(sp)
 80011a8:	a53fffcc 	andi	r20,r20,65535
 80011ac:	002b883a 	mov	r21,zero
 80011b0:	00800044 	movi	r2,1
 80011b4:	0000eb06 	br	8001564 <___svfprintf_internal_r+0x8ac>
 80011b8:	d8800617 	ldw	r2,24(sp)
 80011bc:	d8001545 	stb	zero,85(sp)
 80011c0:	14400017 	ldw	r17,0(r2)
 80011c4:	14800104 	addi	r18,r2,4
 80011c8:	88051426 	beq	r17,zero,800261c <___svfprintf_internal_r+0x1964>
 80011cc:	da000e15 	stw	r8,56(sp)
 80011d0:	db000715 	stw	r12,28(sp)
 80011d4:	58bfffe0 	cmpeqi	r2,r11,-1
 80011d8:	10046a1e 	bne	r2,zero,8002384 <___svfprintf_internal_r+0x16cc>
 80011dc:	580d883a 	mov	r6,r11
 80011e0:	000b883a 	mov	r5,zero
 80011e4:	8809883a 	mov	r4,r17
 80011e8:	dac00615 	stw	r11,24(sp)
 80011ec:	8004f080 	call	8004f08 <memchr>
 80011f0:	dac00617 	ldw	r11,24(sp)
 80011f4:	db000717 	ldw	r12,28(sp)
 80011f8:	da000e17 	ldw	r8,56(sp)
 80011fc:	10066d26 	beq	r2,zero,8002bb4 <___svfprintf_internal_r+0x1efc>
 8001200:	146bc83a 	sub	r21,r2,r17
 8001204:	a829883a 	mov	r20,r21
 8001208:	a800010e 	bge	r21,zero,8001210 <___svfprintf_internal_r+0x558>
 800120c:	0029883a 	mov	r20,zero
 8001210:	dc800615 	stw	r18,24(sp)
 8001214:	00002606 	br	80012b0 <___svfprintf_internal_r+0x5f8>
 8001218:	21003fcc 	andi	r4,r4,255
 800121c:	2006811e 	bne	r4,zero,8002c24 <___svfprintf_internal_r+0x1f6c>
 8001220:	6080080c 	andi	r2,r12,32
 8001224:	1001831e 	bne	r2,zero,8001834 <___svfprintf_internal_r+0xb7c>
 8001228:	d8800617 	ldw	r2,24(sp)
 800122c:	60c0040c 	andi	r3,r12,16
 8001230:	10800104 	addi	r2,r2,4
 8001234:	1801271e 	bne	r3,zero,80016d4 <___svfprintf_internal_r+0xa1c>
 8001238:	60c0100c 	andi	r3,r12,64
 800123c:	18012526 	beq	r3,zero,80016d4 <___svfprintf_internal_r+0xa1c>
 8001240:	d8c00617 	ldw	r3,24(sp)
 8001244:	d8800615 	stw	r2,24(sp)
 8001248:	1d00000f 	ldh	r20,0(r3)
 800124c:	a02bd7fa 	srai	r21,r20,31
 8001250:	a805883a 	mov	r2,r21
 8001254:	10012516 	blt	r2,zero,80016ec <___svfprintf_internal_r+0xa34>
 8001258:	58bfffd8 	cmpnei	r2,r11,-1
 800125c:	db401543 	ldbu	r13,85(sp)
 8001260:	10018226 	beq	r2,zero,800186c <___svfprintf_internal_r+0xbb4>
 8001264:	00ffdfc4 	movi	r3,-129
 8001268:	a544b03a 	or	r2,r20,r21
 800126c:	60d8703a 	and	r12,r12,r3
 8001270:	10017e1e 	bne	r2,zero,800186c <___svfprintf_internal_r+0xbb4>
 8001274:	5801801e 	bne	r11,zero,8001878 <___svfprintf_internal_r+0xbc0>
 8001278:	6025883a 	mov	r18,r12
 800127c:	0017883a 	mov	r11,zero
 8001280:	002b883a 	mov	r21,zero
 8001284:	b823883a 	mov	r17,r23
 8001288:	00018006 	br	800188c <___svfprintf_internal_r+0xbd4>
 800128c:	d8c00617 	ldw	r3,24(sp)
 8001290:	d8001545 	stb	zero,85(sp)
 8001294:	05000044 	movi	r20,1
 8001298:	18800017 	ldw	r2,0(r3)
 800129c:	18c00104 	addi	r3,r3,4
 80012a0:	d8c00615 	stw	r3,24(sp)
 80012a4:	d8801f05 	stb	r2,124(sp)
 80012a8:	05400044 	movi	r21,1
 80012ac:	dc401f04 	addi	r17,sp,124
 80012b0:	6025883a 	mov	r18,r12
 80012b4:	0017883a 	mov	r11,zero
 80012b8:	d8000715 	stw	zero,28(sp)
 80012bc:	9380008c 	andi	r14,r18,2
 80012c0:	70000126 	beq	r14,zero,80012c8 <___svfprintf_internal_r+0x610>
 80012c4:	a5000084 	addi	r20,r20,2
 80012c8:	9340210c 	andi	r13,r18,132
 80012cc:	d8c01e17 	ldw	r3,120(sp)
 80012d0:	6800021e 	bne	r13,zero,80012dc <___svfprintf_internal_r+0x624>
 80012d4:	850fc83a 	sub	r7,r16,r20
 80012d8:	01c2a616 	blt	zero,r7,8001d74 <___svfprintf_internal_r+0x10bc>
 80012dc:	d8801547 	ldb	r2,85(sp)
 80012e0:	10000c26 	beq	r2,zero,8001314 <___svfprintf_internal_r+0x65c>
 80012e4:	d8801d17 	ldw	r2,116(sp)
 80012e8:	d9001544 	addi	r4,sp,85
 80012ec:	18c00044 	addi	r3,r3,1
 80012f0:	10800044 	addi	r2,r2,1
 80012f4:	41000015 	stw	r4,0(r8)
 80012f8:	01000044 	movi	r4,1
 80012fc:	d8801d15 	stw	r2,116(sp)
 8001300:	41000115 	stw	r4,4(r8)
 8001304:	d8c01e15 	stw	r3,120(sp)
 8001308:	10800208 	cmpgei	r2,r2,8
 800130c:	1002d31e 	bne	r2,zero,8001e5c <___svfprintf_internal_r+0x11a4>
 8001310:	42000204 	addi	r8,r8,8
 8001314:	70000c26 	beq	r14,zero,8001348 <___svfprintf_internal_r+0x690>
 8001318:	d8801d17 	ldw	r2,116(sp)
 800131c:	d9001584 	addi	r4,sp,86
 8001320:	18c00084 	addi	r3,r3,2
 8001324:	10800044 	addi	r2,r2,1
 8001328:	41000015 	stw	r4,0(r8)
 800132c:	01000084 	movi	r4,2
 8001330:	d8801d15 	stw	r2,116(sp)
 8001334:	41000115 	stw	r4,4(r8)
 8001338:	d8c01e15 	stw	r3,120(sp)
 800133c:	10800208 	cmpgei	r2,r2,8
 8001340:	1002d41e 	bne	r2,zero,8001e94 <___svfprintf_internal_r+0x11dc>
 8001344:	42000204 	addi	r8,r8,8
 8001348:	6b402018 	cmpnei	r13,r13,128
 800134c:	6801ca26 	beq	r13,zero,8001a78 <___svfprintf_internal_r+0xdc0>
 8001350:	5d4fc83a 	sub	r7,r11,r21
 8001354:	01c20116 	blt	zero,r7,8001b5c <___svfprintf_internal_r+0xea4>
 8001358:	9080400c 	andi	r2,r18,256
 800135c:	1001791e 	bne	r2,zero,8001944 <___svfprintf_internal_r+0xc8c>
 8001360:	d8801d17 	ldw	r2,116(sp)
 8001364:	1d47883a 	add	r3,r3,r21
 8001368:	44400015 	stw	r17,0(r8)
 800136c:	10800044 	addi	r2,r2,1
 8001370:	d8801d15 	stw	r2,116(sp)
 8001374:	45400115 	stw	r21,4(r8)
 8001378:	d8c01e15 	stw	r3,120(sp)
 800137c:	10800208 	cmpgei	r2,r2,8
 8001380:	1002721e 	bne	r2,zero,8001d4c <___svfprintf_internal_r+0x1094>
 8001384:	42000204 	addi	r8,r8,8
 8001388:	9480010c 	andi	r18,r18,4
 800138c:	90000226 	beq	r18,zero,8001398 <___svfprintf_internal_r+0x6e0>
 8001390:	8523c83a 	sub	r17,r16,r20
 8001394:	04400916 	blt	zero,r17,80013bc <___svfprintf_internal_r+0x704>
 8001398:	8500010e 	bge	r16,r20,80013a0 <___svfprintf_internal_r+0x6e8>
 800139c:	a021883a 	mov	r16,r20
 80013a0:	d8800417 	ldw	r2,16(sp)
 80013a4:	1405883a 	add	r2,r2,r16
 80013a8:	d8800415 	stw	r2,16(sp)
 80013ac:	18021f1e 	bne	r3,zero,8001c2c <___svfprintf_internal_r+0xf74>
 80013b0:	d8001d15 	stw	zero,116(sp)
 80013b4:	b811883a 	mov	r8,r23
 80013b8:	003e6506 	br	8000d50 <___svfprintf_internal_r+0x98>
 80013bc:	03020074 	movhi	r12,2049
 80013c0:	89000450 	cmplti	r4,r17,17
 80013c4:	63371c84 	addi	r12,r12,-9102
 80013c8:	d8801d17 	ldw	r2,116(sp)
 80013cc:	20001c1e 	bne	r4,zero,8001440 <___svfprintf_internal_r+0x788>
 80013d0:	04800404 	movi	r18,16
 80013d4:	dd400517 	ldw	r21,20(sp)
 80013d8:	6039883a 	mov	fp,r12
 80013dc:	00000406 	br	80013f0 <___svfprintf_internal_r+0x738>
 80013e0:	8c7ffc04 	addi	r17,r17,-16
 80013e4:	89000448 	cmpgei	r4,r17,17
 80013e8:	42000204 	addi	r8,r8,8
 80013ec:	20001326 	beq	r4,zero,800143c <___svfprintf_internal_r+0x784>
 80013f0:	10800044 	addi	r2,r2,1
 80013f4:	18c00404 	addi	r3,r3,16
 80013f8:	47000015 	stw	fp,0(r8)
 80013fc:	44800115 	stw	r18,4(r8)
 8001400:	d8c01e15 	stw	r3,120(sp)
 8001404:	d8801d15 	stw	r2,116(sp)
 8001408:	11000208 	cmpgei	r4,r2,8
 800140c:	203ff426 	beq	r4,zero,80013e0 <___svfprintf_internal_r+0x728>
 8001410:	d9801c04 	addi	r6,sp,112
 8001414:	980b883a 	mov	r5,r19
 8001418:	a809883a 	mov	r4,r21
 800141c:	80060fc0 	call	80060fc <__ssprint_r>
 8001420:	103ee41e 	bne	r2,zero,8000fb4 <___svfprintf_internal_r+0x2fc>
 8001424:	8c7ffc04 	addi	r17,r17,-16
 8001428:	89000448 	cmpgei	r4,r17,17
 800142c:	d8c01e17 	ldw	r3,120(sp)
 8001430:	d8801d17 	ldw	r2,116(sp)
 8001434:	b811883a 	mov	r8,r23
 8001438:	203fed1e 	bne	r4,zero,80013f0 <___svfprintf_internal_r+0x738>
 800143c:	e019883a 	mov	r12,fp
 8001440:	10800044 	addi	r2,r2,1
 8001444:	1c47883a 	add	r3,r3,r17
 8001448:	d8801d15 	stw	r2,116(sp)
 800144c:	43000015 	stw	r12,0(r8)
 8001450:	44400115 	stw	r17,4(r8)
 8001454:	d8c01e15 	stw	r3,120(sp)
 8001458:	10800210 	cmplti	r2,r2,8
 800145c:	103fce1e 	bne	r2,zero,8001398 <___svfprintf_internal_r+0x6e0>
 8001460:	d9000517 	ldw	r4,20(sp)
 8001464:	d9801c04 	addi	r6,sp,112
 8001468:	980b883a 	mov	r5,r19
 800146c:	80060fc0 	call	80060fc <__ssprint_r>
 8001470:	103ed01e 	bne	r2,zero,8000fb4 <___svfprintf_internal_r+0x2fc>
 8001474:	d8c01e17 	ldw	r3,120(sp)
 8001478:	003fc706 	br	8001398 <___svfprintf_internal_r+0x6e0>
 800147c:	21003fcc 	andi	r4,r4,255
 8001480:	2005e61e 	bne	r4,zero,8002c1c <___svfprintf_internal_r+0x1f64>
 8001484:	6080080c 	andi	r2,r12,32
 8001488:	1000f11e 	bne	r2,zero,8001850 <___svfprintf_internal_r+0xb98>
 800148c:	d8800617 	ldw	r2,24(sp)
 8001490:	60c0040c 	andi	r3,r12,16
 8001494:	15000017 	ldw	r20,0(r2)
 8001498:	10800104 	addi	r2,r2,4
 800149c:	1800481e 	bne	r3,zero,80015c0 <___svfprintf_internal_r+0x908>
 80014a0:	60c0100c 	andi	r3,r12,64
 80014a4:	18053926 	beq	r3,zero,800298c <___svfprintf_internal_r+0x1cd4>
 80014a8:	d8800615 	stw	r2,24(sp)
 80014ac:	a53fffcc 	andi	r20,r20,65535
 80014b0:	002b883a 	mov	r21,zero
 80014b4:	0005883a 	mov	r2,zero
 80014b8:	00002a06 	br	8001564 <___svfprintf_internal_r+0x8ac>
 80014bc:	21003fcc 	andi	r4,r4,255
 80014c0:	2005dc1e 	bne	r4,zero,8002c34 <___svfprintf_internal_r+0x1f7c>
 80014c4:	d9000617 	ldw	r4,24(sp)
 80014c8:	6080080c 	andi	r2,r12,32
 80014cc:	20c00104 	addi	r3,r4,4
 80014d0:	10038a1e 	bne	r2,zero,80022fc <___svfprintf_internal_r+0x1644>
 80014d4:	6080040c 	andi	r2,r12,16
 80014d8:	1003de1e 	bne	r2,zero,8002454 <___svfprintf_internal_r+0x179c>
 80014dc:	6300100c 	andi	r12,r12,64
 80014e0:	6003dc26 	beq	r12,zero,8002454 <___svfprintf_internal_r+0x179c>
 80014e4:	d8800617 	ldw	r2,24(sp)
 80014e8:	d8c00615 	stw	r3,24(sp)
 80014ec:	d8c00417 	ldw	r3,16(sp)
 80014f0:	10800017 	ldw	r2,0(r2)
 80014f4:	10c0000d 	sth	r3,0(r2)
 80014f8:	003e1506 	br	8000d50 <___svfprintf_internal_r+0x98>
 80014fc:	b2800007 	ldb	r10,0(r22)
 8001500:	50801b18 	cmpnei	r2,r10,108
 8001504:	10043626 	beq	r2,zero,80025e0 <___svfprintf_internal_r+0x1928>
 8001508:	63000414 	ori	r12,r12,16
 800150c:	003e3606 	br	8000de8 <___svfprintf_internal_r+0x130>
 8001510:	63001014 	ori	r12,r12,64
 8001514:	b2800007 	ldb	r10,0(r22)
 8001518:	003e3306 	br	8000de8 <___svfprintf_internal_r+0x130>
 800151c:	63000814 	ori	r12,r12,32
 8001520:	b2800007 	ldb	r10,0(r22)
 8001524:	003e3006 	br	8000de8 <___svfprintf_internal_r+0x130>
 8001528:	d8c00617 	ldw	r3,24(sp)
 800152c:	00800c04 	movi	r2,48
 8001530:	d8801585 	stb	r2,86(sp)
 8001534:	00801e04 	movi	r2,120
 8001538:	01020074 	movhi	r4,2049
 800153c:	d88015c5 	stb	r2,87(sp)
 8001540:	1d000017 	ldw	r20,0(r3)
 8001544:	18800104 	addi	r2,r3,4
 8001548:	d8800615 	stw	r2,24(sp)
 800154c:	20b71104 	addi	r2,r4,-9148
 8001550:	d8800c15 	stw	r2,48(sp)
 8001554:	002b883a 	mov	r21,zero
 8001558:	63000094 	ori	r12,r12,2
 800155c:	00800084 	movi	r2,2
 8001560:	07001e04 	movi	fp,120
 8001564:	d8001545 	stb	zero,85(sp)
 8001568:	58ffffe0 	cmpeqi	r3,r11,-1
 800156c:	001b883a 	mov	r13,zero
 8001570:	1800681e 	bne	r3,zero,8001714 <___svfprintf_internal_r+0xa5c>
 8001574:	04bfdfc4 	movi	r18,-129
 8001578:	a546b03a 	or	r3,r20,r21
 800157c:	64a4703a 	and	r18,r12,r18
 8001580:	1801fa1e 	bne	r3,zero,8001d6c <___svfprintf_internal_r+0x10b4>
 8001584:	5804121e 	bne	r11,zero,80025d0 <___svfprintf_internal_r+0x1918>
 8001588:	103f3c1e 	bne	r2,zero,800127c <___svfprintf_internal_r+0x5c4>
 800158c:	6540004c 	andi	r21,r12,1
 8001590:	a8030426 	beq	r21,zero,80021a4 <___svfprintf_internal_r+0x14ec>
 8001594:	00800c04 	movi	r2,48
 8001598:	d88028c5 	stb	r2,163(sp)
 800159c:	dc4028c4 	addi	r17,sp,163
 80015a0:	0000ba06 	br	800188c <___svfprintf_internal_r+0xbd4>
 80015a4:	21003fcc 	andi	r4,r4,255
 80015a8:	20059a1e 	bne	r4,zero,8002c14 <___svfprintf_internal_r+0x1f5c>
 80015ac:	6080080c 	andi	r2,r12,32
 80015b0:	63000414 	ori	r12,r12,16
 80015b4:	1000a61e 	bne	r2,zero,8001850 <___svfprintf_internal_r+0xb98>
 80015b8:	d8800617 	ldw	r2,24(sp)
 80015bc:	10800104 	addi	r2,r2,4
 80015c0:	d8c00617 	ldw	r3,24(sp)
 80015c4:	002b883a 	mov	r21,zero
 80015c8:	d8800615 	stw	r2,24(sp)
 80015cc:	1d000017 	ldw	r20,0(r3)
 80015d0:	0005883a 	mov	r2,zero
 80015d4:	003fe306 	br	8001564 <___svfprintf_internal_r+0x8ac>
 80015d8:	21003fcc 	andi	r4,r4,255
 80015dc:	2005931e 	bne	r4,zero,8002c2c <___svfprintf_internal_r+0x1f74>
 80015e0:	d8c00617 	ldw	r3,24(sp)
 80015e4:	00a00034 	movhi	r2,32768
 80015e8:	10bfffc4 	addi	r2,r2,-1
 80015ec:	1d000117 	ldw	r20,4(r3)
 80015f0:	1c800017 	ldw	r18,0(r3)
 80015f4:	01dffc34 	movhi	r7,32752
 80015f8:	a0a2703a 	and	r17,r20,r2
 80015fc:	01bfffc4 	movi	r6,-1
 8001600:	18800204 	addi	r2,r3,8
 8001604:	39ffffc4 	addi	r7,r7,-1
 8001608:	9009883a 	mov	r4,r18
 800160c:	880b883a 	mov	r5,r17
 8001610:	da000f15 	stw	r8,60(sp)
 8001614:	dac00e15 	stw	r11,56(sp)
 8001618:	db000715 	stw	r12,28(sp)
 800161c:	dd000a15 	stw	r20,40(sp)
 8001620:	dc800915 	stw	r18,36(sp)
 8001624:	d8800615 	stw	r2,24(sp)
 8001628:	800b6b40 	call	800b6b4 <__unorddf2>
 800162c:	db000717 	ldw	r12,28(sp)
 8001630:	dac00e17 	ldw	r11,56(sp)
 8001634:	da000f17 	ldw	r8,60(sp)
 8001638:	1002dc1e 	bne	r2,zero,80021ac <___svfprintf_internal_r+0x14f4>
 800163c:	01dffc34 	movhi	r7,32752
 8001640:	01bfffc4 	movi	r6,-1
 8001644:	39ffffc4 	addi	r7,r7,-1
 8001648:	9009883a 	mov	r4,r18
 800164c:	880b883a 	mov	r5,r17
 8001650:	800a4780 	call	800a478 <__ledf2>
 8001654:	db000717 	ldw	r12,28(sp)
 8001658:	dac00e17 	ldw	r11,56(sp)
 800165c:	da000f17 	ldw	r8,60(sp)
 8001660:	0082d20e 	bge	zero,r2,80021ac <___svfprintf_internal_r+0x14f4>
 8001664:	000d883a 	mov	r6,zero
 8001668:	000f883a 	mov	r7,zero
 800166c:	9009883a 	mov	r4,r18
 8001670:	a00b883a 	mov	r5,r20
 8001674:	da000e15 	stw	r8,56(sp)
 8001678:	800a4780 	call	800a478 <__ledf2>
 800167c:	db000717 	ldw	r12,28(sp)
 8001680:	da000e17 	ldw	r8,56(sp)
 8001684:	1004e016 	blt	r2,zero,8002a08 <___svfprintf_internal_r+0x1d50>
 8001688:	db401543 	ldbu	r13,85(sp)
 800168c:	e0801210 	cmplti	r2,fp,72
 8001690:	1004bb1e 	bne	r2,zero,8002980 <___svfprintf_internal_r+0x1cc8>
 8001694:	04420074 	movhi	r17,2049
 8001698:	8c770904 	addi	r17,r17,-9180
 800169c:	04bfdfc4 	movi	r18,-129
 80016a0:	64a4703a 	and	r18,r12,r18
 80016a4:	050000c4 	movi	r20,3
 80016a8:	054000c4 	movi	r21,3
 80016ac:	0017883a 	mov	r11,zero
 80016b0:	d8000715 	stw	zero,28(sp)
 80016b4:	00007906 	br	800189c <___svfprintf_internal_r+0xbe4>
 80016b8:	21003fcc 	andi	r4,r4,255
 80016bc:	2005511e 	bne	r4,zero,8002c04 <___svfprintf_internal_r+0x1f4c>
 80016c0:	6080080c 	andi	r2,r12,32
 80016c4:	63000414 	ori	r12,r12,16
 80016c8:	10005a1e 	bne	r2,zero,8001834 <___svfprintf_internal_r+0xb7c>
 80016cc:	d8800617 	ldw	r2,24(sp)
 80016d0:	10800104 	addi	r2,r2,4
 80016d4:	d8c00617 	ldw	r3,24(sp)
 80016d8:	1d000017 	ldw	r20,0(r3)
 80016dc:	d8800615 	stw	r2,24(sp)
 80016e0:	a02bd7fa 	srai	r21,r20,31
 80016e4:	a805883a 	mov	r2,r21
 80016e8:	103edb0e 	bge	r2,zero,8001258 <___svfprintf_internal_r+0x5a0>
 80016ec:	0529c83a 	sub	r20,zero,r20
 80016f0:	a004c03a 	cmpne	r2,r20,zero
 80016f4:	056bc83a 	sub	r21,zero,r21
 80016f8:	a8abc83a 	sub	r21,r21,r2
 80016fc:	00800b44 	movi	r2,45
 8001700:	d8801545 	stb	r2,85(sp)
 8001704:	58ffffe0 	cmpeqi	r3,r11,-1
 8001708:	03400b44 	movi	r13,45
 800170c:	00800044 	movi	r2,1
 8001710:	183f9826 	beq	r3,zero,8001574 <___svfprintf_internal_r+0x8bc>
 8001714:	10c00060 	cmpeqi	r3,r2,1
 8001718:	1800541e 	bne	r3,zero,800186c <___svfprintf_internal_r+0xbb4>
 800171c:	108000a0 	cmpeqi	r2,r2,2
 8001720:	1001e81e 	bne	r2,zero,8001ec4 <___svfprintf_internal_r+0x120c>
 8001724:	b807883a 	mov	r3,r23
 8001728:	00000106 	br	8001730 <___svfprintf_internal_r+0xa78>
 800172c:	8807883a 	mov	r3,r17
 8001730:	a008d0fa 	srli	r4,r20,3
 8001734:	a80a977a 	slli	r5,r21,29
 8001738:	a82ad0fa 	srli	r21,r21,3
 800173c:	a50001cc 	andi	r20,r20,7
 8001740:	a0800c04 	addi	r2,r20,48
 8001744:	2928b03a 	or	r20,r5,r4
 8001748:	18bfffc5 	stb	r2,-1(r3)
 800174c:	a548b03a 	or	r4,r20,r21
 8001750:	1c7fffc4 	addi	r17,r3,-1
 8001754:	203ff51e 	bne	r4,zero,800172c <___svfprintf_internal_r+0xa74>
 8001758:	6100004c 	andi	r4,r12,1
 800175c:	20007626 	beq	r4,zero,8001938 <___svfprintf_internal_r+0xc80>
 8001760:	10803fcc 	andi	r2,r2,255
 8001764:	1080201c 	xori	r2,r2,128
 8001768:	10bfe004 	addi	r2,r2,-128
 800176c:	10800c18 	cmpnei	r2,r2,48
 8001770:	10007126 	beq	r2,zero,8001938 <___svfprintf_internal_r+0xc80>
 8001774:	18ffff84 	addi	r3,r3,-2
 8001778:	00800c04 	movi	r2,48
 800177c:	88bfffc5 	stb	r2,-1(r17)
 8001780:	b8ebc83a 	sub	r21,r23,r3
 8001784:	6025883a 	mov	r18,r12
 8001788:	1823883a 	mov	r17,r3
 800178c:	00003f06 	br	800188c <___svfprintf_internal_r+0xbd4>
 8001790:	21003fcc 	andi	r4,r4,255
 8001794:	2005171e 	bne	r4,zero,8002bf4 <___svfprintf_internal_r+0x1f3c>
 8001798:	00820074 	movhi	r2,2049
 800179c:	10b70c04 	addi	r2,r2,-9168
 80017a0:	d8800c15 	stw	r2,48(sp)
 80017a4:	6080080c 	andi	r2,r12,32
 80017a8:	103e681e 	bne	r2,zero,800114c <___svfprintf_internal_r+0x494>
 80017ac:	d8c00617 	ldw	r3,24(sp)
 80017b0:	6080040c 	andi	r2,r12,16
 80017b4:	1d000017 	ldw	r20,0(r3)
 80017b8:	18c00104 	addi	r3,r3,4
 80017bc:	d8c00615 	stw	r3,24(sp)
 80017c0:	1002621e 	bne	r2,zero,800214c <___svfprintf_internal_r+0x1494>
 80017c4:	6080100c 	andi	r2,r12,64
 80017c8:	10026026 	beq	r2,zero,800214c <___svfprintf_internal_r+0x1494>
 80017cc:	a53fffcc 	andi	r20,r20,65535
 80017d0:	002b883a 	mov	r21,zero
 80017d4:	003e6206 	br	8001160 <___svfprintf_internal_r+0x4a8>
 80017d8:	21003fcc 	andi	r4,r4,255
 80017dc:	2005171e 	bne	r4,zero,8002c3c <___svfprintf_internal_r+0x1f84>
 80017e0:	6080080c 	andi	r2,r12,32
 80017e4:	63000414 	ori	r12,r12,16
 80017e8:	10000b1e 	bne	r2,zero,8001818 <___svfprintf_internal_r+0xb60>
 80017ec:	d8800617 	ldw	r2,24(sp)
 80017f0:	10800104 	addi	r2,r2,4
 80017f4:	d8c00617 	ldw	r3,24(sp)
 80017f8:	002b883a 	mov	r21,zero
 80017fc:	d8800615 	stw	r2,24(sp)
 8001800:	1d000017 	ldw	r20,0(r3)
 8001804:	00800044 	movi	r2,1
 8001808:	003f5606 	br	8001564 <___svfprintf_internal_r+0x8ac>
 800180c:	63000214 	ori	r12,r12,8
 8001810:	b2800007 	ldb	r10,0(r22)
 8001814:	003d7406 	br	8000de8 <___svfprintf_internal_r+0x130>
 8001818:	d8c00617 	ldw	r3,24(sp)
 800181c:	00800044 	movi	r2,1
 8001820:	1d000017 	ldw	r20,0(r3)
 8001824:	1d400117 	ldw	r21,4(r3)
 8001828:	18c00204 	addi	r3,r3,8
 800182c:	d8c00615 	stw	r3,24(sp)
 8001830:	003f4c06 	br	8001564 <___svfprintf_internal_r+0x8ac>
 8001834:	d8c00617 	ldw	r3,24(sp)
 8001838:	18800117 	ldw	r2,4(r3)
 800183c:	1d000017 	ldw	r20,0(r3)
 8001840:	18c00204 	addi	r3,r3,8
 8001844:	d8c00615 	stw	r3,24(sp)
 8001848:	102b883a 	mov	r21,r2
 800184c:	003e8106 	br	8001254 <___svfprintf_internal_r+0x59c>
 8001850:	d8c00617 	ldw	r3,24(sp)
 8001854:	0005883a 	mov	r2,zero
 8001858:	1d000017 	ldw	r20,0(r3)
 800185c:	1d400117 	ldw	r21,4(r3)
 8001860:	18c00204 	addi	r3,r3,8
 8001864:	d8c00615 	stw	r3,24(sp)
 8001868:	003f3e06 	br	8001564 <___svfprintf_internal_r+0x8ac>
 800186c:	a800111e 	bne	r21,zero,80018b4 <___svfprintf_internal_r+0xbfc>
 8001870:	a08002a8 	cmpgeui	r2,r20,10
 8001874:	10000f1e 	bne	r2,zero,80018b4 <___svfprintf_internal_r+0xbfc>
 8001878:	a5000c04 	addi	r20,r20,48
 800187c:	dd0028c5 	stb	r20,163(sp)
 8001880:	6025883a 	mov	r18,r12
 8001884:	05400044 	movi	r21,1
 8001888:	dc4028c4 	addi	r17,sp,163
 800188c:	5829883a 	mov	r20,r11
 8001890:	5d40010e 	bge	r11,r21,8001898 <___svfprintf_internal_r+0xbe0>
 8001894:	a829883a 	mov	r20,r21
 8001898:	d8000715 	stw	zero,28(sp)
 800189c:	6b403fcc 	andi	r13,r13,255
 80018a0:	6b40201c 	xori	r13,r13,128
 80018a4:	6b7fe004 	addi	r13,r13,-128
 80018a8:	683e8426 	beq	r13,zero,80012bc <___svfprintf_internal_r+0x604>
 80018ac:	a5000044 	addi	r20,r20,1
 80018b0:	003e8206 	br	80012bc <___svfprintf_internal_r+0x604>
 80018b4:	dc000e15 	stw	r16,56(sp)
 80018b8:	b823883a 	mov	r17,r23
 80018bc:	a821883a 	mov	r16,r21
 80018c0:	db000715 	stw	r12,28(sp)
 80018c4:	982b883a 	mov	r21,r19
 80018c8:	dac00f15 	stw	r11,60(sp)
 80018cc:	4025883a 	mov	r18,r8
 80018d0:	6827883a 	mov	r19,r13
 80018d4:	00000206 	br	80018e0 <___svfprintf_internal_r+0xc28>
 80018d8:	1029883a 	mov	r20,r2
 80018dc:	1821883a 	mov	r16,r3
 80018e0:	a009883a 	mov	r4,r20
 80018e4:	800b883a 	mov	r5,r16
 80018e8:	01800284 	movi	r6,10
 80018ec:	000f883a 	mov	r7,zero
 80018f0:	8008a3c0 	call	8008a3c <__umoddi3>
 80018f4:	10800c04 	addi	r2,r2,48
 80018f8:	8c7fffc4 	addi	r17,r17,-1
 80018fc:	a009883a 	mov	r4,r20
 8001900:	800b883a 	mov	r5,r16
 8001904:	88800005 	stb	r2,0(r17)
 8001908:	01800284 	movi	r6,10
 800190c:	000f883a 	mov	r7,zero
 8001910:	80084200 	call	8008420 <__udivdi3>
 8001914:	803ff01e 	bne	r16,zero,80018d8 <___svfprintf_internal_r+0xc20>
 8001918:	a50002a8 	cmpgeui	r20,r20,10
 800191c:	a03fee1e 	bne	r20,zero,80018d8 <___svfprintf_internal_r+0xc20>
 8001920:	db000717 	ldw	r12,28(sp)
 8001924:	dc000e17 	ldw	r16,56(sp)
 8001928:	dac00f17 	ldw	r11,60(sp)
 800192c:	981b883a 	mov	r13,r19
 8001930:	9011883a 	mov	r8,r18
 8001934:	a827883a 	mov	r19,r21
 8001938:	bc6bc83a 	sub	r21,r23,r17
 800193c:	6025883a 	mov	r18,r12
 8001940:	003fd206 	br	800188c <___svfprintf_internal_r+0xbd4>
 8001944:	e2801990 	cmplti	r10,fp,102
 8001948:	5000be1e 	bne	r10,zero,8001c44 <___svfprintf_internal_r+0xf8c>
 800194c:	d9000917 	ldw	r4,36(sp)
 8001950:	d9400a17 	ldw	r5,40(sp)
 8001954:	000d883a 	mov	r6,zero
 8001958:	000f883a 	mov	r7,zero
 800195c:	da000f15 	stw	r8,60(sp)
 8001960:	d8c00e15 	stw	r3,56(sp)
 8001964:	800a3080 	call	800a308 <__eqdf2>
 8001968:	d8c00e17 	ldw	r3,56(sp)
 800196c:	da000f17 	ldw	r8,60(sp)
 8001970:	1001641e 	bne	r2,zero,8001f04 <___svfprintf_internal_r+0x124c>
 8001974:	d8801d17 	ldw	r2,116(sp)
 8001978:	01020074 	movhi	r4,2049
 800197c:	21371804 	addi	r4,r4,-9120
 8001980:	10800044 	addi	r2,r2,1
 8001984:	18c00044 	addi	r3,r3,1
 8001988:	41000015 	stw	r4,0(r8)
 800198c:	01000044 	movi	r4,1
 8001990:	d8801d15 	stw	r2,116(sp)
 8001994:	41000115 	stw	r4,4(r8)
 8001998:	d8c01e15 	stw	r3,120(sp)
 800199c:	10800208 	cmpgei	r2,r2,8
 80019a0:	1002fa1e 	bne	r2,zero,800258c <___svfprintf_internal_r+0x18d4>
 80019a4:	42000204 	addi	r8,r8,8
 80019a8:	d8801617 	ldw	r2,88(sp)
 80019ac:	d8c00817 	ldw	r3,32(sp)
 80019b0:	10c00216 	blt	r2,r3,80019bc <___svfprintf_internal_r+0xd04>
 80019b4:	9080004c 	andi	r2,r18,1
 80019b8:	10026b26 	beq	r2,zero,8002368 <___svfprintf_internal_r+0x16b0>
 80019bc:	d8800d17 	ldw	r2,52(sp)
 80019c0:	d8c01e17 	ldw	r3,120(sp)
 80019c4:	d9000b17 	ldw	r4,44(sp)
 80019c8:	40800015 	stw	r2,0(r8)
 80019cc:	d8801d17 	ldw	r2,116(sp)
 80019d0:	20c7883a 	add	r3,r4,r3
 80019d4:	41000115 	stw	r4,4(r8)
 80019d8:	10800044 	addi	r2,r2,1
 80019dc:	d8801d15 	stw	r2,116(sp)
 80019e0:	d8c01e15 	stw	r3,120(sp)
 80019e4:	10800208 	cmpgei	r2,r2,8
 80019e8:	1003041e 	bne	r2,zero,80025fc <___svfprintf_internal_r+0x1944>
 80019ec:	42000204 	addi	r8,r8,8
 80019f0:	d8800817 	ldw	r2,32(sp)
 80019f4:	147fffc4 	addi	r17,r2,-1
 80019f8:	047e630e 	bge	zero,r17,8001388 <___svfprintf_internal_r+0x6d0>
 80019fc:	03020074 	movhi	r12,2049
 8001a00:	89000450 	cmplti	r4,r17,17
 8001a04:	63371884 	addi	r12,r12,-9118
 8001a08:	d8801d17 	ldw	r2,116(sp)
 8001a0c:	20033b1e 	bne	r4,zero,80026fc <___svfprintf_internal_r+0x1a44>
 8001a10:	dc000715 	stw	r16,28(sp)
 8001a14:	05400404 	movi	r21,16
 8001a18:	df000517 	ldw	fp,20(sp)
 8001a1c:	6021883a 	mov	r16,r12
 8001a20:	00000406 	br	8001a34 <___svfprintf_internal_r+0xd7c>
 8001a24:	42000204 	addi	r8,r8,8
 8001a28:	8c7ffc04 	addi	r17,r17,-16
 8001a2c:	89000448 	cmpgei	r4,r17,17
 8001a30:	20033026 	beq	r4,zero,80026f4 <___svfprintf_internal_r+0x1a3c>
 8001a34:	10800044 	addi	r2,r2,1
 8001a38:	18c00404 	addi	r3,r3,16
 8001a3c:	44000015 	stw	r16,0(r8)
 8001a40:	45400115 	stw	r21,4(r8)
 8001a44:	d8c01e15 	stw	r3,120(sp)
 8001a48:	d8801d15 	stw	r2,116(sp)
 8001a4c:	11000208 	cmpgei	r4,r2,8
 8001a50:	203ff426 	beq	r4,zero,8001a24 <___svfprintf_internal_r+0xd6c>
 8001a54:	d9801c04 	addi	r6,sp,112
 8001a58:	980b883a 	mov	r5,r19
 8001a5c:	e009883a 	mov	r4,fp
 8001a60:	80060fc0 	call	80060fc <__ssprint_r>
 8001a64:	103d531e 	bne	r2,zero,8000fb4 <___svfprintf_internal_r+0x2fc>
 8001a68:	d8c01e17 	ldw	r3,120(sp)
 8001a6c:	d8801d17 	ldw	r2,116(sp)
 8001a70:	b811883a 	mov	r8,r23
 8001a74:	003fec06 	br	8001a28 <___svfprintf_internal_r+0xd70>
 8001a78:	850fc83a 	sub	r7,r16,r20
 8001a7c:	01fe340e 	bge	zero,r7,8001350 <___svfprintf_internal_r+0x698>
 8001a80:	03020074 	movhi	r12,2049
 8001a84:	39000450 	cmplti	r4,r7,17
 8001a88:	63371884 	addi	r12,r12,-9118
 8001a8c:	d8801d17 	ldw	r2,116(sp)
 8001a90:	2000271e 	bne	r4,zero,8001b30 <___svfprintf_internal_r+0xe78>
 8001a94:	dc800e15 	stw	r18,56(sp)
 8001a98:	dc400f15 	stw	r17,60(sp)
 8001a9c:	dc001015 	stw	r16,64(sp)
 8001aa0:	03400404 	movi	r13,16
 8001aa4:	3821883a 	mov	r16,r7
 8001aa8:	dac01215 	stw	r11,72(sp)
 8001aac:	dc400517 	ldw	r17,20(sp)
 8001ab0:	6025883a 	mov	r18,r12
 8001ab4:	00000406 	br	8001ac8 <___svfprintf_internal_r+0xe10>
 8001ab8:	843ffc04 	addi	r16,r16,-16
 8001abc:	81000448 	cmpgei	r4,r16,17
 8001ac0:	42000204 	addi	r8,r8,8
 8001ac4:	20001426 	beq	r4,zero,8001b18 <___svfprintf_internal_r+0xe60>
 8001ac8:	10800044 	addi	r2,r2,1
 8001acc:	18c00404 	addi	r3,r3,16
 8001ad0:	44800015 	stw	r18,0(r8)
 8001ad4:	43400115 	stw	r13,4(r8)
 8001ad8:	d8c01e15 	stw	r3,120(sp)
 8001adc:	d8801d15 	stw	r2,116(sp)
 8001ae0:	11000208 	cmpgei	r4,r2,8
 8001ae4:	203ff426 	beq	r4,zero,8001ab8 <___svfprintf_internal_r+0xe00>
 8001ae8:	d9801c04 	addi	r6,sp,112
 8001aec:	980b883a 	mov	r5,r19
 8001af0:	8809883a 	mov	r4,r17
 8001af4:	80060fc0 	call	80060fc <__ssprint_r>
 8001af8:	103d2e1e 	bne	r2,zero,8000fb4 <___svfprintf_internal_r+0x2fc>
 8001afc:	843ffc04 	addi	r16,r16,-16
 8001b00:	81000448 	cmpgei	r4,r16,17
 8001b04:	d8c01e17 	ldw	r3,120(sp)
 8001b08:	d8801d17 	ldw	r2,116(sp)
 8001b0c:	b811883a 	mov	r8,r23
 8001b10:	03400404 	movi	r13,16
 8001b14:	203fec1e 	bne	r4,zero,8001ac8 <___svfprintf_internal_r+0xe10>
 8001b18:	800f883a 	mov	r7,r16
 8001b1c:	9019883a 	mov	r12,r18
 8001b20:	dc400f17 	ldw	r17,60(sp)
 8001b24:	dc001017 	ldw	r16,64(sp)
 8001b28:	dac01217 	ldw	r11,72(sp)
 8001b2c:	dc800e17 	ldw	r18,56(sp)
 8001b30:	10800044 	addi	r2,r2,1
 8001b34:	19c7883a 	add	r3,r3,r7
 8001b38:	d8801d15 	stw	r2,116(sp)
 8001b3c:	43000015 	stw	r12,0(r8)
 8001b40:	41c00115 	stw	r7,4(r8)
 8001b44:	d8c01e15 	stw	r3,120(sp)
 8001b48:	10800208 	cmpgei	r2,r2,8
 8001b4c:	1002961e 	bne	r2,zero,80025a8 <___svfprintf_internal_r+0x18f0>
 8001b50:	5d4fc83a 	sub	r7,r11,r21
 8001b54:	42000204 	addi	r8,r8,8
 8001b58:	01fdff0e 	bge	zero,r7,8001358 <___svfprintf_internal_r+0x6a0>
 8001b5c:	03020074 	movhi	r12,2049
 8001b60:	39000450 	cmplti	r4,r7,17
 8001b64:	63371884 	addi	r12,r12,-9118
 8001b68:	d8801d17 	ldw	r2,116(sp)
 8001b6c:	2000251e 	bne	r4,zero,8001c04 <___svfprintf_internal_r+0xf4c>
 8001b70:	dc800e15 	stw	r18,56(sp)
 8001b74:	dc400f15 	stw	r17,60(sp)
 8001b78:	dc001015 	stw	r16,64(sp)
 8001b7c:	02c00404 	movi	r11,16
 8001b80:	3821883a 	mov	r16,r7
 8001b84:	dc400517 	ldw	r17,20(sp)
 8001b88:	6025883a 	mov	r18,r12
 8001b8c:	00000406 	br	8001ba0 <___svfprintf_internal_r+0xee8>
 8001b90:	843ffc04 	addi	r16,r16,-16
 8001b94:	81000448 	cmpgei	r4,r16,17
 8001b98:	42000204 	addi	r8,r8,8
 8001b9c:	20001426 	beq	r4,zero,8001bf0 <___svfprintf_internal_r+0xf38>
 8001ba0:	10800044 	addi	r2,r2,1
 8001ba4:	18c00404 	addi	r3,r3,16
 8001ba8:	44800015 	stw	r18,0(r8)
 8001bac:	42c00115 	stw	r11,4(r8)
 8001bb0:	d8c01e15 	stw	r3,120(sp)
 8001bb4:	d8801d15 	stw	r2,116(sp)
 8001bb8:	11000208 	cmpgei	r4,r2,8
 8001bbc:	203ff426 	beq	r4,zero,8001b90 <___svfprintf_internal_r+0xed8>
 8001bc0:	d9801c04 	addi	r6,sp,112
 8001bc4:	980b883a 	mov	r5,r19
 8001bc8:	8809883a 	mov	r4,r17
 8001bcc:	80060fc0 	call	80060fc <__ssprint_r>
 8001bd0:	103cf81e 	bne	r2,zero,8000fb4 <___svfprintf_internal_r+0x2fc>
 8001bd4:	843ffc04 	addi	r16,r16,-16
 8001bd8:	81000448 	cmpgei	r4,r16,17
 8001bdc:	d8c01e17 	ldw	r3,120(sp)
 8001be0:	d8801d17 	ldw	r2,116(sp)
 8001be4:	b811883a 	mov	r8,r23
 8001be8:	02c00404 	movi	r11,16
 8001bec:	203fec1e 	bne	r4,zero,8001ba0 <___svfprintf_internal_r+0xee8>
 8001bf0:	800f883a 	mov	r7,r16
 8001bf4:	9019883a 	mov	r12,r18
 8001bf8:	dc400f17 	ldw	r17,60(sp)
 8001bfc:	dc001017 	ldw	r16,64(sp)
 8001c00:	dc800e17 	ldw	r18,56(sp)
 8001c04:	10800044 	addi	r2,r2,1
 8001c08:	19c7883a 	add	r3,r3,r7
 8001c0c:	d8801d15 	stw	r2,116(sp)
 8001c10:	43000015 	stw	r12,0(r8)
 8001c14:	41c00115 	stw	r7,4(r8)
 8001c18:	d8c01e15 	stw	r3,120(sp)
 8001c1c:	10800208 	cmpgei	r2,r2,8
 8001c20:	1001421e 	bne	r2,zero,800212c <___svfprintf_internal_r+0x1474>
 8001c24:	42000204 	addi	r8,r8,8
 8001c28:	003dcb06 	br	8001358 <___svfprintf_internal_r+0x6a0>
 8001c2c:	d9000517 	ldw	r4,20(sp)
 8001c30:	d9801c04 	addi	r6,sp,112
 8001c34:	980b883a 	mov	r5,r19
 8001c38:	80060fc0 	call	80060fc <__ssprint_r>
 8001c3c:	103ddc26 	beq	r2,zero,80013b0 <___svfprintf_internal_r+0x6f8>
 8001c40:	003cdc06 	br	8000fb4 <___svfprintf_internal_r+0x2fc>
 8001c44:	d8800817 	ldw	r2,32(sp)
 8001c48:	da801d17 	ldw	r10,116(sp)
 8001c4c:	18c00044 	addi	r3,r3,1
 8001c50:	10800088 	cmpgei	r2,r2,2
 8001c54:	55400044 	addi	r21,r10,1
 8001c58:	47000204 	addi	fp,r8,8
 8001c5c:	10010226 	beq	r2,zero,8002068 <___svfprintf_internal_r+0x13b0>
 8001c60:	00800044 	movi	r2,1
 8001c64:	40800115 	stw	r2,4(r8)
 8001c68:	44400015 	stw	r17,0(r8)
 8001c6c:	d8c01e15 	stw	r3,120(sp)
 8001c70:	dd401d15 	stw	r21,116(sp)
 8001c74:	a8800210 	cmplti	r2,r21,8
 8001c78:	10014126 	beq	r2,zero,8002180 <___svfprintf_internal_r+0x14c8>
 8001c7c:	d8800b17 	ldw	r2,44(sp)
 8001c80:	d9000d17 	ldw	r4,52(sp)
 8001c84:	ad400044 	addi	r21,r21,1
 8001c88:	1887883a 	add	r3,r3,r2
 8001c8c:	e0800115 	stw	r2,4(fp)
 8001c90:	e1000015 	stw	r4,0(fp)
 8001c94:	d8c01e15 	stw	r3,120(sp)
 8001c98:	dd401d15 	stw	r21,116(sp)
 8001c9c:	a8800208 	cmpgei	r2,r21,8
 8001ca0:	10012e1e 	bne	r2,zero,800215c <___svfprintf_internal_r+0x14a4>
 8001ca4:	e7000204 	addi	fp,fp,8
 8001ca8:	d8800817 	ldw	r2,32(sp)
 8001cac:	d9000917 	ldw	r4,36(sp)
 8001cb0:	d9400a17 	ldw	r5,40(sp)
 8001cb4:	aa800044 	addi	r10,r21,1
 8001cb8:	e2000204 	addi	r8,fp,8
 8001cbc:	12ffffc4 	addi	r11,r2,-1
 8001cc0:	000d883a 	mov	r6,zero
 8001cc4:	000f883a 	mov	r7,zero
 8001cc8:	d8c01215 	stw	r3,72(sp)
 8001ccc:	da801015 	stw	r10,64(sp)
 8001cd0:	da800f15 	stw	r10,60(sp)
 8001cd4:	da000e15 	stw	r8,56(sp)
 8001cd8:	dac00715 	stw	r11,28(sp)
 8001cdc:	800a3080 	call	800a308 <__eqdf2>
 8001ce0:	dac00717 	ldw	r11,28(sp)
 8001ce4:	da000e17 	ldw	r8,56(sp)
 8001ce8:	db400f17 	ldw	r13,60(sp)
 8001cec:	da801017 	ldw	r10,64(sp)
 8001cf0:	d8c01217 	ldw	r3,72(sp)
 8001cf4:	1000e826 	beq	r2,zero,8002098 <___svfprintf_internal_r+0x13e0>
 8001cf8:	8c400044 	addi	r17,r17,1
 8001cfc:	1ac7883a 	add	r3,r3,r11
 8001d00:	da801d15 	stw	r10,116(sp)
 8001d04:	e4400015 	stw	r17,0(fp)
 8001d08:	e2c00115 	stw	r11,4(fp)
 8001d0c:	d8c01e15 	stw	r3,120(sp)
 8001d10:	52800208 	cmpgei	r10,r10,8
 8001d14:	5001dc1e 	bne	r10,zero,8002488 <___svfprintf_internal_r+0x17d0>
 8001d18:	e0800404 	addi	r2,fp,16
 8001d1c:	aa800084 	addi	r10,r21,2
 8001d20:	4039883a 	mov	fp,r8
 8001d24:	1011883a 	mov	r8,r2
 8001d28:	d9001117 	ldw	r4,68(sp)
 8001d2c:	d8801844 	addi	r2,sp,97
 8001d30:	da801d15 	stw	r10,116(sp)
 8001d34:	20c7883a 	add	r3,r4,r3
 8001d38:	e0800015 	stw	r2,0(fp)
 8001d3c:	e1000115 	stw	r4,4(fp)
 8001d40:	d8c01e15 	stw	r3,120(sp)
 8001d44:	52800210 	cmplti	r10,r10,8
 8001d48:	503d8f1e 	bne	r10,zero,8001388 <___svfprintf_internal_r+0x6d0>
 8001d4c:	d9000517 	ldw	r4,20(sp)
 8001d50:	d9801c04 	addi	r6,sp,112
 8001d54:	980b883a 	mov	r5,r19
 8001d58:	80060fc0 	call	80060fc <__ssprint_r>
 8001d5c:	103c951e 	bne	r2,zero,8000fb4 <___svfprintf_internal_r+0x2fc>
 8001d60:	d8c01e17 	ldw	r3,120(sp)
 8001d64:	b811883a 	mov	r8,r23
 8001d68:	003d8706 	br	8001388 <___svfprintf_internal_r+0x6d0>
 8001d6c:	9019883a 	mov	r12,r18
 8001d70:	003e6806 	br	8001714 <___svfprintf_internal_r+0xa5c>
 8001d74:	03020074 	movhi	r12,2049
 8001d78:	39000450 	cmplti	r4,r7,17
 8001d7c:	63371c84 	addi	r12,r12,-9102
 8001d80:	d8801d17 	ldw	r2,116(sp)
 8001d84:	20002b1e 	bne	r4,zero,8001e34 <___svfprintf_internal_r+0x117c>
 8001d88:	dc801015 	stw	r18,64(sp)
 8001d8c:	dc401215 	stw	r17,72(sp)
 8001d90:	dc001315 	stw	r16,76(sp)
 8001d94:	03c00404 	movi	r15,16
 8001d98:	db800e15 	stw	r14,56(sp)
 8001d9c:	db400f15 	stw	r13,60(sp)
 8001da0:	dac01415 	stw	r11,80(sp)
 8001da4:	3821883a 	mov	r16,r7
 8001da8:	dc400517 	ldw	r17,20(sp)
 8001dac:	6025883a 	mov	r18,r12
 8001db0:	00000406 	br	8001dc4 <___svfprintf_internal_r+0x110c>
 8001db4:	843ffc04 	addi	r16,r16,-16
 8001db8:	81000448 	cmpgei	r4,r16,17
 8001dbc:	42000204 	addi	r8,r8,8
 8001dc0:	20001426 	beq	r4,zero,8001e14 <___svfprintf_internal_r+0x115c>
 8001dc4:	10800044 	addi	r2,r2,1
 8001dc8:	18c00404 	addi	r3,r3,16
 8001dcc:	44800015 	stw	r18,0(r8)
 8001dd0:	43c00115 	stw	r15,4(r8)
 8001dd4:	d8c01e15 	stw	r3,120(sp)
 8001dd8:	d8801d15 	stw	r2,116(sp)
 8001ddc:	11000208 	cmpgei	r4,r2,8
 8001de0:	203ff426 	beq	r4,zero,8001db4 <___svfprintf_internal_r+0x10fc>
 8001de4:	d9801c04 	addi	r6,sp,112
 8001de8:	980b883a 	mov	r5,r19
 8001dec:	8809883a 	mov	r4,r17
 8001df0:	80060fc0 	call	80060fc <__ssprint_r>
 8001df4:	103c6f1e 	bne	r2,zero,8000fb4 <___svfprintf_internal_r+0x2fc>
 8001df8:	843ffc04 	addi	r16,r16,-16
 8001dfc:	81000448 	cmpgei	r4,r16,17
 8001e00:	d8c01e17 	ldw	r3,120(sp)
 8001e04:	d8801d17 	ldw	r2,116(sp)
 8001e08:	b811883a 	mov	r8,r23
 8001e0c:	03c00404 	movi	r15,16
 8001e10:	203fec1e 	bne	r4,zero,8001dc4 <___svfprintf_internal_r+0x110c>
 8001e14:	800f883a 	mov	r7,r16
 8001e18:	9019883a 	mov	r12,r18
 8001e1c:	db800e17 	ldw	r14,56(sp)
 8001e20:	db400f17 	ldw	r13,60(sp)
 8001e24:	dc401217 	ldw	r17,72(sp)
 8001e28:	dac01417 	ldw	r11,80(sp)
 8001e2c:	dc001317 	ldw	r16,76(sp)
 8001e30:	dc801017 	ldw	r18,64(sp)
 8001e34:	10800044 	addi	r2,r2,1
 8001e38:	19c7883a 	add	r3,r3,r7
 8001e3c:	d8801d15 	stw	r2,116(sp)
 8001e40:	43000015 	stw	r12,0(r8)
 8001e44:	41c00115 	stw	r7,4(r8)
 8001e48:	d8c01e15 	stw	r3,120(sp)
 8001e4c:	10800208 	cmpgei	r2,r2,8
 8001e50:	1001c01e 	bne	r2,zero,8002554 <___svfprintf_internal_r+0x189c>
 8001e54:	42000204 	addi	r8,r8,8
 8001e58:	003d2006 	br	80012dc <___svfprintf_internal_r+0x624>
 8001e5c:	d9000517 	ldw	r4,20(sp)
 8001e60:	d9801c04 	addi	r6,sp,112
 8001e64:	980b883a 	mov	r5,r19
 8001e68:	dac01015 	stw	r11,64(sp)
 8001e6c:	db400f15 	stw	r13,60(sp)
 8001e70:	db800e15 	stw	r14,56(sp)
 8001e74:	80060fc0 	call	80060fc <__ssprint_r>
 8001e78:	103c4e1e 	bne	r2,zero,8000fb4 <___svfprintf_internal_r+0x2fc>
 8001e7c:	d8c01e17 	ldw	r3,120(sp)
 8001e80:	b811883a 	mov	r8,r23
 8001e84:	dac01017 	ldw	r11,64(sp)
 8001e88:	db400f17 	ldw	r13,60(sp)
 8001e8c:	db800e17 	ldw	r14,56(sp)
 8001e90:	003d2006 	br	8001314 <___svfprintf_internal_r+0x65c>
 8001e94:	d9000517 	ldw	r4,20(sp)
 8001e98:	d9801c04 	addi	r6,sp,112
 8001e9c:	980b883a 	mov	r5,r19
 8001ea0:	dac00f15 	stw	r11,60(sp)
 8001ea4:	db400e15 	stw	r13,56(sp)
 8001ea8:	80060fc0 	call	80060fc <__ssprint_r>
 8001eac:	103c411e 	bne	r2,zero,8000fb4 <___svfprintf_internal_r+0x2fc>
 8001eb0:	d8c01e17 	ldw	r3,120(sp)
 8001eb4:	b811883a 	mov	r8,r23
 8001eb8:	dac00f17 	ldw	r11,60(sp)
 8001ebc:	db400e17 	ldw	r13,56(sp)
 8001ec0:	003d2106 	br	8001348 <___svfprintf_internal_r+0x690>
 8001ec4:	d9000c17 	ldw	r4,48(sp)
 8001ec8:	b823883a 	mov	r17,r23
 8001ecc:	a08003cc 	andi	r2,r20,15
 8001ed0:	a806973a 	slli	r3,r21,28
 8001ed4:	2085883a 	add	r2,r4,r2
 8001ed8:	a028d13a 	srli	r20,r20,4
 8001edc:	10800003 	ldbu	r2,0(r2)
 8001ee0:	a82ad13a 	srli	r21,r21,4
 8001ee4:	8c7fffc4 	addi	r17,r17,-1
 8001ee8:	1d28b03a 	or	r20,r3,r20
 8001eec:	88800005 	stb	r2,0(r17)
 8001ef0:	a544b03a 	or	r2,r20,r21
 8001ef4:	103ff51e 	bne	r2,zero,8001ecc <___svfprintf_internal_r+0x1214>
 8001ef8:	bc6bc83a 	sub	r21,r23,r17
 8001efc:	6025883a 	mov	r18,r12
 8001f00:	003e6206 	br	800188c <___svfprintf_internal_r+0xbd4>
 8001f04:	d9001617 	ldw	r4,88(sp)
 8001f08:	01016a0e 	bge	zero,r4,80024b4 <___svfprintf_internal_r+0x17fc>
 8001f0c:	d8800817 	ldw	r2,32(sp)
 8001f10:	d9000717 	ldw	r4,28(sp)
 8001f14:	1039883a 	mov	fp,r2
 8001f18:	20810816 	blt	r4,r2,800233c <___svfprintf_internal_r+0x1684>
 8001f1c:	07000a0e 	bge	zero,fp,8001f48 <___svfprintf_internal_r+0x1290>
 8001f20:	d8801d17 	ldw	r2,116(sp)
 8001f24:	1f07883a 	add	r3,r3,fp
 8001f28:	44400015 	stw	r17,0(r8)
 8001f2c:	10800044 	addi	r2,r2,1
 8001f30:	d8801d15 	stw	r2,116(sp)
 8001f34:	47000115 	stw	fp,4(r8)
 8001f38:	d8c01e15 	stw	r3,120(sp)
 8001f3c:	10800208 	cmpgei	r2,r2,8
 8001f40:	1003061e 	bne	r2,zero,8002b5c <___svfprintf_internal_r+0x1ea4>
 8001f44:	42000204 	addi	r8,r8,8
 8001f48:	e0010916 	blt	fp,zero,8002370 <___svfprintf_internal_r+0x16b8>
 8001f4c:	d8800717 	ldw	r2,28(sp)
 8001f50:	1739c83a 	sub	fp,r2,fp
 8001f54:	07011c16 	blt	zero,fp,80023c8 <___svfprintf_internal_r+0x1710>
 8001f58:	d9001617 	ldw	r4,88(sp)
 8001f5c:	d8800817 	ldw	r2,32(sp)
 8001f60:	2080f90e 	bge	r4,r2,8002348 <___svfprintf_internal_r+0x1690>
 8001f64:	d8800d17 	ldw	r2,52(sp)
 8001f68:	d9400b17 	ldw	r5,44(sp)
 8001f6c:	40800015 	stw	r2,0(r8)
 8001f70:	d8801d17 	ldw	r2,116(sp)
 8001f74:	1947883a 	add	r3,r3,r5
 8001f78:	41400115 	stw	r5,4(r8)
 8001f7c:	10800044 	addi	r2,r2,1
 8001f80:	d8801d15 	stw	r2,116(sp)
 8001f84:	d8c01e15 	stw	r3,120(sp)
 8001f88:	10800208 	cmpgei	r2,r2,8
 8001f8c:	1002ab1e 	bne	r2,zero,8002a3c <___svfprintf_internal_r+0x1d84>
 8001f90:	42000204 	addi	r8,r8,8
 8001f94:	d8800817 	ldw	r2,32(sp)
 8001f98:	d9400717 	ldw	r5,28(sp)
 8001f9c:	1105c83a 	sub	r2,r2,r4
 8001fa0:	2901320e 	bge	r5,r4,800246c <___svfprintf_internal_r+0x17b4>
 8001fa4:	1039883a 	mov	fp,r2
 8001fa8:	07000c0e 	bge	zero,fp,8001fdc <___svfprintf_internal_r+0x1324>
 8001fac:	d9000717 	ldw	r4,28(sp)
 8001fb0:	1f07883a 	add	r3,r3,fp
 8001fb4:	47000115 	stw	fp,4(r8)
 8001fb8:	8923883a 	add	r17,r17,r4
 8001fbc:	d9001d17 	ldw	r4,116(sp)
 8001fc0:	44400015 	stw	r17,0(r8)
 8001fc4:	d8c01e15 	stw	r3,120(sp)
 8001fc8:	21000044 	addi	r4,r4,1
 8001fcc:	d9001d15 	stw	r4,116(sp)
 8001fd0:	21000208 	cmpgei	r4,r4,8
 8001fd4:	2002ec1e 	bne	r4,zero,8002b88 <___svfprintf_internal_r+0x1ed0>
 8001fd8:	42000204 	addi	r8,r8,8
 8001fdc:	e000010e 	bge	fp,zero,8001fe4 <___svfprintf_internal_r+0x132c>
 8001fe0:	0039883a 	mov	fp,zero
 8001fe4:	1739c83a 	sub	fp,r2,fp
 8001fe8:	073ce70e 	bge	zero,fp,8001388 <___svfprintf_internal_r+0x6d0>
 8001fec:	03020074 	movhi	r12,2049
 8001ff0:	e1000450 	cmplti	r4,fp,17
 8001ff4:	63371884 	addi	r12,r12,-9118
 8001ff8:	d8801d17 	ldw	r2,116(sp)
 8001ffc:	2002791e 	bne	r4,zero,80029e4 <___svfprintf_internal_r+0x1d2c>
 8002000:	dc000715 	stw	r16,28(sp)
 8002004:	05400404 	movi	r21,16
 8002008:	dc400517 	ldw	r17,20(sp)
 800200c:	6021883a 	mov	r16,r12
 8002010:	00000406 	br	8002024 <___svfprintf_internal_r+0x136c>
 8002014:	42000204 	addi	r8,r8,8
 8002018:	e73ffc04 	addi	fp,fp,-16
 800201c:	e1000448 	cmpgei	r4,fp,17
 8002020:	20026e26 	beq	r4,zero,80029dc <___svfprintf_internal_r+0x1d24>
 8002024:	10800044 	addi	r2,r2,1
 8002028:	18c00404 	addi	r3,r3,16
 800202c:	44000015 	stw	r16,0(r8)
 8002030:	45400115 	stw	r21,4(r8)
 8002034:	d8c01e15 	stw	r3,120(sp)
 8002038:	d8801d15 	stw	r2,116(sp)
 800203c:	11000208 	cmpgei	r4,r2,8
 8002040:	203ff426 	beq	r4,zero,8002014 <___svfprintf_internal_r+0x135c>
 8002044:	d9801c04 	addi	r6,sp,112
 8002048:	980b883a 	mov	r5,r19
 800204c:	8809883a 	mov	r4,r17
 8002050:	80060fc0 	call	80060fc <__ssprint_r>
 8002054:	103bd71e 	bne	r2,zero,8000fb4 <___svfprintf_internal_r+0x2fc>
 8002058:	d8c01e17 	ldw	r3,120(sp)
 800205c:	d8801d17 	ldw	r2,116(sp)
 8002060:	b811883a 	mov	r8,r23
 8002064:	003fec06 	br	8002018 <___svfprintf_internal_r+0x1360>
 8002068:	9080004c 	andi	r2,r18,1
 800206c:	103efc1e 	bne	r2,zero,8001c60 <___svfprintf_internal_r+0xfa8>
 8002070:	00800044 	movi	r2,1
 8002074:	dd401d15 	stw	r21,116(sp)
 8002078:	44400015 	stw	r17,0(r8)
 800207c:	40800115 	stw	r2,4(r8)
 8002080:	d8c01e15 	stw	r3,120(sp)
 8002084:	ad400208 	cmpgei	r21,r21,8
 8002088:	a800ff1e 	bne	r21,zero,8002488 <___svfprintf_internal_r+0x17d0>
 800208c:	52800084 	addi	r10,r10,2
 8002090:	42000404 	addi	r8,r8,16
 8002094:	003f2406 	br	8001d28 <___svfprintf_internal_r+0x1070>
 8002098:	02ff230e 	bge	zero,r11,8001d28 <___svfprintf_internal_r+0x1070>
 800209c:	58800450 	cmplti	r2,r11,17
 80020a0:	03020074 	movhi	r12,2049
 80020a4:	1003351e 	bne	r2,zero,8002d7c <___svfprintf_internal_r+0x20c4>
 80020a8:	63371884 	addi	r12,r12,-9118
 80020ac:	dd000715 	stw	r20,28(sp)
 80020b0:	dc800e15 	stw	r18,56(sp)
 80020b4:	e005883a 	mov	r2,fp
 80020b8:	04400404 	movi	r17,16
 80020bc:	b039883a 	mov	fp,r22
 80020c0:	5825883a 	mov	r18,r11
 80020c4:	802d883a 	mov	r22,r16
 80020c8:	682b883a 	mov	r21,r13
 80020cc:	dc000517 	ldw	r16,20(sp)
 80020d0:	6029883a 	mov	r20,r12
 80020d4:	00000506 	br	80020ec <___svfprintf_internal_r+0x1434>
 80020d8:	10800204 	addi	r2,r2,8
 80020dc:	94bffc04 	addi	r18,r18,-16
 80020e0:	91000448 	cmpgei	r4,r18,17
 80020e4:	20018e26 	beq	r4,zero,8002720 <___svfprintf_internal_r+0x1a68>
 80020e8:	ad400044 	addi	r21,r21,1
 80020ec:	18c00404 	addi	r3,r3,16
 80020f0:	15000015 	stw	r20,0(r2)
 80020f4:	14400115 	stw	r17,4(r2)
 80020f8:	d8c01e15 	stw	r3,120(sp)
 80020fc:	dd401d15 	stw	r21,116(sp)
 8002100:	a9000208 	cmpgei	r4,r21,8
 8002104:	203ff426 	beq	r4,zero,80020d8 <___svfprintf_internal_r+0x1420>
 8002108:	d9801c04 	addi	r6,sp,112
 800210c:	980b883a 	mov	r5,r19
 8002110:	8009883a 	mov	r4,r16
 8002114:	80060fc0 	call	80060fc <__ssprint_r>
 8002118:	103ba61e 	bne	r2,zero,8000fb4 <___svfprintf_internal_r+0x2fc>
 800211c:	dd401d17 	ldw	r21,116(sp)
 8002120:	d8c01e17 	ldw	r3,120(sp)
 8002124:	b805883a 	mov	r2,r23
 8002128:	003fec06 	br	80020dc <___svfprintf_internal_r+0x1424>
 800212c:	d9000517 	ldw	r4,20(sp)
 8002130:	d9801c04 	addi	r6,sp,112
 8002134:	980b883a 	mov	r5,r19
 8002138:	80060fc0 	call	80060fc <__ssprint_r>
 800213c:	103b9d1e 	bne	r2,zero,8000fb4 <___svfprintf_internal_r+0x2fc>
 8002140:	d8c01e17 	ldw	r3,120(sp)
 8002144:	b811883a 	mov	r8,r23
 8002148:	003c8306 	br	8001358 <___svfprintf_internal_r+0x6a0>
 800214c:	002b883a 	mov	r21,zero
 8002150:	003c0306 	br	8001160 <___svfprintf_internal_r+0x4a8>
 8002154:	b023883a 	mov	r17,r22
 8002158:	003b1b06 	br	8000dc8 <___svfprintf_internal_r+0x110>
 800215c:	d9000517 	ldw	r4,20(sp)
 8002160:	d9801c04 	addi	r6,sp,112
 8002164:	980b883a 	mov	r5,r19
 8002168:	80060fc0 	call	80060fc <__ssprint_r>
 800216c:	103b911e 	bne	r2,zero,8000fb4 <___svfprintf_internal_r+0x2fc>
 8002170:	d8c01e17 	ldw	r3,120(sp)
 8002174:	dd401d17 	ldw	r21,116(sp)
 8002178:	b839883a 	mov	fp,r23
 800217c:	003eca06 	br	8001ca8 <___svfprintf_internal_r+0xff0>
 8002180:	d9000517 	ldw	r4,20(sp)
 8002184:	d9801c04 	addi	r6,sp,112
 8002188:	980b883a 	mov	r5,r19
 800218c:	80060fc0 	call	80060fc <__ssprint_r>
 8002190:	103b881e 	bne	r2,zero,8000fb4 <___svfprintf_internal_r+0x2fc>
 8002194:	d8c01e17 	ldw	r3,120(sp)
 8002198:	dd401d17 	ldw	r21,116(sp)
 800219c:	b839883a 	mov	fp,r23
 80021a0:	003eb606 	br	8001c7c <___svfprintf_internal_r+0xfc4>
 80021a4:	b823883a 	mov	r17,r23
 80021a8:	003db806 	br	800188c <___svfprintf_internal_r+0xbd4>
 80021ac:	d9000917 	ldw	r4,36(sp)
 80021b0:	d9400a17 	ldw	r5,40(sp)
 80021b4:	da000f15 	stw	r8,60(sp)
 80021b8:	200d883a 	mov	r6,r4
 80021bc:	280f883a 	mov	r7,r5
 80021c0:	dac00e15 	stw	r11,56(sp)
 80021c4:	db000715 	stw	r12,28(sp)
 80021c8:	800b6b40 	call	800b6b4 <__unorddf2>
 80021cc:	db000717 	ldw	r12,28(sp)
 80021d0:	dac00e17 	ldw	r11,56(sp)
 80021d4:	da000f17 	ldw	r8,60(sp)
 80021d8:	1002dc1e 	bne	r2,zero,8002d4c <___svfprintf_internal_r+0x2094>
 80021dc:	00fff7c4 	movi	r3,-33
 80021e0:	e0c6703a 	and	r3,fp,r3
 80021e4:	58bfffe0 	cmpeqi	r2,r11,-1
 80021e8:	d8c00715 	stw	r3,28(sp)
 80021ec:	1002641e 	bne	r2,zero,8002b80 <___svfprintf_internal_r+0x1ec8>
 80021f0:	188011d8 	cmpnei	r2,r3,71
 80021f4:	1000a126 	beq	r2,zero,800247c <___svfprintf_internal_r+0x17c4>
 80021f8:	d8800a17 	ldw	r2,40(sp)
 80021fc:	64804014 	ori	r18,r12,256
 8002200:	10021716 	blt	r2,zero,8002a60 <___svfprintf_internal_r+0x1da8>
 8002204:	dd000a17 	ldw	r20,40(sp)
 8002208:	d8000e05 	stb	zero,56(sp)
 800220c:	e08019a0 	cmpeqi	r2,fp,102
 8002210:	d8800f15 	stw	r2,60(sp)
 8002214:	1001561e 	bne	r2,zero,8002770 <___svfprintf_internal_r+0x1ab8>
 8002218:	e08011a0 	cmpeqi	r2,fp,70
 800221c:	1001541e 	bne	r2,zero,8002770 <___svfprintf_internal_r+0x1ab8>
 8002220:	d8800717 	ldw	r2,28(sp)
 8002224:	da001215 	stw	r8,72(sp)
 8002228:	db001015 	stw	r12,64(sp)
 800222c:	10801158 	cmpnei	r2,r2,69
 8002230:	10022d26 	beq	r2,zero,8002ae8 <___svfprintf_internal_r+0x1e30>
 8002234:	d8801a04 	addi	r2,sp,104
 8002238:	d8800315 	stw	r2,12(sp)
 800223c:	d9400917 	ldw	r5,36(sp)
 8002240:	d8801704 	addi	r2,sp,92
 8002244:	d9000517 	ldw	r4,20(sp)
 8002248:	d8800215 	stw	r2,8(sp)
 800224c:	d8801604 	addi	r2,sp,88
 8002250:	dac00015 	stw	r11,0(sp)
 8002254:	d8800115 	stw	r2,4(sp)
 8002258:	01c00084 	movi	r7,2
 800225c:	a00d883a 	mov	r6,r20
 8002260:	dac00815 	stw	r11,32(sp)
 8002264:	800302c0 	call	800302c <_dtoa_r>
 8002268:	dac00817 	ldw	r11,32(sp)
 800226c:	1023883a 	mov	r17,r2
 8002270:	e08019d8 	cmpnei	r2,fp,103
 8002274:	db001017 	ldw	r12,64(sp)
 8002278:	da001217 	ldw	r8,72(sp)
 800227c:	582b883a 	mov	r21,r11
 8002280:	10022b1e 	bne	r2,zero,8002b30 <___svfprintf_internal_r+0x1e78>
 8002284:	6080004c 	andi	r2,r12,1
 8002288:	10022b1e 	bne	r2,zero,8002b38 <___svfprintf_internal_r+0x1e80>
 800228c:	d8c01617 	ldw	r3,88(sp)
 8002290:	d8800717 	ldw	r2,28(sp)
 8002294:	d8c00715 	stw	r3,28(sp)
 8002298:	d8c01a17 	ldw	r3,104(sp)
 800229c:	108011e0 	cmpeqi	r2,r2,71
 80022a0:	1c47c83a 	sub	r3,r3,r17
 80022a4:	d8c00815 	stw	r3,32(sp)
 80022a8:	10017426 	beq	r2,zero,800287c <___svfprintf_internal_r+0x1bc4>
 80022ac:	d8c00717 	ldw	r3,28(sp)
 80022b0:	18bfff50 	cmplti	r2,r3,-3
 80022b4:	1001701e 	bne	r2,zero,8002878 <___svfprintf_internal_r+0x1bc0>
 80022b8:	58c16f16 	blt	r11,r3,8002878 <___svfprintf_internal_r+0x1bc0>
 80022bc:	d8800717 	ldw	r2,28(sp)
 80022c0:	d8c00817 	ldw	r3,32(sp)
 80022c4:	10c23f16 	blt	r2,r3,8002bc4 <___svfprintf_internal_r+0x1f0c>
 80022c8:	6300004c 	andi	r12,r12,1
 80022cc:	6002761e 	bne	r12,zero,8002ca8 <___svfprintf_internal_r+0x1ff0>
 80022d0:	1029883a 	mov	r20,r2
 80022d4:	1000010e 	bge	r2,zero,80022dc <___svfprintf_internal_r+0x1624>
 80022d8:	0029883a 	mov	r20,zero
 80022dc:	dd400717 	ldw	r21,28(sp)
 80022e0:	070019c4 	movi	fp,103
 80022e4:	d8800e07 	ldb	r2,56(sp)
 80022e8:	10021926 	beq	r2,zero,8002b50 <___svfprintf_internal_r+0x1e98>
 80022ec:	00800b44 	movi	r2,45
 80022f0:	d8801545 	stb	r2,85(sp)
 80022f4:	0017883a 	mov	r11,zero
 80022f8:	003d6c06 	br	80018ac <___svfprintf_internal_r+0xbf4>
 80022fc:	d9400417 	ldw	r5,16(sp)
 8002300:	20800017 	ldw	r2,0(r4)
 8002304:	d8c00615 	stw	r3,24(sp)
 8002308:	2809d7fa 	srai	r4,r5,31
 800230c:	11400015 	stw	r5,0(r2)
 8002310:	11000115 	stw	r4,4(r2)
 8002314:	003a8e06 	br	8000d50 <___svfprintf_internal_r+0x98>
 8002318:	00800c04 	movi	r2,48
 800231c:	d8801585 	stb	r2,86(sp)
 8002320:	df0015c5 	stb	fp,87(sp)
 8002324:	63000094 	ori	r12,r12,2
 8002328:	00800084 	movi	r2,2
 800232c:	003c8d06 	br	8001564 <___svfprintf_internal_r+0x8ac>
 8002330:	0421c83a 	sub	r16,zero,r16
 8002334:	d8800615 	stw	r2,24(sp)
 8002338:	003b5c06 	br	80010ac <___svfprintf_internal_r+0x3f4>
 800233c:	2039883a 	mov	fp,r4
 8002340:	073ef716 	blt	zero,fp,8001f20 <___svfprintf_internal_r+0x1268>
 8002344:	003f0006 	br	8001f48 <___svfprintf_internal_r+0x1290>
 8002348:	9080004c 	andi	r2,r18,1
 800234c:	103f051e 	bne	r2,zero,8001f64 <___svfprintf_internal_r+0x12ac>
 8002350:	d8800817 	ldw	r2,32(sp)
 8002354:	d9400717 	ldw	r5,28(sp)
 8002358:	1105c83a 	sub	r2,r2,r4
 800235c:	2900430e 	bge	r5,r4,800246c <___svfprintf_internal_r+0x17b4>
 8002360:	1039883a 	mov	fp,r2
 8002364:	003f1d06 	br	8001fdc <___svfprintf_internal_r+0x1324>
 8002368:	d8c01e17 	ldw	r3,120(sp)
 800236c:	003c0606 	br	8001388 <___svfprintf_internal_r+0x6d0>
 8002370:	d8800717 	ldw	r2,28(sp)
 8002374:	0039883a 	mov	fp,zero
 8002378:	1739c83a 	sub	fp,r2,fp
 800237c:	073ef60e 	bge	zero,fp,8001f58 <___svfprintf_internal_r+0x12a0>
 8002380:	00001106 	br	80023c8 <___svfprintf_internal_r+0x1710>
 8002384:	8809883a 	mov	r4,r17
 8002388:	8000c200 	call	8000c20 <strlen>
 800238c:	102b883a 	mov	r21,r2
 8002390:	1029883a 	mov	r20,r2
 8002394:	dc800615 	stw	r18,24(sp)
 8002398:	db000717 	ldw	r12,28(sp)
 800239c:	da000e17 	ldw	r8,56(sp)
 80023a0:	003bc306 	br	80012b0 <___svfprintf_internal_r+0x5f8>
 80023a4:	d9000517 	ldw	r4,20(sp)
 80023a8:	01401004 	movi	r5,64
 80023ac:	80047140 	call	8004714 <_malloc_r>
 80023b0:	98800015 	stw	r2,0(r19)
 80023b4:	98800415 	stw	r2,16(r19)
 80023b8:	10028926 	beq	r2,zero,8002de0 <___svfprintf_internal_r+0x2128>
 80023bc:	00801004 	movi	r2,64
 80023c0:	98800515 	stw	r2,20(r19)
 80023c4:	003a5606 	br	8000d20 <___svfprintf_internal_r+0x68>
 80023c8:	03020074 	movhi	r12,2049
 80023cc:	e1000450 	cmplti	r4,fp,17
 80023d0:	63371884 	addi	r12,r12,-9118
 80023d4:	d8801d17 	ldw	r2,116(sp)
 80023d8:	2001761e 	bne	r4,zero,80029b4 <___svfprintf_internal_r+0x1cfc>
 80023dc:	dc800e15 	stw	r18,56(sp)
 80023e0:	dc400f15 	stw	r17,60(sp)
 80023e4:	05400404 	movi	r21,16
 80023e8:	e023883a 	mov	r17,fp
 80023ec:	6025883a 	mov	r18,r12
 80023f0:	b039883a 	mov	fp,r22
 80023f4:	802d883a 	mov	r22,r16
 80023f8:	dc000517 	ldw	r16,20(sp)
 80023fc:	00000406 	br	8002410 <___svfprintf_internal_r+0x1758>
 8002400:	42000204 	addi	r8,r8,8
 8002404:	8c7ffc04 	addi	r17,r17,-16
 8002408:	89000448 	cmpgei	r4,r17,17
 800240c:	20016326 	beq	r4,zero,800299c <___svfprintf_internal_r+0x1ce4>
 8002410:	10800044 	addi	r2,r2,1
 8002414:	18c00404 	addi	r3,r3,16
 8002418:	44800015 	stw	r18,0(r8)
 800241c:	45400115 	stw	r21,4(r8)
 8002420:	d8c01e15 	stw	r3,120(sp)
 8002424:	d8801d15 	stw	r2,116(sp)
 8002428:	11000208 	cmpgei	r4,r2,8
 800242c:	203ff426 	beq	r4,zero,8002400 <___svfprintf_internal_r+0x1748>
 8002430:	d9801c04 	addi	r6,sp,112
 8002434:	980b883a 	mov	r5,r19
 8002438:	8009883a 	mov	r4,r16
 800243c:	80060fc0 	call	80060fc <__ssprint_r>
 8002440:	103adc1e 	bne	r2,zero,8000fb4 <___svfprintf_internal_r+0x2fc>
 8002444:	d8c01e17 	ldw	r3,120(sp)
 8002448:	d8801d17 	ldw	r2,116(sp)
 800244c:	b811883a 	mov	r8,r23
 8002450:	003fec06 	br	8002404 <___svfprintf_internal_r+0x174c>
 8002454:	d8800617 	ldw	r2,24(sp)
 8002458:	10800017 	ldw	r2,0(r2)
 800245c:	d8c00615 	stw	r3,24(sp)
 8002460:	d8c00417 	ldw	r3,16(sp)
 8002464:	10c00015 	stw	r3,0(r2)
 8002468:	003a3906 	br	8000d50 <___svfprintf_internal_r+0x98>
 800246c:	d9000817 	ldw	r4,32(sp)
 8002470:	d9400717 	ldw	r5,28(sp)
 8002474:	2179c83a 	sub	fp,r4,r5
 8002478:	003ecb06 	br	8001fa8 <___svfprintf_internal_r+0x12f0>
 800247c:	583f5e1e 	bne	r11,zero,80021f8 <___svfprintf_internal_r+0x1540>
 8002480:	02c00044 	movi	r11,1
 8002484:	003f5c06 	br	80021f8 <___svfprintf_internal_r+0x1540>
 8002488:	d9000517 	ldw	r4,20(sp)
 800248c:	d9801c04 	addi	r6,sp,112
 8002490:	980b883a 	mov	r5,r19
 8002494:	80060fc0 	call	80060fc <__ssprint_r>
 8002498:	103ac61e 	bne	r2,zero,8000fb4 <___svfprintf_internal_r+0x2fc>
 800249c:	da801d17 	ldw	r10,116(sp)
 80024a0:	d8c01e17 	ldw	r3,120(sp)
 80024a4:	da002b04 	addi	r8,sp,172
 80024a8:	52800044 	addi	r10,r10,1
 80024ac:	b839883a 	mov	fp,r23
 80024b0:	003e1d06 	br	8001d28 <___svfprintf_internal_r+0x1070>
 80024b4:	d8801d17 	ldw	r2,116(sp)
 80024b8:	01420074 	movhi	r5,2049
 80024bc:	29771804 	addi	r5,r5,-9120
 80024c0:	10800044 	addi	r2,r2,1
 80024c4:	18c00044 	addi	r3,r3,1
 80024c8:	41400015 	stw	r5,0(r8)
 80024cc:	01400044 	movi	r5,1
 80024d0:	d8801d15 	stw	r2,116(sp)
 80024d4:	41400115 	stw	r5,4(r8)
 80024d8:	d8c01e15 	stw	r3,120(sp)
 80024dc:	10800208 	cmpgei	r2,r2,8
 80024e0:	10014d1e 	bne	r2,zero,8002a18 <___svfprintf_internal_r+0x1d60>
 80024e4:	42000204 	addi	r8,r8,8
 80024e8:	2000541e 	bne	r4,zero,800263c <___svfprintf_internal_r+0x1984>
 80024ec:	d9000817 	ldw	r4,32(sp)
 80024f0:	9080004c 	andi	r2,r18,1
 80024f4:	1104b03a 	or	r2,r2,r4
 80024f8:	103ba326 	beq	r2,zero,8001388 <___svfprintf_internal_r+0x6d0>
 80024fc:	d8800d17 	ldw	r2,52(sp)
 8002500:	d9000b17 	ldw	r4,44(sp)
 8002504:	40800015 	stw	r2,0(r8)
 8002508:	d8801d17 	ldw	r2,116(sp)
 800250c:	20c7883a 	add	r3,r4,r3
 8002510:	41000115 	stw	r4,4(r8)
 8002514:	10800044 	addi	r2,r2,1
 8002518:	d8c01e15 	stw	r3,120(sp)
 800251c:	d8801d15 	stw	r2,116(sp)
 8002520:	11000208 	cmpgei	r4,r2,8
 8002524:	2001581e 	bne	r4,zero,8002a88 <___svfprintf_internal_r+0x1dd0>
 8002528:	42000204 	addi	r8,r8,8
 800252c:	d9000817 	ldw	r4,32(sp)
 8002530:	10800044 	addi	r2,r2,1
 8002534:	d8801d15 	stw	r2,116(sp)
 8002538:	20c7883a 	add	r3,r4,r3
 800253c:	44400015 	stw	r17,0(r8)
 8002540:	41000115 	stw	r4,4(r8)
 8002544:	d8c01e15 	stw	r3,120(sp)
 8002548:	10800208 	cmpgei	r2,r2,8
 800254c:	103b8d26 	beq	r2,zero,8001384 <___svfprintf_internal_r+0x6cc>
 8002550:	003dfe06 	br	8001d4c <___svfprintf_internal_r+0x1094>
 8002554:	d9000517 	ldw	r4,20(sp)
 8002558:	d9801c04 	addi	r6,sp,112
 800255c:	980b883a 	mov	r5,r19
 8002560:	dac01015 	stw	r11,64(sp)
 8002564:	db400f15 	stw	r13,60(sp)
 8002568:	db800e15 	stw	r14,56(sp)
 800256c:	80060fc0 	call	80060fc <__ssprint_r>
 8002570:	103a901e 	bne	r2,zero,8000fb4 <___svfprintf_internal_r+0x2fc>
 8002574:	d8c01e17 	ldw	r3,120(sp)
 8002578:	b811883a 	mov	r8,r23
 800257c:	dac01017 	ldw	r11,64(sp)
 8002580:	db400f17 	ldw	r13,60(sp)
 8002584:	db800e17 	ldw	r14,56(sp)
 8002588:	003b5406 	br	80012dc <___svfprintf_internal_r+0x624>
 800258c:	d9000517 	ldw	r4,20(sp)
 8002590:	d9801c04 	addi	r6,sp,112
 8002594:	980b883a 	mov	r5,r19
 8002598:	80060fc0 	call	80060fc <__ssprint_r>
 800259c:	103a851e 	bne	r2,zero,8000fb4 <___svfprintf_internal_r+0x2fc>
 80025a0:	b811883a 	mov	r8,r23
 80025a4:	003d0006 	br	80019a8 <___svfprintf_internal_r+0xcf0>
 80025a8:	d9000517 	ldw	r4,20(sp)
 80025ac:	d9801c04 	addi	r6,sp,112
 80025b0:	980b883a 	mov	r5,r19
 80025b4:	dac00e15 	stw	r11,56(sp)
 80025b8:	80060fc0 	call	80060fc <__ssprint_r>
 80025bc:	103a7d1e 	bne	r2,zero,8000fb4 <___svfprintf_internal_r+0x2fc>
 80025c0:	d8c01e17 	ldw	r3,120(sp)
 80025c4:	b811883a 	mov	r8,r23
 80025c8:	dac00e17 	ldw	r11,56(sp)
 80025cc:	003b6006 	br	8001350 <___svfprintf_internal_r+0x698>
 80025d0:	10c00060 	cmpeqi	r3,r2,1
 80025d4:	9019883a 	mov	r12,r18
 80025d8:	183c5026 	beq	r3,zero,800171c <___svfprintf_internal_r+0xa64>
 80025dc:	003ca606 	br	8001878 <___svfprintf_internal_r+0xbc0>
 80025e0:	b7000043 	ldbu	fp,1(r22)
 80025e4:	63000814 	ori	r12,r12,32
 80025e8:	b5800044 	addi	r22,r22,1
 80025ec:	e2803fcc 	andi	r10,fp,255
 80025f0:	5280201c 	xori	r10,r10,128
 80025f4:	52bfe004 	addi	r10,r10,-128
 80025f8:	0039fb06 	br	8000de8 <___svfprintf_internal_r+0x130>
 80025fc:	d9000517 	ldw	r4,20(sp)
 8002600:	d9801c04 	addi	r6,sp,112
 8002604:	980b883a 	mov	r5,r19
 8002608:	80060fc0 	call	80060fc <__ssprint_r>
 800260c:	103a691e 	bne	r2,zero,8000fb4 <___svfprintf_internal_r+0x2fc>
 8002610:	d8c01e17 	ldw	r3,120(sp)
 8002614:	b811883a 	mov	r8,r23
 8002618:	003cf506 	br	80019f0 <___svfprintf_internal_r+0xd38>
 800261c:	588001f0 	cmpltui	r2,r11,7
 8002620:	582b883a 	mov	r21,r11
 8002624:	10011426 	beq	r2,zero,8002a78 <___svfprintf_internal_r+0x1dc0>
 8002628:	04420074 	movhi	r17,2049
 800262c:	a829883a 	mov	r20,r21
 8002630:	dc800615 	stw	r18,24(sp)
 8002634:	8c771604 	addi	r17,r17,-9128
 8002638:	003b1d06 	br	80012b0 <___svfprintf_internal_r+0x5f8>
 800263c:	d8800d17 	ldw	r2,52(sp)
 8002640:	d9400b17 	ldw	r5,44(sp)
 8002644:	40800015 	stw	r2,0(r8)
 8002648:	d8801d17 	ldw	r2,116(sp)
 800264c:	28c7883a 	add	r3,r5,r3
 8002650:	41400115 	stw	r5,4(r8)
 8002654:	10800044 	addi	r2,r2,1
 8002658:	d8c01e15 	stw	r3,120(sp)
 800265c:	d8801d15 	stw	r2,116(sp)
 8002660:	11400208 	cmpgei	r5,r2,8
 8002664:	2801081e 	bne	r5,zero,8002a88 <___svfprintf_internal_r+0x1dd0>
 8002668:	42000204 	addi	r8,r8,8
 800266c:	203faf0e 	bge	r4,zero,800252c <___svfprintf_internal_r+0x1874>
 8002670:	03020074 	movhi	r12,2049
 8002674:	217ffc08 	cmpgei	r5,r4,-16
 8002678:	63371884 	addi	r12,r12,-9118
 800267c:	012bc83a 	sub	r21,zero,r4
 8002680:	2801751e 	bne	r5,zero,8002c58 <___svfprintf_internal_r+0x1fa0>
 8002684:	8009883a 	mov	r4,r16
 8002688:	dc400715 	stw	r17,28(sp)
 800268c:	a821883a 	mov	r16,r21
 8002690:	07000404 	movi	fp,16
 8002694:	6023883a 	mov	r17,r12
 8002698:	202b883a 	mov	r21,r4
 800269c:	00000406 	br	80026b0 <___svfprintf_internal_r+0x19f8>
 80026a0:	42000204 	addi	r8,r8,8
 80026a4:	843ffc04 	addi	r16,r16,-16
 80026a8:	81000448 	cmpgei	r4,r16,17
 80026ac:	20016526 	beq	r4,zero,8002c44 <___svfprintf_internal_r+0x1f8c>
 80026b0:	10800044 	addi	r2,r2,1
 80026b4:	18c00404 	addi	r3,r3,16
 80026b8:	44400015 	stw	r17,0(r8)
 80026bc:	47000115 	stw	fp,4(r8)
 80026c0:	d8c01e15 	stw	r3,120(sp)
 80026c4:	d8801d15 	stw	r2,116(sp)
 80026c8:	11000208 	cmpgei	r4,r2,8
 80026cc:	203ff426 	beq	r4,zero,80026a0 <___svfprintf_internal_r+0x19e8>
 80026d0:	d9000517 	ldw	r4,20(sp)
 80026d4:	d9801c04 	addi	r6,sp,112
 80026d8:	980b883a 	mov	r5,r19
 80026dc:	80060fc0 	call	80060fc <__ssprint_r>
 80026e0:	103a341e 	bne	r2,zero,8000fb4 <___svfprintf_internal_r+0x2fc>
 80026e4:	d8c01e17 	ldw	r3,120(sp)
 80026e8:	d8801d17 	ldw	r2,116(sp)
 80026ec:	b811883a 	mov	r8,r23
 80026f0:	003fec06 	br	80026a4 <___svfprintf_internal_r+0x19ec>
 80026f4:	8019883a 	mov	r12,r16
 80026f8:	dc000717 	ldw	r16,28(sp)
 80026fc:	10800044 	addi	r2,r2,1
 8002700:	1c47883a 	add	r3,r3,r17
 8002704:	d8801d15 	stw	r2,116(sp)
 8002708:	43000015 	stw	r12,0(r8)
 800270c:	44400115 	stw	r17,4(r8)
 8002710:	d8c01e15 	stw	r3,120(sp)
 8002714:	10800208 	cmpgei	r2,r2,8
 8002718:	103b1a26 	beq	r2,zero,8001384 <___svfprintf_internal_r+0x6cc>
 800271c:	003d8b06 	br	8001d4c <___svfprintf_internal_r+0x1094>
 8002720:	9017883a 	mov	r11,r18
 8002724:	a019883a 	mov	r12,r20
 8002728:	dc800e17 	ldw	r18,56(sp)
 800272c:	dd000717 	ldw	r20,28(sp)
 8002730:	b021883a 	mov	r16,r22
 8002734:	aa800044 	addi	r10,r21,1
 8002738:	e02d883a 	mov	r22,fp
 800273c:	1039883a 	mov	fp,r2
 8002740:	10800204 	addi	r2,r2,8
 8002744:	1ac7883a 	add	r3,r3,r11
 8002748:	e3000015 	stw	r12,0(fp)
 800274c:	e2c00115 	stw	r11,4(fp)
 8002750:	d8c01e15 	stw	r3,120(sp)
 8002754:	da801d15 	stw	r10,116(sp)
 8002758:	51000208 	cmpgei	r4,r10,8
 800275c:	203f4a1e 	bne	r4,zero,8002488 <___svfprintf_internal_r+0x17d0>
 8002760:	52800044 	addi	r10,r10,1
 8002764:	12000204 	addi	r8,r2,8
 8002768:	1039883a 	mov	fp,r2
 800276c:	003d6e06 	br	8001d28 <___svfprintf_internal_r+0x1070>
 8002770:	d8801a04 	addi	r2,sp,104
 8002774:	d8800315 	stw	r2,12(sp)
 8002778:	d9400917 	ldw	r5,36(sp)
 800277c:	d8801704 	addi	r2,sp,92
 8002780:	d9000517 	ldw	r4,20(sp)
 8002784:	d8800215 	stw	r2,8(sp)
 8002788:	d8801604 	addi	r2,sp,88
 800278c:	dac00015 	stw	r11,0(sp)
 8002790:	d8800115 	stw	r2,4(sp)
 8002794:	01c000c4 	movi	r7,3
 8002798:	a00d883a 	mov	r6,r20
 800279c:	da001215 	stw	r8,72(sp)
 80027a0:	db001015 	stw	r12,64(sp)
 80027a4:	dac00815 	stw	r11,32(sp)
 80027a8:	800302c0 	call	800302c <_dtoa_r>
 80027ac:	dac00817 	ldw	r11,32(sp)
 80027b0:	1023883a 	mov	r17,r2
 80027b4:	db001017 	ldw	r12,64(sp)
 80027b8:	12eb883a 	add	r21,r2,r11
 80027bc:	88800007 	ldb	r2,0(r17)
 80027c0:	da001217 	ldw	r8,72(sp)
 80027c4:	10800c20 	cmpeqi	r2,r2,48
 80027c8:	10013e1e 	bne	r2,zero,8002cc4 <___svfprintf_internal_r+0x200c>
 80027cc:	d8801617 	ldw	r2,88(sp)
 80027d0:	a8ab883a 	add	r21,r21,r2
 80027d4:	d9000917 	ldw	r4,36(sp)
 80027d8:	000d883a 	mov	r6,zero
 80027dc:	000f883a 	mov	r7,zero
 80027e0:	a00b883a 	mov	r5,r20
 80027e4:	da001215 	stw	r8,72(sp)
 80027e8:	dac01015 	stw	r11,64(sp)
 80027ec:	db000815 	stw	r12,32(sp)
 80027f0:	800a3080 	call	800a308 <__eqdf2>
 80027f4:	db000817 	ldw	r12,32(sp)
 80027f8:	dac01017 	ldw	r11,64(sp)
 80027fc:	da001217 	ldw	r8,72(sp)
 8002800:	10009b26 	beq	r2,zero,8002a70 <___svfprintf_internal_r+0x1db8>
 8002804:	d8801a17 	ldw	r2,104(sp)
 8002808:	01000c04 	movi	r4,48
 800280c:	1540052e 	bgeu	r2,r21,8002824 <___svfprintf_internal_r+0x1b6c>
 8002810:	10c00044 	addi	r3,r2,1
 8002814:	d8c01a15 	stw	r3,104(sp)
 8002818:	11000005 	stb	r4,0(r2)
 800281c:	d8801a17 	ldw	r2,104(sp)
 8002820:	157ffb36 	bltu	r2,r21,8002810 <___svfprintf_internal_r+0x1b58>
 8002824:	1445c83a 	sub	r2,r2,r17
 8002828:	d8c00717 	ldw	r3,28(sp)
 800282c:	d8800815 	stw	r2,32(sp)
 8002830:	d8801617 	ldw	r2,88(sp)
 8002834:	18c011d8 	cmpnei	r3,r3,71
 8002838:	d8800715 	stw	r2,28(sp)
 800283c:	183e9b26 	beq	r3,zero,80022ac <___svfprintf_internal_r+0x15f4>
 8002840:	d8800f17 	ldw	r2,60(sp)
 8002844:	10000d26 	beq	r2,zero,800287c <___svfprintf_internal_r+0x1bc4>
 8002848:	d8c00717 	ldw	r3,28(sp)
 800284c:	6080004c 	andi	r2,r12,1
 8002850:	12c4b03a 	or	r2,r2,r11
 8002854:	00c0ba0e 	bge	zero,r3,8002b40 <___svfprintf_internal_r+0x1e88>
 8002858:	1001381e 	bne	r2,zero,8002d3c <___svfprintf_internal_r+0x2084>
 800285c:	dd400717 	ldw	r21,28(sp)
 8002860:	a829883a 	mov	r20,r21
 8002864:	003e9f06 	br	80022e4 <___svfprintf_internal_r+0x162c>
 8002868:	d8800615 	stw	r2,24(sp)
 800286c:	002b883a 	mov	r21,zero
 8002870:	00800044 	movi	r2,1
 8002874:	003b3b06 	br	8001564 <___svfprintf_internal_r+0x8ac>
 8002878:	e73fff84 	addi	fp,fp,-2
 800287c:	d8800717 	ldw	r2,28(sp)
 8002880:	df001845 	stb	fp,97(sp)
 8002884:	157fffc4 	addi	r21,r2,-1
 8002888:	dd401615 	stw	r21,88(sp)
 800288c:	a8009116 	blt	r21,zero,8002ad4 <___svfprintf_internal_r+0x1e1c>
 8002890:	00800ac4 	movi	r2,43
 8002894:	d8801885 	stb	r2,98(sp)
 8002898:	a8800290 	cmplti	r2,r21,10
 800289c:	1001191e 	bne	r2,zero,8002d04 <___svfprintf_internal_r+0x204c>
 80028a0:	dc000f15 	stw	r16,60(sp)
 80028a4:	dd001bc4 	addi	r20,sp,111
 80028a8:	a821883a 	mov	r16,r21
 80028ac:	db000715 	stw	r12,28(sp)
 80028b0:	982b883a 	mov	r21,r19
 80028b4:	4027883a 	mov	r19,r8
 80028b8:	00000206 	br	80028c4 <___svfprintf_internal_r+0x1c0c>
 80028bc:	2029883a 	mov	r20,r4
 80028c0:	1021883a 	mov	r16,r2
 80028c4:	8009883a 	mov	r4,r16
 80028c8:	01400284 	movi	r5,10
 80028cc:	80009940 	call	8000994 <__modsi3>
 80028d0:	10800c04 	addi	r2,r2,48
 80028d4:	8009883a 	mov	r4,r16
 80028d8:	a0bfffc5 	stb	r2,-1(r20)
 80028dc:	01400284 	movi	r5,10
 80028e0:	80009140 	call	8000914 <__divsi3>
 80028e4:	80c01908 	cmpgei	r3,r16,100
 80028e8:	a13fffc4 	addi	r4,r20,-1
 80028ec:	183ff31e 	bne	r3,zero,80028bc <___svfprintf_internal_r+0x1c04>
 80028f0:	10800c04 	addi	r2,r2,48
 80028f4:	20bfffc5 	stb	r2,-1(r4)
 80028f8:	a0ffff84 	addi	r3,r20,-2
 80028fc:	d9001bc4 	addi	r4,sp,111
 8002900:	9811883a 	mov	r8,r19
 8002904:	db000717 	ldw	r12,28(sp)
 8002908:	dc000f17 	ldw	r16,60(sp)
 800290c:	a827883a 	mov	r19,r21
 8002910:	1901242e 	bgeu	r3,r4,8002da4 <___svfprintf_internal_r+0x20ec>
 8002914:	d90018c4 	addi	r4,sp,99
 8002918:	00000106 	br	8002920 <___svfprintf_internal_r+0x1c68>
 800291c:	18800003 	ldbu	r2,0(r3)
 8002920:	21000044 	addi	r4,r4,1
 8002924:	20bfffc5 	stb	r2,-1(r4)
 8002928:	18c00044 	addi	r3,r3,1
 800292c:	d8801bc4 	addi	r2,sp,111
 8002930:	18bffa1e 	bne	r3,r2,800291c <___svfprintf_internal_r+0x1c64>
 8002934:	d8801c44 	addi	r2,sp,113
 8002938:	d8c018c4 	addi	r3,sp,99
 800293c:	1505c83a 	sub	r2,r2,r20
 8002940:	1885883a 	add	r2,r3,r2
 8002944:	d8c01844 	addi	r3,sp,97
 8002948:	10c5c83a 	sub	r2,r2,r3
 800294c:	d8801115 	stw	r2,68(sp)
 8002950:	d8c00817 	ldw	r3,32(sp)
 8002954:	d9001117 	ldw	r4,68(sp)
 8002958:	18800088 	cmpgei	r2,r3,2
 800295c:	192b883a 	add	r21,r3,r4
 8002960:	1000ef26 	beq	r2,zero,8002d20 <___svfprintf_internal_r+0x2068>
 8002964:	d8800b17 	ldw	r2,44(sp)
 8002968:	a8ab883a 	add	r21,r21,r2
 800296c:	a829883a 	mov	r20,r21
 8002970:	a800010e 	bge	r21,zero,8002978 <___svfprintf_internal_r+0x1cc0>
 8002974:	0029883a 	mov	r20,zero
 8002978:	d8000715 	stw	zero,28(sp)
 800297c:	003e5906 	br	80022e4 <___svfprintf_internal_r+0x162c>
 8002980:	04420074 	movhi	r17,2049
 8002984:	8c770804 	addi	r17,r17,-9184
 8002988:	003b4406 	br	800169c <___svfprintf_internal_r+0x9e4>
 800298c:	d8800615 	stw	r2,24(sp)
 8002990:	002b883a 	mov	r21,zero
 8002994:	0005883a 	mov	r2,zero
 8002998:	003af206 	br	8001564 <___svfprintf_internal_r+0x8ac>
 800299c:	b021883a 	mov	r16,r22
 80029a0:	9019883a 	mov	r12,r18
 80029a4:	e02d883a 	mov	r22,fp
 80029a8:	dc800e17 	ldw	r18,56(sp)
 80029ac:	8839883a 	mov	fp,r17
 80029b0:	dc400f17 	ldw	r17,60(sp)
 80029b4:	10800044 	addi	r2,r2,1
 80029b8:	1f07883a 	add	r3,r3,fp
 80029bc:	d8801d15 	stw	r2,116(sp)
 80029c0:	43000015 	stw	r12,0(r8)
 80029c4:	47000115 	stw	fp,4(r8)
 80029c8:	d8c01e15 	stw	r3,120(sp)
 80029cc:	10800208 	cmpgei	r2,r2,8
 80029d0:	1000381e 	bne	r2,zero,8002ab4 <___svfprintf_internal_r+0x1dfc>
 80029d4:	42000204 	addi	r8,r8,8
 80029d8:	003d5f06 	br	8001f58 <___svfprintf_internal_r+0x12a0>
 80029dc:	8019883a 	mov	r12,r16
 80029e0:	dc000717 	ldw	r16,28(sp)
 80029e4:	10800044 	addi	r2,r2,1
 80029e8:	1f07883a 	add	r3,r3,fp
 80029ec:	d8801d15 	stw	r2,116(sp)
 80029f0:	43000015 	stw	r12,0(r8)
 80029f4:	47000115 	stw	fp,4(r8)
 80029f8:	d8c01e15 	stw	r3,120(sp)
 80029fc:	10800208 	cmpgei	r2,r2,8
 8002a00:	103a6026 	beq	r2,zero,8001384 <___svfprintf_internal_r+0x6cc>
 8002a04:	003cd106 	br	8001d4c <___svfprintf_internal_r+0x1094>
 8002a08:	00800b44 	movi	r2,45
 8002a0c:	d8801545 	stb	r2,85(sp)
 8002a10:	03400b44 	movi	r13,45
 8002a14:	003b1d06 	br	800168c <___svfprintf_internal_r+0x9d4>
 8002a18:	d9000517 	ldw	r4,20(sp)
 8002a1c:	d9801c04 	addi	r6,sp,112
 8002a20:	980b883a 	mov	r5,r19
 8002a24:	80060fc0 	call	80060fc <__ssprint_r>
 8002a28:	1039621e 	bne	r2,zero,8000fb4 <___svfprintf_internal_r+0x2fc>
 8002a2c:	d9001617 	ldw	r4,88(sp)
 8002a30:	d8c01e17 	ldw	r3,120(sp)
 8002a34:	b811883a 	mov	r8,r23
 8002a38:	003eab06 	br	80024e8 <___svfprintf_internal_r+0x1830>
 8002a3c:	d9000517 	ldw	r4,20(sp)
 8002a40:	d9801c04 	addi	r6,sp,112
 8002a44:	980b883a 	mov	r5,r19
 8002a48:	80060fc0 	call	80060fc <__ssprint_r>
 8002a4c:	1039591e 	bne	r2,zero,8000fb4 <___svfprintf_internal_r+0x2fc>
 8002a50:	d9001617 	ldw	r4,88(sp)
 8002a54:	d8c01e17 	ldw	r3,120(sp)
 8002a58:	b811883a 	mov	r8,r23
 8002a5c:	003d4d06 	br	8001f94 <___svfprintf_internal_r+0x12dc>
 8002a60:	1520003c 	xorhi	r20,r2,32768
 8002a64:	00800b44 	movi	r2,45
 8002a68:	d8800e05 	stb	r2,56(sp)
 8002a6c:	003de706 	br	800220c <___svfprintf_internal_r+0x1554>
 8002a70:	a805883a 	mov	r2,r21
 8002a74:	003f6b06 	br	8002824 <___svfprintf_internal_r+0x1b6c>
 8002a78:	05400184 	movi	r21,6
 8002a7c:	003eea06 	br	8002628 <___svfprintf_internal_r+0x1970>
 8002a80:	d9401545 	stb	r5,85(sp)
 8002a84:	00396b06 	br	8001034 <___svfprintf_internal_r+0x37c>
 8002a88:	d9000517 	ldw	r4,20(sp)
 8002a8c:	d9801c04 	addi	r6,sp,112
 8002a90:	980b883a 	mov	r5,r19
 8002a94:	80060fc0 	call	80060fc <__ssprint_r>
 8002a98:	1039461e 	bne	r2,zero,8000fb4 <___svfprintf_internal_r+0x2fc>
 8002a9c:	d9001617 	ldw	r4,88(sp)
 8002aa0:	d8c01e17 	ldw	r3,120(sp)
 8002aa4:	d8801d17 	ldw	r2,116(sp)
 8002aa8:	b811883a 	mov	r8,r23
 8002aac:	203e9f0e 	bge	r4,zero,800252c <___svfprintf_internal_r+0x1874>
 8002ab0:	003eef06 	br	8002670 <___svfprintf_internal_r+0x19b8>
 8002ab4:	d9000517 	ldw	r4,20(sp)
 8002ab8:	d9801c04 	addi	r6,sp,112
 8002abc:	980b883a 	mov	r5,r19
 8002ac0:	80060fc0 	call	80060fc <__ssprint_r>
 8002ac4:	10393b1e 	bne	r2,zero,8000fb4 <___svfprintf_internal_r+0x2fc>
 8002ac8:	d8c01e17 	ldw	r3,120(sp)
 8002acc:	b811883a 	mov	r8,r23
 8002ad0:	003d2106 	br	8001f58 <___svfprintf_internal_r+0x12a0>
 8002ad4:	00c00044 	movi	r3,1
 8002ad8:	18abc83a 	sub	r21,r3,r2
 8002adc:	00800b44 	movi	r2,45
 8002ae0:	d8801885 	stb	r2,98(sp)
 8002ae4:	003f6c06 	br	8002898 <___svfprintf_internal_r+0x1be0>
 8002ae8:	d8801a04 	addi	r2,sp,104
 8002aec:	d8800315 	stw	r2,12(sp)
 8002af0:	d9400917 	ldw	r5,36(sp)
 8002af4:	d8801704 	addi	r2,sp,92
 8002af8:	d9000517 	ldw	r4,20(sp)
 8002afc:	5d400044 	addi	r21,r11,1
 8002b00:	d8800215 	stw	r2,8(sp)
 8002b04:	d8801604 	addi	r2,sp,88
 8002b08:	d8800115 	stw	r2,4(sp)
 8002b0c:	dd400015 	stw	r21,0(sp)
 8002b10:	01c00084 	movi	r7,2
 8002b14:	a00d883a 	mov	r6,r20
 8002b18:	dac00815 	stw	r11,32(sp)
 8002b1c:	800302c0 	call	800302c <_dtoa_r>
 8002b20:	dac00817 	ldw	r11,32(sp)
 8002b24:	db001017 	ldw	r12,64(sp)
 8002b28:	da001217 	ldw	r8,72(sp)
 8002b2c:	1023883a 	mov	r17,r2
 8002b30:	e08011d8 	cmpnei	r2,fp,71
 8002b34:	103dd326 	beq	r2,zero,8002284 <___svfprintf_internal_r+0x15cc>
 8002b38:	8d6b883a 	add	r21,r17,r21
 8002b3c:	003f2506 	br	80027d4 <___svfprintf_internal_r+0x1b1c>
 8002b40:	10008a1e 	bne	r2,zero,8002d6c <___svfprintf_internal_r+0x20b4>
 8002b44:	05000044 	movi	r20,1
 8002b48:	05400044 	movi	r21,1
 8002b4c:	003de506 	br	80022e4 <___svfprintf_internal_r+0x162c>
 8002b50:	db401543 	ldbu	r13,85(sp)
 8002b54:	0017883a 	mov	r11,zero
 8002b58:	003b5006 	br	800189c <___svfprintf_internal_r+0xbe4>
 8002b5c:	d9000517 	ldw	r4,20(sp)
 8002b60:	d9801c04 	addi	r6,sp,112
 8002b64:	980b883a 	mov	r5,r19
 8002b68:	80060fc0 	call	80060fc <__ssprint_r>
 8002b6c:	1039111e 	bne	r2,zero,8000fb4 <___svfprintf_internal_r+0x2fc>
 8002b70:	d8c01e17 	ldw	r3,120(sp)
 8002b74:	b811883a 	mov	r8,r23
 8002b78:	e03cf40e 	bge	fp,zero,8001f4c <___svfprintf_internal_r+0x1294>
 8002b7c:	003dfc06 	br	8002370 <___svfprintf_internal_r+0x16b8>
 8002b80:	02c00184 	movi	r11,6
 8002b84:	003d9c06 	br	80021f8 <___svfprintf_internal_r+0x1540>
 8002b88:	d9000517 	ldw	r4,20(sp)
 8002b8c:	d9801c04 	addi	r6,sp,112
 8002b90:	980b883a 	mov	r5,r19
 8002b94:	80060fc0 	call	80060fc <__ssprint_r>
 8002b98:	1039061e 	bne	r2,zero,8000fb4 <___svfprintf_internal_r+0x2fc>
 8002b9c:	d8801617 	ldw	r2,88(sp)
 8002ba0:	d9000817 	ldw	r4,32(sp)
 8002ba4:	d8c01e17 	ldw	r3,120(sp)
 8002ba8:	b811883a 	mov	r8,r23
 8002bac:	2085c83a 	sub	r2,r4,r2
 8002bb0:	003d0a06 	br	8001fdc <___svfprintf_internal_r+0x1324>
 8002bb4:	5829883a 	mov	r20,r11
 8002bb8:	dc800615 	stw	r18,24(sp)
 8002bbc:	582b883a 	mov	r21,r11
 8002bc0:	0039bb06 	br	80012b0 <___svfprintf_internal_r+0x5f8>
 8002bc4:	d8800817 	ldw	r2,32(sp)
 8002bc8:	d8c00b17 	ldw	r3,44(sp)
 8002bcc:	10eb883a 	add	r21,r2,r3
 8002bd0:	d8800717 	ldw	r2,28(sp)
 8002bd4:	00800316 	blt	zero,r2,8002be4 <___svfprintf_internal_r+0x1f2c>
 8002bd8:	d8800717 	ldw	r2,28(sp)
 8002bdc:	a8b9c83a 	sub	fp,r21,r2
 8002be0:	e5400044 	addi	r21,fp,1
 8002be4:	a829883a 	mov	r20,r21
 8002be8:	a8003416 	blt	r21,zero,8002cbc <___svfprintf_internal_r+0x2004>
 8002bec:	070019c4 	movi	fp,103
 8002bf0:	003dbc06 	br	80022e4 <___svfprintf_internal_r+0x162c>
 8002bf4:	d9401545 	stb	r5,85(sp)
 8002bf8:	003ae706 	br	8001798 <___svfprintf_internal_r+0xae0>
 8002bfc:	d9401545 	stb	r5,85(sp)
 8002c00:	00395f06 	br	8001180 <___svfprintf_internal_r+0x4c8>
 8002c04:	d9401545 	stb	r5,85(sp)
 8002c08:	003aad06 	br	80016c0 <___svfprintf_internal_r+0xa08>
 8002c0c:	d9401545 	stb	r5,85(sp)
 8002c10:	00394906 	br	8001138 <___svfprintf_internal_r+0x480>
 8002c14:	d9401545 	stb	r5,85(sp)
 8002c18:	003a6406 	br	80015ac <___svfprintf_internal_r+0x8f4>
 8002c1c:	d9401545 	stb	r5,85(sp)
 8002c20:	003a1806 	br	8001484 <___svfprintf_internal_r+0x7cc>
 8002c24:	d9401545 	stb	r5,85(sp)
 8002c28:	00397d06 	br	8001220 <___svfprintf_internal_r+0x568>
 8002c2c:	d9401545 	stb	r5,85(sp)
 8002c30:	003a6b06 	br	80015e0 <___svfprintf_internal_r+0x928>
 8002c34:	d9401545 	stb	r5,85(sp)
 8002c38:	003a2206 	br	80014c4 <___svfprintf_internal_r+0x80c>
 8002c3c:	d9401545 	stb	r5,85(sp)
 8002c40:	003ae706 	br	80017e0 <___svfprintf_internal_r+0xb28>
 8002c44:	8819883a 	mov	r12,r17
 8002c48:	dc400717 	ldw	r17,28(sp)
 8002c4c:	a809883a 	mov	r4,r21
 8002c50:	802b883a 	mov	r21,r16
 8002c54:	2021883a 	mov	r16,r4
 8002c58:	10800044 	addi	r2,r2,1
 8002c5c:	1d47883a 	add	r3,r3,r21
 8002c60:	43000015 	stw	r12,0(r8)
 8002c64:	45400115 	stw	r21,4(r8)
 8002c68:	d8c01e15 	stw	r3,120(sp)
 8002c6c:	d8801d15 	stw	r2,116(sp)
 8002c70:	11000208 	cmpgei	r4,r2,8
 8002c74:	203e2c26 	beq	r4,zero,8002528 <___svfprintf_internal_r+0x1870>
 8002c78:	d9000517 	ldw	r4,20(sp)
 8002c7c:	d9801c04 	addi	r6,sp,112
 8002c80:	980b883a 	mov	r5,r19
 8002c84:	80060fc0 	call	80060fc <__ssprint_r>
 8002c88:	1038ca1e 	bne	r2,zero,8000fb4 <___svfprintf_internal_r+0x2fc>
 8002c8c:	d8c01e17 	ldw	r3,120(sp)
 8002c90:	d8801d17 	ldw	r2,116(sp)
 8002c94:	b811883a 	mov	r8,r23
 8002c98:	003e2406 	br	800252c <___svfprintf_internal_r+0x1874>
 8002c9c:	00bfffc4 	movi	r2,-1
 8002ca0:	d8800415 	stw	r2,16(sp)
 8002ca4:	0038c606 	br	8000fc0 <___svfprintf_internal_r+0x308>
 8002ca8:	d8800717 	ldw	r2,28(sp)
 8002cac:	d8c00b17 	ldw	r3,44(sp)
 8002cb0:	10eb883a 	add	r21,r2,r3
 8002cb4:	a829883a 	mov	r20,r21
 8002cb8:	a83fcc0e 	bge	r21,zero,8002bec <___svfprintf_internal_r+0x1f34>
 8002cbc:	0029883a 	mov	r20,zero
 8002cc0:	003fca06 	br	8002bec <___svfprintf_internal_r+0x1f34>
 8002cc4:	d9000917 	ldw	r4,36(sp)
 8002cc8:	000d883a 	mov	r6,zero
 8002ccc:	000f883a 	mov	r7,zero
 8002cd0:	a00b883a 	mov	r5,r20
 8002cd4:	da001215 	stw	r8,72(sp)
 8002cd8:	dac01015 	stw	r11,64(sp)
 8002cdc:	db000815 	stw	r12,32(sp)
 8002ce0:	800a3080 	call	800a308 <__eqdf2>
 8002ce4:	db000817 	ldw	r12,32(sp)
 8002ce8:	dac01017 	ldw	r11,64(sp)
 8002cec:	da001217 	ldw	r8,72(sp)
 8002cf0:	103eb626 	beq	r2,zero,80027cc <___svfprintf_internal_r+0x1b14>
 8002cf4:	00800044 	movi	r2,1
 8002cf8:	12c5c83a 	sub	r2,r2,r11
 8002cfc:	d8801615 	stw	r2,88(sp)
 8002d00:	003eb306 	br	80027d0 <___svfprintf_internal_r+0x1b18>
 8002d04:	00800c04 	movi	r2,48
 8002d08:	a8c00c04 	addi	r3,r21,48
 8002d0c:	d88018c5 	stb	r2,99(sp)
 8002d10:	00800104 	movi	r2,4
 8002d14:	d8c01905 	stb	r3,100(sp)
 8002d18:	d8801115 	stw	r2,68(sp)
 8002d1c:	003f0c06 	br	8002950 <___svfprintf_internal_r+0x1c98>
 8002d20:	6080004c 	andi	r2,r12,1
 8002d24:	d8800715 	stw	r2,28(sp)
 8002d28:	103f0e1e 	bne	r2,zero,8002964 <___svfprintf_internal_r+0x1cac>
 8002d2c:	a829883a 	mov	r20,r21
 8002d30:	a83d6c0e 	bge	r21,zero,80022e4 <___svfprintf_internal_r+0x162c>
 8002d34:	0029883a 	mov	r20,zero
 8002d38:	003d6a06 	br	80022e4 <___svfprintf_internal_r+0x162c>
 8002d3c:	d8800b17 	ldw	r2,44(sp)
 8002d40:	1885883a 	add	r2,r3,r2
 8002d44:	12eb883a 	add	r21,r2,r11
 8002d48:	003ff806 	br	8002d2c <___svfprintf_internal_r+0x2074>
 8002d4c:	d8800a17 	ldw	r2,40(sp)
 8002d50:	10001016 	blt	r2,zero,8002d94 <___svfprintf_internal_r+0x20dc>
 8002d54:	db401543 	ldbu	r13,85(sp)
 8002d58:	e0801210 	cmplti	r2,fp,72
 8002d5c:	10000a1e 	bne	r2,zero,8002d88 <___svfprintf_internal_r+0x20d0>
 8002d60:	04420074 	movhi	r17,2049
 8002d64:	8c770b04 	addi	r17,r17,-9172
 8002d68:	003a4c06 	br	800169c <___svfprintf_internal_r+0x9e4>
 8002d6c:	d8800b17 	ldw	r2,44(sp)
 8002d70:	10800044 	addi	r2,r2,1
 8002d74:	12eb883a 	add	r21,r2,r11
 8002d78:	003fec06 	br	8002d2c <___svfprintf_internal_r+0x2074>
 8002d7c:	4005883a 	mov	r2,r8
 8002d80:	63371884 	addi	r12,r12,-9118
 8002d84:	003e6f06 	br	8002744 <___svfprintf_internal_r+0x1a8c>
 8002d88:	04420074 	movhi	r17,2049
 8002d8c:	8c770a04 	addi	r17,r17,-9176
 8002d90:	003a4206 	br	800169c <___svfprintf_internal_r+0x9e4>
 8002d94:	00800b44 	movi	r2,45
 8002d98:	d8801545 	stb	r2,85(sp)
 8002d9c:	03400b44 	movi	r13,45
 8002da0:	003fed06 	br	8002d58 <___svfprintf_internal_r+0x20a0>
 8002da4:	00800084 	movi	r2,2
 8002da8:	d8801115 	stw	r2,68(sp)
 8002dac:	003ee806 	br	8002950 <___svfprintf_internal_r+0x1c98>
 8002db0:	d8c00617 	ldw	r3,24(sp)
 8002db4:	1ac00017 	ldw	r11,0(r3)
 8002db8:	18c00104 	addi	r3,r3,4
 8002dbc:	5800010e 	bge	r11,zero,8002dc4 <___svfprintf_internal_r+0x210c>
 8002dc0:	02ffffc4 	movi	r11,-1
 8002dc4:	b7000043 	ldbu	fp,1(r22)
 8002dc8:	d8c00615 	stw	r3,24(sp)
 8002dcc:	102d883a 	mov	r22,r2
 8002dd0:	e2803fcc 	andi	r10,fp,255
 8002dd4:	5280201c 	xori	r10,r10,128
 8002dd8:	52bfe004 	addi	r10,r10,-128
 8002ddc:	00380206 	br	8000de8 <___svfprintf_internal_r+0x130>
 8002de0:	d8c00517 	ldw	r3,20(sp)
 8002de4:	00800304 	movi	r2,12
 8002de8:	18800015 	stw	r2,0(r3)
 8002dec:	00bfffc4 	movi	r2,-1
 8002df0:	d8800415 	stw	r2,16(sp)
 8002df4:	00387206 	br	8000fc0 <___svfprintf_internal_r+0x308>

08002df8 <quorem>:
 8002df8:	defff204 	addi	sp,sp,-56
 8002dfc:	dc000415 	stw	r16,16(sp)
 8002e00:	20800417 	ldw	r2,16(r4)
 8002e04:	2c000417 	ldw	r16,16(r5)
 8002e08:	dfc00d15 	stw	ra,52(sp)
 8002e0c:	df000c15 	stw	fp,48(sp)
 8002e10:	ddc00b15 	stw	r23,44(sp)
 8002e14:	dd800a15 	stw	r22,40(sp)
 8002e18:	dd400915 	stw	r21,36(sp)
 8002e1c:	dd000815 	stw	r20,32(sp)
 8002e20:	dcc00715 	stw	r19,28(sp)
 8002e24:	dc800615 	stw	r18,24(sp)
 8002e28:	dc400515 	stw	r17,20(sp)
 8002e2c:	14007d16 	blt	r2,r16,8003024 <quorem+0x22c>
 8002e30:	843fffc4 	addi	r16,r16,-1
 8002e34:	802c90ba 	slli	r22,r16,2
 8002e38:	2f000504 	addi	fp,r5,20
 8002e3c:	24c00504 	addi	r19,r4,20
 8002e40:	e5a5883a 	add	r18,fp,r22
 8002e44:	9d85883a 	add	r2,r19,r22
 8002e48:	95c00017 	ldw	r23,0(r18)
 8002e4c:	15000017 	ldw	r20,0(r2)
 8002e50:	d9400215 	stw	r5,8(sp)
 8002e54:	bdc00044 	addi	r23,r23,1
 8002e58:	d9000115 	stw	r4,4(sp)
 8002e5c:	b80b883a 	mov	r5,r23
 8002e60:	a009883a 	mov	r4,r20
 8002e64:	dcc00015 	stw	r19,0(sp)
 8002e68:	d8800315 	stw	r2,12(sp)
 8002e6c:	8000a0c0 	call	8000a0c <__udivsi3>
 8002e70:	1023883a 	mov	r17,r2
 8002e74:	a5c03236 	bltu	r20,r23,8002f40 <quorem+0x148>
 8002e78:	e02d883a 	mov	r22,fp
 8002e7c:	9829883a 	mov	r20,r19
 8002e80:	002b883a 	mov	r21,zero
 8002e84:	002f883a 	mov	r23,zero
 8002e88:	b5800104 	addi	r22,r22,4
 8002e8c:	b4ffff17 	ldw	r19,-4(r22)
 8002e90:	880b883a 	mov	r5,r17
 8002e94:	a5000104 	addi	r20,r20,4
 8002e98:	993fffcc 	andi	r4,r19,65535
 8002e9c:	8000acc0 	call	8000acc <__mulsi3>
 8002ea0:	9808d43a 	srli	r4,r19,16
 8002ea4:	880b883a 	mov	r5,r17
 8002ea8:	156b883a 	add	r21,r2,r21
 8002eac:	8000acc0 	call	8000acc <__mulsi3>
 8002eb0:	a0ffff17 	ldw	r3,-4(r20)
 8002eb4:	a80ad43a 	srli	r5,r21,16
 8002eb8:	a93fffcc 	andi	r4,r21,65535
 8002ebc:	b909c83a 	sub	r4,r23,r4
 8002ec0:	19bfffcc 	andi	r6,r3,65535
 8002ec4:	2189883a 	add	r4,r4,r6
 8002ec8:	1806d43a 	srli	r3,r3,16
 8002ecc:	116b883a 	add	r21,r2,r5
 8002ed0:	2005d43a 	srai	r2,r4,16
 8002ed4:	a97fffcc 	andi	r5,r21,65535
 8002ed8:	1947c83a 	sub	r3,r3,r5
 8002edc:	1887883a 	add	r3,r3,r2
 8002ee0:	1804943a 	slli	r2,r3,16
 8002ee4:	213fffcc 	andi	r4,r4,65535
 8002ee8:	a82ad43a 	srli	r21,r21,16
 8002eec:	1108b03a 	or	r4,r2,r4
 8002ef0:	a13fff15 	stw	r4,-4(r20)
 8002ef4:	182fd43a 	srai	r23,r3,16
 8002ef8:	95bfe32e 	bgeu	r18,r22,8002e88 <quorem+0x90>
 8002efc:	d8c00317 	ldw	r3,12(sp)
 8002f00:	18800017 	ldw	r2,0(r3)
 8002f04:	10000e1e 	bne	r2,zero,8002f40 <quorem+0x148>
 8002f08:	d9000017 	ldw	r4,0(sp)
 8002f0c:	18bfff04 	addi	r2,r3,-4
 8002f10:	2080092e 	bgeu	r4,r2,8002f38 <quorem+0x140>
 8002f14:	18ffff17 	ldw	r3,-4(r3)
 8002f18:	18000326 	beq	r3,zero,8002f28 <quorem+0x130>
 8002f1c:	00000606 	br	8002f38 <quorem+0x140>
 8002f20:	10c00017 	ldw	r3,0(r2)
 8002f24:	1800041e 	bne	r3,zero,8002f38 <quorem+0x140>
 8002f28:	d8c00017 	ldw	r3,0(sp)
 8002f2c:	10bfff04 	addi	r2,r2,-4
 8002f30:	843fffc4 	addi	r16,r16,-1
 8002f34:	18bffa36 	bltu	r3,r2,8002f20 <quorem+0x128>
 8002f38:	d8800117 	ldw	r2,4(sp)
 8002f3c:	14000415 	stw	r16,16(r2)
 8002f40:	d9400217 	ldw	r5,8(sp)
 8002f44:	d9000117 	ldw	r4,4(sp)
 8002f48:	80059f00 	call	80059f0 <__mcmp>
 8002f4c:	10002816 	blt	r2,zero,8002ff0 <quorem+0x1f8>
 8002f50:	d9800017 	ldw	r6,0(sp)
 8002f54:	8c400044 	addi	r17,r17,1
 8002f58:	0007883a 	mov	r3,zero
 8002f5c:	e7000104 	addi	fp,fp,4
 8002f60:	e13fff17 	ldw	r4,-4(fp)
 8002f64:	31400017 	ldw	r5,0(r6)
 8002f68:	31800104 	addi	r6,r6,4
 8002f6c:	20bfffcc 	andi	r2,r4,65535
 8002f70:	1887c83a 	sub	r3,r3,r2
 8002f74:	28bfffcc 	andi	r2,r5,65535
 8002f78:	1885883a 	add	r2,r3,r2
 8002f7c:	2008d43a 	srli	r4,r4,16
 8002f80:	2806d43a 	srli	r3,r5,16
 8002f84:	100fd43a 	srai	r7,r2,16
 8002f88:	117fffcc 	andi	r5,r2,65535
 8002f8c:	1907c83a 	sub	r3,r3,r4
 8002f90:	19c7883a 	add	r3,r3,r7
 8002f94:	1804943a 	slli	r2,r3,16
 8002f98:	1807d43a 	srai	r3,r3,16
 8002f9c:	1144b03a 	or	r2,r2,r5
 8002fa0:	30bfff15 	stw	r2,-4(r6)
 8002fa4:	973fed2e 	bgeu	r18,fp,8002f5c <quorem+0x164>
 8002fa8:	800690ba 	slli	r3,r16,2
 8002fac:	d9000017 	ldw	r4,0(sp)
 8002fb0:	20c7883a 	add	r3,r4,r3
 8002fb4:	18800017 	ldw	r2,0(r3)
 8002fb8:	10000d1e 	bne	r2,zero,8002ff0 <quorem+0x1f8>
 8002fbc:	18bfff04 	addi	r2,r3,-4
 8002fc0:	2080092e 	bgeu	r4,r2,8002fe8 <quorem+0x1f0>
 8002fc4:	18ffff17 	ldw	r3,-4(r3)
 8002fc8:	18000326 	beq	r3,zero,8002fd8 <quorem+0x1e0>
 8002fcc:	00000606 	br	8002fe8 <quorem+0x1f0>
 8002fd0:	10c00017 	ldw	r3,0(r2)
 8002fd4:	1800041e 	bne	r3,zero,8002fe8 <quorem+0x1f0>
 8002fd8:	d8c00017 	ldw	r3,0(sp)
 8002fdc:	10bfff04 	addi	r2,r2,-4
 8002fe0:	843fffc4 	addi	r16,r16,-1
 8002fe4:	18bffa36 	bltu	r3,r2,8002fd0 <quorem+0x1d8>
 8002fe8:	d8800117 	ldw	r2,4(sp)
 8002fec:	14000415 	stw	r16,16(r2)
 8002ff0:	8805883a 	mov	r2,r17
 8002ff4:	dfc00d17 	ldw	ra,52(sp)
 8002ff8:	df000c17 	ldw	fp,48(sp)
 8002ffc:	ddc00b17 	ldw	r23,44(sp)
 8003000:	dd800a17 	ldw	r22,40(sp)
 8003004:	dd400917 	ldw	r21,36(sp)
 8003008:	dd000817 	ldw	r20,32(sp)
 800300c:	dcc00717 	ldw	r19,28(sp)
 8003010:	dc800617 	ldw	r18,24(sp)
 8003014:	dc400517 	ldw	r17,20(sp)
 8003018:	dc000417 	ldw	r16,16(sp)
 800301c:	dec00e04 	addi	sp,sp,56
 8003020:	f800283a 	ret
 8003024:	0005883a 	mov	r2,zero
 8003028:	003ff206 	br	8002ff4 <quorem+0x1fc>

0800302c <_dtoa_r>:
 800302c:	20801017 	ldw	r2,64(r4)
 8003030:	deffe204 	addi	sp,sp,-120
 8003034:	df001c15 	stw	fp,112(sp)
 8003038:	dcc01715 	stw	r19,92(sp)
 800303c:	dc401515 	stw	r17,84(sp)
 8003040:	dc001415 	stw	r16,80(sp)
 8003044:	dfc01d15 	stw	ra,116(sp)
 8003048:	ddc01b15 	stw	r23,108(sp)
 800304c:	dd801a15 	stw	r22,104(sp)
 8003050:	dd401915 	stw	r21,100(sp)
 8003054:	dd001815 	stw	r20,96(sp)
 8003058:	dc801615 	stw	r18,88(sp)
 800305c:	d9400115 	stw	r5,4(sp)
 8003060:	d9c00215 	stw	r7,8(sp)
 8003064:	2039883a 	mov	fp,r4
 8003068:	3027883a 	mov	r19,r6
 800306c:	dc002017 	ldw	r16,128(sp)
 8003070:	3023883a 	mov	r17,r6
 8003074:	10000826 	beq	r2,zero,8003098 <_dtoa_r+0x6c>
 8003078:	21801117 	ldw	r6,68(r4)
 800307c:	00c00044 	movi	r3,1
 8003080:	100b883a 	mov	r5,r2
 8003084:	1986983a 	sll	r3,r3,r6
 8003088:	11800115 	stw	r6,4(r2)
 800308c:	10c00215 	stw	r3,8(r2)
 8003090:	80051940 	call	8005194 <_Bfree>
 8003094:	e0001015 	stw	zero,64(fp)
 8003098:	98018116 	blt	r19,zero,80036a0 <_dtoa_r+0x674>
 800309c:	80000015 	stw	zero,0(r16)
 80030a0:	989ffc2c 	andhi	r2,r19,32752
 80030a4:	00dffc34 	movhi	r3,32752
 80030a8:	10c18626 	beq	r2,r3,80036c4 <_dtoa_r+0x698>
 80030ac:	d9000117 	ldw	r4,4(sp)
 80030b0:	000d883a 	mov	r6,zero
 80030b4:	000f883a 	mov	r7,zero
 80030b8:	880b883a 	mov	r5,r17
 80030bc:	800a3080 	call	800a308 <__eqdf2>
 80030c0:	1000191e 	bne	r2,zero,8003128 <_dtoa_r+0xfc>
 80030c4:	d8c01f17 	ldw	r3,124(sp)
 80030c8:	00800044 	movi	r2,1
 80030cc:	18800015 	stw	r2,0(r3)
 80030d0:	d8802117 	ldw	r2,132(sp)
 80030d4:	10032426 	beq	r2,zero,8003d68 <_dtoa_r+0xd3c>
 80030d8:	d9002117 	ldw	r4,132(sp)
 80030dc:	00820074 	movhi	r2,2049
 80030e0:	10b71844 	addi	r2,r2,-9119
 80030e4:	00c20074 	movhi	r3,2049
 80030e8:	20800015 	stw	r2,0(r4)
 80030ec:	18b71804 	addi	r2,r3,-9120
 80030f0:	d8800315 	stw	r2,12(sp)
 80030f4:	d8800317 	ldw	r2,12(sp)
 80030f8:	dfc01d17 	ldw	ra,116(sp)
 80030fc:	df001c17 	ldw	fp,112(sp)
 8003100:	ddc01b17 	ldw	r23,108(sp)
 8003104:	dd801a17 	ldw	r22,104(sp)
 8003108:	dd401917 	ldw	r21,100(sp)
 800310c:	dd001817 	ldw	r20,96(sp)
 8003110:	dcc01717 	ldw	r19,92(sp)
 8003114:	dc801617 	ldw	r18,88(sp)
 8003118:	dc401517 	ldw	r17,84(sp)
 800311c:	dc001417 	ldw	r16,80(sp)
 8003120:	dec01e04 	addi	sp,sp,120
 8003124:	f800283a 	ret
 8003128:	dc800117 	ldw	r18,4(sp)
 800312c:	d8801204 	addi	r2,sp,72
 8003130:	9820d53a 	srli	r16,r19,20
 8003134:	d8800015 	stw	r2,0(sp)
 8003138:	d9c01304 	addi	r7,sp,76
 800313c:	900b883a 	mov	r5,r18
 8003140:	880d883a 	mov	r6,r17
 8003144:	e009883a 	mov	r4,fp
 8003148:	8005d640 	call	8005d64 <__d2b>
 800314c:	102b883a 	mov	r21,r2
 8003150:	8001701e 	bne	r16,zero,8003714 <_dtoa_r+0x6e8>
 8003154:	dc801217 	ldw	r18,72(sp)
 8003158:	dc001317 	ldw	r16,76(sp)
 800315c:	9421883a 	add	r16,r18,r16
 8003160:	80810c84 	addi	r2,r16,1074
 8003164:	10c00850 	cmplti	r3,r2,33
 8003168:	18030f1e 	bne	r3,zero,8003da8 <_dtoa_r+0xd7c>
 800316c:	01001004 	movi	r4,64
 8003170:	2085c83a 	sub	r2,r4,r2
 8003174:	98a6983a 	sll	r19,r19,r2
 8003178:	d8800117 	ldw	r2,4(sp)
 800317c:	81010484 	addi	r4,r16,1042
 8003180:	1108d83a 	srl	r4,r2,r4
 8003184:	9908b03a 	or	r4,r19,r4
 8003188:	800b8500 	call	800b850 <__floatunsidf>
 800318c:	1009883a 	mov	r4,r2
 8003190:	017f8434 	movhi	r5,65040
 8003194:	00800044 	movi	r2,1
 8003198:	194b883a 	add	r5,r3,r5
 800319c:	843fffc4 	addi	r16,r16,-1
 80031a0:	d8800a15 	stw	r2,40(sp)
 80031a4:	000d883a 	mov	r6,zero
 80031a8:	01cffe34 	movhi	r7,16376
 80031ac:	800ad480 	call	800ad48 <__subdf3>
 80031b0:	0198dbf4 	movhi	r6,25455
 80031b4:	01cff4f4 	movhi	r7,16339
 80031b8:	3190d844 	addi	r6,r6,17249
 80031bc:	39e1e9c4 	addi	r7,r7,-30809
 80031c0:	1009883a 	mov	r4,r2
 80031c4:	180b883a 	mov	r5,r3
 80031c8:	800a5680 	call	800a568 <__muldf3>
 80031cc:	01a2d874 	movhi	r6,35681
 80031d0:	01cff1f4 	movhi	r7,16327
 80031d4:	31b22cc4 	addi	r6,r6,-14157
 80031d8:	39e28a04 	addi	r7,r7,-30168
 80031dc:	180b883a 	mov	r5,r3
 80031e0:	1009883a 	mov	r4,r2
 80031e4:	80090040 	call	8009004 <__adddf3>
 80031e8:	8009883a 	mov	r4,r16
 80031ec:	1029883a 	mov	r20,r2
 80031f0:	1827883a 	mov	r19,r3
 80031f4:	800b7880 	call	800b788 <__floatsidf>
 80031f8:	019427f4 	movhi	r6,20639
 80031fc:	01cff4f4 	movhi	r7,16339
 8003200:	319e7ec4 	addi	r6,r6,31227
 8003204:	39d104c4 	addi	r7,r7,17427
 8003208:	1009883a 	mov	r4,r2
 800320c:	180b883a 	mov	r5,r3
 8003210:	800a5680 	call	800a568 <__muldf3>
 8003214:	100d883a 	mov	r6,r2
 8003218:	180f883a 	mov	r7,r3
 800321c:	a009883a 	mov	r4,r20
 8003220:	980b883a 	mov	r5,r19
 8003224:	80090040 	call	8009004 <__adddf3>
 8003228:	1009883a 	mov	r4,r2
 800322c:	180b883a 	mov	r5,r3
 8003230:	1029883a 	mov	r20,r2
 8003234:	1827883a 	mov	r19,r3
 8003238:	800b7080 	call	800b708 <__fixdfsi>
 800323c:	000d883a 	mov	r6,zero
 8003240:	000f883a 	mov	r7,zero
 8003244:	a009883a 	mov	r4,r20
 8003248:	980b883a 	mov	r5,r19
 800324c:	102d883a 	mov	r22,r2
 8003250:	800a4780 	call	800a478 <__ledf2>
 8003254:	1002ba16 	blt	r2,zero,8003d40 <_dtoa_r+0xd14>
 8003258:	9421c83a 	sub	r16,r18,r16
 800325c:	b08005e8 	cmpgeui	r2,r22,23
 8003260:	853fffc4 	addi	r20,r16,-1
 8003264:	1002ae1e 	bne	r2,zero,8003d20 <_dtoa_r+0xcf4>
 8003268:	b00690fa 	slli	r3,r22,3
 800326c:	00820074 	movhi	r2,2049
 8003270:	10b73c04 	addi	r2,r2,-8976
 8003274:	10c5883a 	add	r2,r2,r3
 8003278:	11800017 	ldw	r6,0(r2)
 800327c:	11c00117 	ldw	r7,4(r2)
 8003280:	d9000117 	ldw	r4,4(sp)
 8003284:	880b883a 	mov	r5,r17
 8003288:	800a4780 	call	800a478 <__ledf2>
 800328c:	10026f0e 	bge	r2,zero,8003c4c <_dtoa_r+0xc20>
 8003290:	d8000915 	stw	zero,36(sp)
 8003294:	b5bfffc4 	addi	r22,r22,-1
 8003298:	a002a416 	blt	r20,zero,8003d2c <_dtoa_r+0xd00>
 800329c:	d8000515 	stw	zero,20(sp)
 80032a0:	b0026d0e 	bge	r22,zero,8003c58 <_dtoa_r+0xc2c>
 80032a4:	d8800517 	ldw	r2,20(sp)
 80032a8:	d8c00217 	ldw	r3,8(sp)
 80032ac:	dd800415 	stw	r22,16(sp)
 80032b0:	1585c83a 	sub	r2,r2,r22
 80032b4:	d8800515 	stw	r2,20(sp)
 80032b8:	0585c83a 	sub	r2,zero,r22
 80032bc:	d8800815 	stw	r2,32(sp)
 80032c0:	188002a8 	cmpgeui	r2,r3,10
 80032c4:	002d883a 	mov	r22,zero
 80032c8:	1002691e 	bne	r2,zero,8003c70 <_dtoa_r+0xc44>
 80032cc:	18800190 	cmplti	r2,r3,6
 80032d0:	1002ba1e 	bne	r2,zero,8003dbc <_dtoa_r+0xd90>
 80032d4:	18bfff04 	addi	r2,r3,-4
 80032d8:	d8800215 	stw	r2,8(sp)
 80032dc:	0021883a 	mov	r16,zero
 80032e0:	d8c00217 	ldw	r3,8(sp)
 80032e4:	188000e0 	cmpeqi	r2,r3,3
 80032e8:	10039d1e 	bne	r2,zero,8004160 <_dtoa_r+0x1134>
 80032ec:	18800108 	cmpgei	r2,r3,4
 80032f0:	10027a26 	beq	r2,zero,8003cdc <_dtoa_r+0xcb0>
 80032f4:	d8c00217 	ldw	r3,8(sp)
 80032f8:	18800120 	cmpeqi	r2,r3,4
 80032fc:	10026926 	beq	r2,zero,8003ca4 <_dtoa_r+0xc78>
 8003300:	00800044 	movi	r2,1
 8003304:	d8800715 	stw	r2,28(sp)
 8003308:	d8801e17 	ldw	r2,120(sp)
 800330c:	0083670e 	bge	zero,r2,80040ac <_dtoa_r+0x1080>
 8003310:	d8800b15 	stw	r2,44(sp)
 8003314:	d8800615 	stw	r2,24(sp)
 8003318:	100d883a 	mov	r6,r2
 800331c:	e0001115 	stw	zero,68(fp)
 8003320:	30800610 	cmplti	r2,r6,24
 8003324:	dc800617 	ldw	r18,24(sp)
 8003328:	1004eb1e 	bne	r2,zero,80046d8 <_dtoa_r+0x16ac>
 800332c:	00c00044 	movi	r3,1
 8003330:	00800104 	movi	r2,4
 8003334:	1085883a 	add	r2,r2,r2
 8003338:	11000504 	addi	r4,r2,20
 800333c:	180b883a 	mov	r5,r3
 8003340:	18c00044 	addi	r3,r3,1
 8003344:	313ffb2e 	bgeu	r6,r4,8003334 <_dtoa_r+0x308>
 8003348:	e1401115 	stw	r5,68(fp)
 800334c:	e009883a 	mov	r4,fp
 8003350:	80050f00 	call	80050f0 <_Balloc>
 8003354:	d8800315 	stw	r2,12(sp)
 8003358:	e0801015 	stw	r2,64(fp)
 800335c:	948003e8 	cmpgeui	r18,r18,15
 8003360:	9000fe1e 	bne	r18,zero,800375c <_dtoa_r+0x730>
 8003364:	8000fd26 	beq	r16,zero,800375c <_dtoa_r+0x730>
 8003368:	d9000417 	ldw	r4,16(sp)
 800336c:	0103c60e 	bge	zero,r4,8004288 <_dtoa_r+0x125c>
 8003370:	208003cc 	andi	r2,r4,15
 8003374:	100690fa 	slli	r3,r2,3
 8003378:	202fd13a 	srai	r23,r4,4
 800337c:	00820074 	movhi	r2,2049
 8003380:	10b73c04 	addi	r2,r2,-8976
 8003384:	10c5883a 	add	r2,r2,r3
 8003388:	b8c0040c 	andi	r3,r23,16
 800338c:	12800017 	ldw	r10,0(r2)
 8003390:	12400117 	ldw	r9,4(r2)
 8003394:	1803621e 	bne	r3,zero,8004120 <_dtoa_r+0x10f4>
 8003398:	d8800117 	ldw	r2,4(sp)
 800339c:	8827883a 	mov	r19,r17
 80033a0:	04000084 	movi	r16,2
 80033a4:	d8800c15 	stw	r2,48(sp)
 80033a8:	04820074 	movhi	r18,2049
 80033ac:	94b73204 	addi	r18,r18,-9016
 80033b0:	b8000f26 	beq	r23,zero,80033f0 <_dtoa_r+0x3c4>
 80033b4:	5005883a 	mov	r2,r10
 80033b8:	4807883a 	mov	r3,r9
 80033bc:	b980004c 	andi	r6,r23,1
 80033c0:	1009883a 	mov	r4,r2
 80033c4:	b82fd07a 	srai	r23,r23,1
 80033c8:	180b883a 	mov	r5,r3
 80033cc:	30000426 	beq	r6,zero,80033e0 <_dtoa_r+0x3b4>
 80033d0:	91800017 	ldw	r6,0(r18)
 80033d4:	91c00117 	ldw	r7,4(r18)
 80033d8:	84000044 	addi	r16,r16,1
 80033dc:	800a5680 	call	800a568 <__muldf3>
 80033e0:	94800204 	addi	r18,r18,8
 80033e4:	b83ff51e 	bne	r23,zero,80033bc <_dtoa_r+0x390>
 80033e8:	1015883a 	mov	r10,r2
 80033ec:	1813883a 	mov	r9,r3
 80033f0:	d9000c17 	ldw	r4,48(sp)
 80033f4:	980b883a 	mov	r5,r19
 80033f8:	500d883a 	mov	r6,r10
 80033fc:	480f883a 	mov	r7,r9
 8003400:	80099a40 	call	80099a4 <__divdf3>
 8003404:	1025883a 	mov	r18,r2
 8003408:	1827883a 	mov	r19,r3
 800340c:	d8800917 	ldw	r2,36(sp)
 8003410:	10000626 	beq	r2,zero,800342c <_dtoa_r+0x400>
 8003414:	000d883a 	mov	r6,zero
 8003418:	01cffc34 	movhi	r7,16368
 800341c:	9009883a 	mov	r4,r18
 8003420:	980b883a 	mov	r5,r19
 8003424:	800a4780 	call	800a478 <__ledf2>
 8003428:	10042616 	blt	r2,zero,80044c4 <_dtoa_r+0x1498>
 800342c:	8009883a 	mov	r4,r16
 8003430:	800b7880 	call	800b788 <__floatsidf>
 8003434:	900d883a 	mov	r6,r18
 8003438:	980f883a 	mov	r7,r19
 800343c:	1009883a 	mov	r4,r2
 8003440:	180b883a 	mov	r5,r3
 8003444:	800a5680 	call	800a568 <__muldf3>
 8003448:	000d883a 	mov	r6,zero
 800344c:	01d00734 	movhi	r7,16412
 8003450:	1009883a 	mov	r4,r2
 8003454:	180b883a 	mov	r5,r3
 8003458:	80090040 	call	8009004 <__adddf3>
 800345c:	d8800c15 	stw	r2,48(sp)
 8003460:	00bf3034 	movhi	r2,64704
 8003464:	1885883a 	add	r2,r3,r2
 8003468:	d8800d15 	stw	r2,52(sp)
 800346c:	d8800617 	ldw	r2,24(sp)
 8003470:	10036d26 	beq	r2,zero,8004228 <_dtoa_r+0x11fc>
 8003474:	d8800417 	ldw	r2,16(sp)
 8003478:	d8800f15 	stw	r2,60(sp)
 800347c:	d8800617 	ldw	r2,24(sp)
 8003480:	d8800e15 	stw	r2,56(sp)
 8003484:	980b883a 	mov	r5,r19
 8003488:	9009883a 	mov	r4,r18
 800348c:	800b7080 	call	800b708 <__fixdfsi>
 8003490:	1009883a 	mov	r4,r2
 8003494:	102f883a 	mov	r23,r2
 8003498:	800b7880 	call	800b788 <__floatsidf>
 800349c:	100d883a 	mov	r6,r2
 80034a0:	180f883a 	mov	r7,r3
 80034a4:	9009883a 	mov	r4,r18
 80034a8:	980b883a 	mov	r5,r19
 80034ac:	800ad480 	call	800ad48 <__subdf3>
 80034b0:	1025883a 	mov	r18,r2
 80034b4:	d8800e17 	ldw	r2,56(sp)
 80034b8:	1821883a 	mov	r16,r3
 80034bc:	ba400c04 	addi	r9,r23,48
 80034c0:	10bfffc4 	addi	r2,r2,-1
 80034c4:	100690fa 	slli	r3,r2,3
 80034c8:	00820074 	movhi	r2,2049
 80034cc:	10b73c04 	addi	r2,r2,-8976
 80034d0:	10c5883a 	add	r2,r2,r3
 80034d4:	11800017 	ldw	r6,0(r2)
 80034d8:	d8c00317 	ldw	r3,12(sp)
 80034dc:	11c00117 	ldw	r7,4(r2)
 80034e0:	d8800717 	ldw	r2,28(sp)
 80034e4:	4811883a 	mov	r8,r9
 80034e8:	da001015 	stw	r8,64(sp)
 80034ec:	1dc00044 	addi	r23,r3,1
 80034f0:	1003a226 	beq	r2,zero,800437c <_dtoa_r+0x1350>
 80034f4:	0009883a 	mov	r4,zero
 80034f8:	014ff834 	movhi	r5,16352
 80034fc:	da401115 	stw	r9,68(sp)
 8003500:	80099a40 	call	80099a4 <__divdf3>
 8003504:	d9800c17 	ldw	r6,48(sp)
 8003508:	d9c00d17 	ldw	r7,52(sp)
 800350c:	1009883a 	mov	r4,r2
 8003510:	180b883a 	mov	r5,r3
 8003514:	800ad480 	call	800ad48 <__subdf3>
 8003518:	1827883a 	mov	r19,r3
 800351c:	da401117 	ldw	r9,68(sp)
 8003520:	d8c00317 	ldw	r3,12(sp)
 8003524:	900d883a 	mov	r6,r18
 8003528:	800f883a 	mov	r7,r16
 800352c:	1a400005 	stb	r9,0(r3)
 8003530:	1009883a 	mov	r4,r2
 8003534:	980b883a 	mov	r5,r19
 8003538:	d8800c15 	stw	r2,48(sp)
 800353c:	800a3880 	call	800a388 <__gedf2>
 8003540:	da001017 	ldw	r8,64(sp)
 8003544:	00804816 	blt	zero,r2,8003668 <_dtoa_r+0x63c>
 8003548:	900d883a 	mov	r6,r18
 800354c:	800f883a 	mov	r7,r16
 8003550:	0009883a 	mov	r4,zero
 8003554:	014ffc34 	movhi	r5,16368
 8003558:	da000d15 	stw	r8,52(sp)
 800355c:	800ad480 	call	800ad48 <__subdf3>
 8003560:	d9000c17 	ldw	r4,48(sp)
 8003564:	100d883a 	mov	r6,r2
 8003568:	180f883a 	mov	r7,r3
 800356c:	980b883a 	mov	r5,r19
 8003570:	800a3880 	call	800a388 <__gedf2>
 8003574:	da000d17 	ldw	r8,52(sp)
 8003578:	00844e16 	blt	zero,r2,80046b4 <_dtoa_r+0x1688>
 800357c:	d8c00e17 	ldw	r3,56(sp)
 8003580:	18800060 	cmpeqi	r2,r3,1
 8003584:	1000751e 	bne	r2,zero,800375c <_dtoa_r+0x730>
 8003588:	d8800317 	ldw	r2,12(sp)
 800358c:	dd800d15 	stw	r22,52(sp)
 8003590:	dd000e15 	stw	r20,56(sp)
 8003594:	10c5883a 	add	r2,r2,r3
 8003598:	dd000c17 	ldw	r20,48(sp)
 800359c:	102d883a 	mov	r22,r2
 80035a0:	dc400c15 	stw	r17,48(sp)
 80035a4:	00000806 	br	80035c8 <_dtoa_r+0x59c>
 80035a8:	800ad480 	call	800ad48 <__subdf3>
 80035ac:	a00d883a 	mov	r6,r20
 80035b0:	980f883a 	mov	r7,r19
 80035b4:	1009883a 	mov	r4,r2
 80035b8:	180b883a 	mov	r5,r3
 80035bc:	800a4780 	call	800a478 <__ledf2>
 80035c0:	10042316 	blt	r2,zero,8004650 <_dtoa_r+0x1624>
 80035c4:	bd806226 	beq	r23,r22,8003750 <_dtoa_r+0x724>
 80035c8:	a009883a 	mov	r4,r20
 80035cc:	980b883a 	mov	r5,r19
 80035d0:	000d883a 	mov	r6,zero
 80035d4:	01d00934 	movhi	r7,16420
 80035d8:	800a5680 	call	800a568 <__muldf3>
 80035dc:	000d883a 	mov	r6,zero
 80035e0:	01d00934 	movhi	r7,16420
 80035e4:	9009883a 	mov	r4,r18
 80035e8:	800b883a 	mov	r5,r16
 80035ec:	1029883a 	mov	r20,r2
 80035f0:	1827883a 	mov	r19,r3
 80035f4:	800a5680 	call	800a568 <__muldf3>
 80035f8:	180b883a 	mov	r5,r3
 80035fc:	1009883a 	mov	r4,r2
 8003600:	1821883a 	mov	r16,r3
 8003604:	1025883a 	mov	r18,r2
 8003608:	800b7080 	call	800b708 <__fixdfsi>
 800360c:	1009883a 	mov	r4,r2
 8003610:	1023883a 	mov	r17,r2
 8003614:	800b7880 	call	800b788 <__floatsidf>
 8003618:	9009883a 	mov	r4,r18
 800361c:	800b883a 	mov	r5,r16
 8003620:	100d883a 	mov	r6,r2
 8003624:	180f883a 	mov	r7,r3
 8003628:	800ad480 	call	800ad48 <__subdf3>
 800362c:	bdc00044 	addi	r23,r23,1
 8003630:	8c400c04 	addi	r17,r17,48
 8003634:	a00d883a 	mov	r6,r20
 8003638:	980f883a 	mov	r7,r19
 800363c:	1009883a 	mov	r4,r2
 8003640:	180b883a 	mov	r5,r3
 8003644:	bc7fffc5 	stb	r17,-1(r23)
 8003648:	1025883a 	mov	r18,r2
 800364c:	1821883a 	mov	r16,r3
 8003650:	800a4780 	call	800a478 <__ledf2>
 8003654:	900d883a 	mov	r6,r18
 8003658:	800f883a 	mov	r7,r16
 800365c:	0009883a 	mov	r4,zero
 8003660:	014ffc34 	movhi	r5,16368
 8003664:	103fd00e 	bge	r2,zero,80035a8 <_dtoa_r+0x57c>
 8003668:	d8800f17 	ldw	r2,60(sp)
 800366c:	10800044 	addi	r2,r2,1
 8003670:	d8800415 	stw	r2,16(sp)
 8003674:	a80b883a 	mov	r5,r21
 8003678:	e009883a 	mov	r4,fp
 800367c:	80051940 	call	8005194 <_Bfree>
 8003680:	d8801f17 	ldw	r2,124(sp)
 8003684:	d8c00417 	ldw	r3,16(sp)
 8003688:	b8000005 	stb	zero,0(r23)
 800368c:	10c00015 	stw	r3,0(r2)
 8003690:	d8802117 	ldw	r2,132(sp)
 8003694:	103e9726 	beq	r2,zero,80030f4 <_dtoa_r+0xc8>
 8003698:	15c00015 	stw	r23,0(r2)
 800369c:	003e9506 	br	80030f4 <_dtoa_r+0xc8>
 80036a0:	04600034 	movhi	r17,32768
 80036a4:	8c7fffc4 	addi	r17,r17,-1
 80036a8:	9c62703a 	and	r17,r19,r17
 80036ac:	00800044 	movi	r2,1
 80036b0:	8827883a 	mov	r19,r17
 80036b4:	80800015 	stw	r2,0(r16)
 80036b8:	00dffc34 	movhi	r3,32752
 80036bc:	989ffc2c 	andhi	r2,r19,32752
 80036c0:	10fe7a1e 	bne	r2,r3,80030ac <_dtoa_r+0x80>
 80036c4:	00800434 	movhi	r2,16
 80036c8:	d8c01f17 	ldw	r3,124(sp)
 80036cc:	10bfffc4 	addi	r2,r2,-1
 80036d0:	98a6703a 	and	r19,r19,r2
 80036d4:	0089c3c4 	movi	r2,9999
 80036d8:	18800015 	stw	r2,0(r3)
 80036dc:	d8800117 	ldw	r2,4(sp)
 80036e0:	98aab03a 	or	r21,r19,r2
 80036e4:	a800141e 	bne	r21,zero,8003738 <_dtoa_r+0x70c>
 80036e8:	d8802117 	ldw	r2,132(sp)
 80036ec:	1003f626 	beq	r2,zero,80046c8 <_dtoa_r+0x169c>
 80036f0:	00820074 	movhi	r2,2049
 80036f4:	1007883a 	mov	r3,r2
 80036f8:	18f72204 	addi	r3,r3,-9080
 80036fc:	00820074 	movhi	r2,2049
 8003700:	d8c00315 	stw	r3,12(sp)
 8003704:	10b72404 	addi	r2,r2,-9072
 8003708:	d8c02117 	ldw	r3,132(sp)
 800370c:	18800015 	stw	r2,0(r3)
 8003710:	003e7806 	br	80030f4 <_dtoa_r+0xc8>
 8003714:	01400434 	movhi	r5,16
 8003718:	297fffc4 	addi	r5,r5,-1
 800371c:	894a703a 	and	r5,r17,r5
 8003720:	9009883a 	mov	r4,r18
 8003724:	294ffc34 	orhi	r5,r5,16368
 8003728:	843f0044 	addi	r16,r16,-1023
 800372c:	dc801217 	ldw	r18,72(sp)
 8003730:	d8000a15 	stw	zero,40(sp)
 8003734:	003e9b06 	br	80031a4 <_dtoa_r+0x178>
 8003738:	d8802117 	ldw	r2,132(sp)
 800373c:	1002461e 	bne	r2,zero,8004058 <_dtoa_r+0x102c>
 8003740:	00820074 	movhi	r2,2049
 8003744:	10b72104 	addi	r2,r2,-9084
 8003748:	d8800315 	stw	r2,12(sp)
 800374c:	003e6906 	br	80030f4 <_dtoa_r+0xc8>
 8003750:	dd800d17 	ldw	r22,52(sp)
 8003754:	dd000e17 	ldw	r20,56(sp)
 8003758:	dc400c17 	ldw	r17,48(sp)
 800375c:	d8801317 	ldw	r2,76(sp)
 8003760:	10009f16 	blt	r2,zero,80039e0 <_dtoa_r+0x9b4>
 8003764:	d9000417 	ldw	r4,16(sp)
 8003768:	20c003c8 	cmpgei	r3,r4,15
 800376c:	18009c1e 	bne	r3,zero,80039e0 <_dtoa_r+0x9b4>
 8003770:	200690fa 	slli	r3,r4,3
 8003774:	00820074 	movhi	r2,2049
 8003778:	10b73c04 	addi	r2,r2,-8976
 800377c:	10c5883a 	add	r2,r2,r3
 8003780:	14000017 	ldw	r16,0(r2)
 8003784:	14800117 	ldw	r18,4(r2)
 8003788:	d8801e17 	ldw	r2,120(sp)
 800378c:	1000140e 	bge	r2,zero,80037e0 <_dtoa_r+0x7b4>
 8003790:	d8800617 	ldw	r2,24(sp)
 8003794:	00801216 	blt	zero,r2,80037e0 <_dtoa_r+0x7b4>
 8003798:	1002b81e 	bne	r2,zero,800427c <_dtoa_r+0x1250>
 800379c:	8009883a 	mov	r4,r16
 80037a0:	900b883a 	mov	r5,r18
 80037a4:	000d883a 	mov	r6,zero
 80037a8:	01d00534 	movhi	r7,16404
 80037ac:	800a5680 	call	800a568 <__muldf3>
 80037b0:	d9800117 	ldw	r6,4(sp)
 80037b4:	880f883a 	mov	r7,r17
 80037b8:	1009883a 	mov	r4,r2
 80037bc:	180b883a 	mov	r5,r3
 80037c0:	800a3880 	call	800a388 <__gedf2>
 80037c4:	0025883a 	mov	r18,zero
 80037c8:	0021883a 	mov	r16,zero
 80037cc:	1001fd16 	blt	r2,zero,8003fc4 <_dtoa_r+0xf98>
 80037d0:	d8801e17 	ldw	r2,120(sp)
 80037d4:	ddc00317 	ldw	r23,12(sp)
 80037d8:	00a2303a 	nor	r17,zero,r2
 80037dc:	0001ff06 	br	8003fdc <_dtoa_r+0xfb0>
 80037e0:	dcc00117 	ldw	r19,4(sp)
 80037e4:	800d883a 	mov	r6,r16
 80037e8:	900f883a 	mov	r7,r18
 80037ec:	880b883a 	mov	r5,r17
 80037f0:	9809883a 	mov	r4,r19
 80037f4:	80099a40 	call	80099a4 <__divdf3>
 80037f8:	180b883a 	mov	r5,r3
 80037fc:	1009883a 	mov	r4,r2
 8003800:	800b7080 	call	800b708 <__fixdfsi>
 8003804:	1009883a 	mov	r4,r2
 8003808:	102d883a 	mov	r22,r2
 800380c:	800b7880 	call	800b788 <__floatsidf>
 8003810:	800d883a 	mov	r6,r16
 8003814:	900f883a 	mov	r7,r18
 8003818:	1009883a 	mov	r4,r2
 800381c:	180b883a 	mov	r5,r3
 8003820:	800a5680 	call	800a568 <__muldf3>
 8003824:	880b883a 	mov	r5,r17
 8003828:	100d883a 	mov	r6,r2
 800382c:	180f883a 	mov	r7,r3
 8003830:	9809883a 	mov	r4,r19
 8003834:	800ad480 	call	800ad48 <__subdf3>
 8003838:	dc400317 	ldw	r17,12(sp)
 800383c:	1009883a 	mov	r4,r2
 8003840:	d9c00417 	ldw	r7,16(sp)
 8003844:	b0800c04 	addi	r2,r22,48
 8003848:	88800005 	stb	r2,0(r17)
 800384c:	d8800617 	ldw	r2,24(sp)
 8003850:	39c00044 	addi	r7,r7,1
 8003854:	d9c00415 	stw	r7,16(sp)
 8003858:	11800060 	cmpeqi	r6,r2,1
 800385c:	180b883a 	mov	r5,r3
 8003860:	2005883a 	mov	r2,r4
 8003864:	8dc00044 	addi	r23,r17,1
 8003868:	3000391e 	bne	r6,zero,8003950 <_dtoa_r+0x924>
 800386c:	01d00934 	movhi	r7,16420
 8003870:	800a5680 	call	800a568 <__muldf3>
 8003874:	000d883a 	mov	r6,zero
 8003878:	000f883a 	mov	r7,zero
 800387c:	1009883a 	mov	r4,r2
 8003880:	180b883a 	mov	r5,r3
 8003884:	1027883a 	mov	r19,r2
 8003888:	1829883a 	mov	r20,r3
 800388c:	800a3080 	call	800a308 <__eqdf2>
 8003890:	103f7826 	beq	r2,zero,8003674 <_dtoa_r+0x648>
 8003894:	d8c00617 	ldw	r3,24(sp)
 8003898:	8805883a 	mov	r2,r17
 800389c:	dd400115 	stw	r21,4(sp)
 80038a0:	8c400084 	addi	r17,r17,2
 80038a4:	10ed883a 	add	r22,r2,r3
 80038a8:	00000a06 	br	80038d4 <_dtoa_r+0x8a8>
 80038ac:	800a5680 	call	800a568 <__muldf3>
 80038b0:	000d883a 	mov	r6,zero
 80038b4:	000f883a 	mov	r7,zero
 80038b8:	1009883a 	mov	r4,r2
 80038bc:	180b883a 	mov	r5,r3
 80038c0:	1027883a 	mov	r19,r2
 80038c4:	1829883a 	mov	r20,r3
 80038c8:	8c400044 	addi	r17,r17,1
 80038cc:	800a3080 	call	800a308 <__eqdf2>
 80038d0:	10029d26 	beq	r2,zero,8004348 <_dtoa_r+0x131c>
 80038d4:	800d883a 	mov	r6,r16
 80038d8:	900f883a 	mov	r7,r18
 80038dc:	9809883a 	mov	r4,r19
 80038e0:	a00b883a 	mov	r5,r20
 80038e4:	80099a40 	call	80099a4 <__divdf3>
 80038e8:	180b883a 	mov	r5,r3
 80038ec:	1009883a 	mov	r4,r2
 80038f0:	800b7080 	call	800b708 <__fixdfsi>
 80038f4:	1009883a 	mov	r4,r2
 80038f8:	102b883a 	mov	r21,r2
 80038fc:	800b7880 	call	800b788 <__floatsidf>
 8003900:	800d883a 	mov	r6,r16
 8003904:	900f883a 	mov	r7,r18
 8003908:	1009883a 	mov	r4,r2
 800390c:	180b883a 	mov	r5,r3
 8003910:	800a5680 	call	800a568 <__muldf3>
 8003914:	100d883a 	mov	r6,r2
 8003918:	180f883a 	mov	r7,r3
 800391c:	9809883a 	mov	r4,r19
 8003920:	a00b883a 	mov	r5,r20
 8003924:	800ad480 	call	800ad48 <__subdf3>
 8003928:	aa400c04 	addi	r9,r21,48
 800392c:	8a7fffc5 	stb	r9,-1(r17)
 8003930:	000d883a 	mov	r6,zero
 8003934:	01d00934 	movhi	r7,16420
 8003938:	1009883a 	mov	r4,r2
 800393c:	180b883a 	mov	r5,r3
 8003940:	882f883a 	mov	r23,r17
 8003944:	b47fd91e 	bne	r22,r17,80038ac <_dtoa_r+0x880>
 8003948:	a82d883a 	mov	r22,r21
 800394c:	dd400117 	ldw	r21,4(sp)
 8003950:	100d883a 	mov	r6,r2
 8003954:	180f883a 	mov	r7,r3
 8003958:	1009883a 	mov	r4,r2
 800395c:	180b883a 	mov	r5,r3
 8003960:	80090040 	call	8009004 <__adddf3>
 8003964:	800d883a 	mov	r6,r16
 8003968:	900f883a 	mov	r7,r18
 800396c:	1009883a 	mov	r4,r2
 8003970:	180b883a 	mov	r5,r3
 8003974:	1027883a 	mov	r19,r2
 8003978:	1823883a 	mov	r17,r3
 800397c:	800a3880 	call	800a388 <__gedf2>
 8003980:	00800816 	blt	zero,r2,80039a4 <_dtoa_r+0x978>
 8003984:	800d883a 	mov	r6,r16
 8003988:	900f883a 	mov	r7,r18
 800398c:	9809883a 	mov	r4,r19
 8003990:	880b883a 	mov	r5,r17
 8003994:	800a3080 	call	800a308 <__eqdf2>
 8003998:	103f361e 	bne	r2,zero,8003674 <_dtoa_r+0x648>
 800399c:	b580004c 	andi	r22,r22,1
 80039a0:	b03f3426 	beq	r22,zero,8003674 <_dtoa_r+0x648>
 80039a4:	ba3fffc3 	ldbu	r8,-1(r23)
 80039a8:	d9000317 	ldw	r4,12(sp)
 80039ac:	00000306 	br	80039bc <_dtoa_r+0x990>
 80039b0:	20c30e26 	beq	r4,r3,80045ec <_dtoa_r+0x15c0>
 80039b4:	1a3fffc3 	ldbu	r8,-1(r3)
 80039b8:	182f883a 	mov	r23,r3
 80039bc:	40803fcc 	andi	r2,r8,255
 80039c0:	1080201c 	xori	r2,r2,128
 80039c4:	10bfe004 	addi	r2,r2,-128
 80039c8:	10800e60 	cmpeqi	r2,r2,57
 80039cc:	b8ffffc4 	addi	r3,r23,-1
 80039d0:	103ff71e 	bne	r2,zero,80039b0 <_dtoa_r+0x984>
 80039d4:	42000044 	addi	r8,r8,1
 80039d8:	1a000005 	stb	r8,0(r3)
 80039dc:	003f2506 	br	8003674 <_dtoa_r+0x648>
 80039e0:	d8c00717 	ldw	r3,28(sp)
 80039e4:	1800e426 	beq	r3,zero,8003d78 <_dtoa_r+0xd4c>
 80039e8:	d8c00217 	ldw	r3,8(sp)
 80039ec:	18c00088 	cmpgei	r3,r3,2
 80039f0:	1801ec26 	beq	r3,zero,80041a4 <_dtoa_r+0x1178>
 80039f4:	d8800617 	ldw	r2,24(sp)
 80039f8:	14bfffc4 	addi	r18,r2,-1
 80039fc:	d8800817 	ldw	r2,32(sp)
 8003a00:	1481c50e 	bge	r2,r18,8004118 <_dtoa_r+0x10ec>
 8003a04:	d8800817 	ldw	r2,32(sp)
 8003a08:	dc800815 	stw	r18,32(sp)
 8003a0c:	9085c83a 	sub	r2,r18,r2
 8003a10:	b0ad883a 	add	r22,r22,r2
 8003a14:	0025883a 	mov	r18,zero
 8003a18:	d8800617 	ldw	r2,24(sp)
 8003a1c:	10024c16 	blt	r2,zero,8004350 <_dtoa_r+0x1324>
 8003a20:	d8c00517 	ldw	r3,20(sp)
 8003a24:	a0a9883a 	add	r20,r20,r2
 8003a28:	1885883a 	add	r2,r3,r2
 8003a2c:	1827883a 	mov	r19,r3
 8003a30:	d8800515 	stw	r2,20(sp)
 8003a34:	01400044 	movi	r5,1
 8003a38:	e009883a 	mov	r4,fp
 8003a3c:	80055180 	call	8005518 <__i2b>
 8003a40:	1021883a 	mov	r16,r2
 8003a44:	04c0080e 	bge	zero,r19,8003a68 <_dtoa_r+0xa3c>
 8003a48:	0500070e 	bge	zero,r20,8003a68 <_dtoa_r+0xa3c>
 8003a4c:	9805883a 	mov	r2,r19
 8003a50:	a4c1a916 	blt	r20,r19,80040f8 <_dtoa_r+0x10cc>
 8003a54:	d8c00517 	ldw	r3,20(sp)
 8003a58:	98a7c83a 	sub	r19,r19,r2
 8003a5c:	a0a9c83a 	sub	r20,r20,r2
 8003a60:	1887c83a 	sub	r3,r3,r2
 8003a64:	d8c00515 	stw	r3,20(sp)
 8003a68:	d8800817 	ldw	r2,32(sp)
 8003a6c:	10001426 	beq	r2,zero,8003ac0 <_dtoa_r+0xa94>
 8003a70:	d8800717 	ldw	r2,28(sp)
 8003a74:	10017226 	beq	r2,zero,8004040 <_dtoa_r+0x1014>
 8003a78:	04800e0e 	bge	zero,r18,8003ab4 <_dtoa_r+0xa88>
 8003a7c:	800b883a 	mov	r5,r16
 8003a80:	900d883a 	mov	r6,r18
 8003a84:	e009883a 	mov	r4,fp
 8003a88:	800578c0 	call	800578c <__pow5mult>
 8003a8c:	a80d883a 	mov	r6,r21
 8003a90:	100b883a 	mov	r5,r2
 8003a94:	e009883a 	mov	r4,fp
 8003a98:	1021883a 	mov	r16,r2
 8003a9c:	800554c0 	call	800554c <__multiply>
 8003aa0:	102f883a 	mov	r23,r2
 8003aa4:	a80b883a 	mov	r5,r21
 8003aa8:	e009883a 	mov	r4,fp
 8003aac:	80051940 	call	8005194 <_Bfree>
 8003ab0:	b82b883a 	mov	r21,r23
 8003ab4:	d8800817 	ldw	r2,32(sp)
 8003ab8:	148dc83a 	sub	r6,r2,r18
 8003abc:	3001611e 	bne	r6,zero,8004044 <_dtoa_r+0x1018>
 8003ac0:	01400044 	movi	r5,1
 8003ac4:	e009883a 	mov	r4,fp
 8003ac8:	80055180 	call	8005518 <__i2b>
 8003acc:	1025883a 	mov	r18,r2
 8003ad0:	0580bc16 	blt	zero,r22,8003dc4 <_dtoa_r+0xd98>
 8003ad4:	d8800217 	ldw	r2,8(sp)
 8003ad8:	10800088 	cmpgei	r2,r2,2
 8003adc:	10016526 	beq	r2,zero,8004074 <_dtoa_r+0x1048>
 8003ae0:	0023883a 	mov	r17,zero
 8003ae4:	00800044 	movi	r2,1
 8003ae8:	b000bf1e 	bne	r22,zero,8003de8 <_dtoa_r+0xdbc>
 8003aec:	1505883a 	add	r2,r2,r20
 8003af0:	108007cc 	andi	r2,r2,31
 8003af4:	1000aa26 	beq	r2,zero,8003da0 <_dtoa_r+0xd74>
 8003af8:	00c00804 	movi	r3,32
 8003afc:	1887c83a 	sub	r3,r3,r2
 8003b00:	19000150 	cmplti	r4,r3,5
 8003b04:	2002f61e 	bne	r4,zero,80046e0 <_dtoa_r+0x16b4>
 8003b08:	00c00704 	movi	r3,28
 8003b0c:	1885c83a 	sub	r2,r3,r2
 8003b10:	d8c00517 	ldw	r3,20(sp)
 8003b14:	98a7883a 	add	r19,r19,r2
 8003b18:	a0a9883a 	add	r20,r20,r2
 8003b1c:	1887883a 	add	r3,r3,r2
 8003b20:	d8c00515 	stw	r3,20(sp)
 8003b24:	d8800517 	ldw	r2,20(sp)
 8003b28:	00809716 	blt	zero,r2,8003d88 <_dtoa_r+0xd5c>
 8003b2c:	0500050e 	bge	zero,r20,8003b44 <_dtoa_r+0xb18>
 8003b30:	900b883a 	mov	r5,r18
 8003b34:	a00d883a 	mov	r6,r20
 8003b38:	e009883a 	mov	r4,fp
 8003b3c:	80058b40 	call	80058b4 <__lshift>
 8003b40:	1025883a 	mov	r18,r2
 8003b44:	d8800917 	ldw	r2,36(sp)
 8003b48:	10012b1e 	bne	r2,zero,8003ff8 <_dtoa_r+0xfcc>
 8003b4c:	d8800617 	ldw	r2,24(sp)
 8003b50:	00810d0e 	bge	zero,r2,8003f88 <_dtoa_r+0xf5c>
 8003b54:	d8800417 	ldw	r2,16(sp)
 8003b58:	10800044 	addi	r2,r2,1
 8003b5c:	d8800415 	stw	r2,16(sp)
 8003b60:	d8800717 	ldw	r2,28(sp)
 8003b64:	1000b21e 	bne	r2,zero,8003e30 <_dtoa_r+0xe04>
 8003b68:	ddc00317 	ldw	r23,12(sp)
 8003b6c:	04400044 	movi	r17,1
 8003b70:	dcc00617 	ldw	r19,24(sp)
 8003b74:	00000306 	br	8003b84 <_dtoa_r+0xb58>
 8003b78:	80051b80 	call	80051b8 <__multadd>
 8003b7c:	102b883a 	mov	r21,r2
 8003b80:	8c400044 	addi	r17,r17,1
 8003b84:	900b883a 	mov	r5,r18
 8003b88:	a809883a 	mov	r4,r21
 8003b8c:	8002df80 	call	8002df8 <quorem>
 8003b90:	10800c04 	addi	r2,r2,48
 8003b94:	bdc00044 	addi	r23,r23,1
 8003b98:	b8bfffc5 	stb	r2,-1(r23)
 8003b9c:	000f883a 	mov	r7,zero
 8003ba0:	01800284 	movi	r6,10
 8003ba4:	a80b883a 	mov	r5,r21
 8003ba8:	e009883a 	mov	r4,fp
 8003bac:	8cfff216 	blt	r17,r19,8003b78 <_dtoa_r+0xb4c>
 8003bb0:	1011883a 	mov	r8,r2
 8003bb4:	0029883a 	mov	r20,zero
 8003bb8:	a80b883a 	mov	r5,r21
 8003bbc:	01800044 	movi	r6,1
 8003bc0:	e009883a 	mov	r4,fp
 8003bc4:	da000115 	stw	r8,4(sp)
 8003bc8:	80058b40 	call	80058b4 <__lshift>
 8003bcc:	900b883a 	mov	r5,r18
 8003bd0:	1009883a 	mov	r4,r2
 8003bd4:	102b883a 	mov	r21,r2
 8003bd8:	80059f00 	call	80059f0 <__mcmp>
 8003bdc:	b8ffffc3 	ldbu	r3,-1(r23)
 8003be0:	0081610e 	bge	zero,r2,8004168 <_dtoa_r+0x113c>
 8003be4:	d9400317 	ldw	r5,12(sp)
 8003be8:	00000306 	br	8003bf8 <_dtoa_r+0xbcc>
 8003bec:	29017726 	beq	r5,r4,80041cc <_dtoa_r+0x11a0>
 8003bf0:	20ffffc3 	ldbu	r3,-1(r4)
 8003bf4:	202f883a 	mov	r23,r4
 8003bf8:	18803fcc 	andi	r2,r3,255
 8003bfc:	1080201c 	xori	r2,r2,128
 8003c00:	10bfe004 	addi	r2,r2,-128
 8003c04:	10800e60 	cmpeqi	r2,r2,57
 8003c08:	b93fffc4 	addi	r4,r23,-1
 8003c0c:	103ff71e 	bne	r2,zero,8003bec <_dtoa_r+0xbc0>
 8003c10:	18c00044 	addi	r3,r3,1
 8003c14:	20c00005 	stb	r3,0(r4)
 8003c18:	900b883a 	mov	r5,r18
 8003c1c:	e009883a 	mov	r4,fp
 8003c20:	80051940 	call	8005194 <_Bfree>
 8003c24:	803e9326 	beq	r16,zero,8003674 <_dtoa_r+0x648>
 8003c28:	a0000426 	beq	r20,zero,8003c3c <_dtoa_r+0xc10>
 8003c2c:	a4000326 	beq	r20,r16,8003c3c <_dtoa_r+0xc10>
 8003c30:	a00b883a 	mov	r5,r20
 8003c34:	e009883a 	mov	r4,fp
 8003c38:	80051940 	call	8005194 <_Bfree>
 8003c3c:	800b883a 	mov	r5,r16
 8003c40:	e009883a 	mov	r4,fp
 8003c44:	80051940 	call	8005194 <_Bfree>
 8003c48:	003e8a06 	br	8003674 <_dtoa_r+0x648>
 8003c4c:	d8000915 	stw	zero,36(sp)
 8003c50:	a0003616 	blt	r20,zero,8003d2c <_dtoa_r+0xd00>
 8003c54:	d8000515 	stw	zero,20(sp)
 8003c58:	d8c00217 	ldw	r3,8(sp)
 8003c5c:	dd800415 	stw	r22,16(sp)
 8003c60:	d8000815 	stw	zero,32(sp)
 8003c64:	188002a8 	cmpgeui	r2,r3,10
 8003c68:	a5a9883a 	add	r20,r20,r22
 8003c6c:	103d9726 	beq	r2,zero,80032cc <_dtoa_r+0x2a0>
 8003c70:	00800044 	movi	r2,1
 8003c74:	d8800715 	stw	r2,28(sp)
 8003c78:	00bfffc4 	movi	r2,-1
 8003c7c:	04bfffc4 	movi	r18,-1
 8003c80:	04000044 	movi	r16,1
 8003c84:	d8000215 	stw	zero,8(sp)
 8003c88:	d8800615 	stw	r2,24(sp)
 8003c8c:	d8001e15 	stw	zero,120(sp)
 8003c90:	d8800617 	ldw	r2,24(sp)
 8003c94:	e0001115 	stw	zero,68(fp)
 8003c98:	000b883a 	mov	r5,zero
 8003c9c:	d8800b15 	stw	r2,44(sp)
 8003ca0:	003daa06 	br	800334c <_dtoa_r+0x320>
 8003ca4:	18800160 	cmpeqi	r2,r3,5
 8003ca8:	00c00044 	movi	r3,1
 8003cac:	d8c00715 	stw	r3,28(sp)
 8003cb0:	10000d26 	beq	r2,zero,8003ce8 <_dtoa_r+0xcbc>
 8003cb4:	d8801e17 	ldw	r2,120(sp)
 8003cb8:	d8c00417 	ldw	r3,16(sp)
 8003cbc:	10c5883a 	add	r2,r2,r3
 8003cc0:	d8800b15 	stw	r2,44(sp)
 8003cc4:	10800044 	addi	r2,r2,1
 8003cc8:	d8800615 	stw	r2,24(sp)
 8003ccc:	100d883a 	mov	r6,r2
 8003cd0:	00bd9216 	blt	zero,r2,800331c <_dtoa_r+0x2f0>
 8003cd4:	01800044 	movi	r6,1
 8003cd8:	003d9006 	br	800331c <_dtoa_r+0x2f0>
 8003cdc:	188000a0 	cmpeqi	r2,r3,2
 8003ce0:	d8000715 	stw	zero,28(sp)
 8003ce4:	103d881e 	bne	r2,zero,8003308 <_dtoa_r+0x2dc>
 8003ce8:	e0001115 	stw	zero,68(fp)
 8003cec:	000b883a 	mov	r5,zero
 8003cf0:	e009883a 	mov	r4,fp
 8003cf4:	80050f00 	call	80050f0 <_Balloc>
 8003cf8:	d8800315 	stw	r2,12(sp)
 8003cfc:	e0801015 	stw	r2,64(fp)
 8003d00:	00bfffc4 	movi	r2,-1
 8003d04:	d8800b15 	stw	r2,44(sp)
 8003d08:	00800044 	movi	r2,1
 8003d0c:	d8800715 	stw	r2,28(sp)
 8003d10:	00bfffc4 	movi	r2,-1
 8003d14:	d8001e15 	stw	zero,120(sp)
 8003d18:	d8800615 	stw	r2,24(sp)
 8003d1c:	003e8f06 	br	800375c <_dtoa_r+0x730>
 8003d20:	00800044 	movi	r2,1
 8003d24:	d8800915 	stw	r2,36(sp)
 8003d28:	a03d5c0e 	bge	r20,zero,800329c <_dtoa_r+0x270>
 8003d2c:	04800044 	movi	r18,1
 8003d30:	9405c83a 	sub	r2,r18,r16
 8003d34:	d8800515 	stw	r2,20(sp)
 8003d38:	0029883a 	mov	r20,zero
 8003d3c:	003d5806 	br	80032a0 <_dtoa_r+0x274>
 8003d40:	b009883a 	mov	r4,r22
 8003d44:	800b7880 	call	800b788 <__floatsidf>
 8003d48:	a00d883a 	mov	r6,r20
 8003d4c:	980f883a 	mov	r7,r19
 8003d50:	1009883a 	mov	r4,r2
 8003d54:	180b883a 	mov	r5,r3
 8003d58:	800a3080 	call	800a308 <__eqdf2>
 8003d5c:	103d3e26 	beq	r2,zero,8003258 <_dtoa_r+0x22c>
 8003d60:	b5bfffc4 	addi	r22,r22,-1
 8003d64:	003d3c06 	br	8003258 <_dtoa_r+0x22c>
 8003d68:	00820074 	movhi	r2,2049
 8003d6c:	10b71804 	addi	r2,r2,-9120
 8003d70:	d8800315 	stw	r2,12(sp)
 8003d74:	003cdf06 	br	80030f4 <_dtoa_r+0xc8>
 8003d78:	dc800817 	ldw	r18,32(sp)
 8003d7c:	dcc00517 	ldw	r19,20(sp)
 8003d80:	0021883a 	mov	r16,zero
 8003d84:	003f2f06 	br	8003a44 <_dtoa_r+0xa18>
 8003d88:	a80b883a 	mov	r5,r21
 8003d8c:	100d883a 	mov	r6,r2
 8003d90:	e009883a 	mov	r4,fp
 8003d94:	80058b40 	call	80058b4 <__lshift>
 8003d98:	102b883a 	mov	r21,r2
 8003d9c:	003f6306 	br	8003b2c <_dtoa_r+0xb00>
 8003da0:	00800704 	movi	r2,28
 8003da4:	003f5a06 	br	8003b10 <_dtoa_r+0xae4>
 8003da8:	01000804 	movi	r4,32
 8003dac:	2089c83a 	sub	r4,r4,r2
 8003db0:	d8800117 	ldw	r2,4(sp)
 8003db4:	1108983a 	sll	r4,r2,r4
 8003db8:	003cf306 	br	8003188 <_dtoa_r+0x15c>
 8003dbc:	04000044 	movi	r16,1
 8003dc0:	003d4706 	br	80032e0 <_dtoa_r+0x2b4>
 8003dc4:	b00d883a 	mov	r6,r22
 8003dc8:	100b883a 	mov	r5,r2
 8003dcc:	e009883a 	mov	r4,fp
 8003dd0:	800578c0 	call	800578c <__pow5mult>
 8003dd4:	1025883a 	mov	r18,r2
 8003dd8:	d8800217 	ldw	r2,8(sp)
 8003ddc:	10800090 	cmplti	r2,r2,2
 8003de0:	10012f1e 	bne	r2,zero,80042a0 <_dtoa_r+0x1274>
 8003de4:	0023883a 	mov	r17,zero
 8003de8:	90800417 	ldw	r2,16(r18)
 8003dec:	10800104 	addi	r2,r2,4
 8003df0:	100490ba 	slli	r2,r2,2
 8003df4:	9085883a 	add	r2,r18,r2
 8003df8:	11000017 	ldw	r4,0(r2)
 8003dfc:	80054040 	call	8005404 <__hi0bits>
 8003e00:	00c00804 	movi	r3,32
 8003e04:	1885c83a 	sub	r2,r3,r2
 8003e08:	003f3806 	br	8003aec <_dtoa_r+0xac0>
 8003e0c:	800b883a 	mov	r5,r16
 8003e10:	000f883a 	mov	r7,zero
 8003e14:	01800284 	movi	r6,10
 8003e18:	e009883a 	mov	r4,fp
 8003e1c:	80051b80 	call	80051b8 <__multadd>
 8003e20:	1021883a 	mov	r16,r2
 8003e24:	d8800b17 	ldw	r2,44(sp)
 8003e28:	00821b0e 	bge	zero,r2,8004698 <_dtoa_r+0x166c>
 8003e2c:	d8800615 	stw	r2,24(sp)
 8003e30:	04c0b316 	blt	zero,r19,8004100 <_dtoa_r+0x10d4>
 8003e34:	8801341e 	bne	r17,zero,8004308 <_dtoa_r+0x12dc>
 8003e38:	8027883a 	mov	r19,r16
 8003e3c:	dc400317 	ldw	r17,12(sp)
 8003e40:	d8c00617 	ldw	r3,24(sp)
 8003e44:	d8800117 	ldw	r2,4(sp)
 8003e48:	8dffffc4 	addi	r23,r17,-1
 8003e4c:	b8c7883a 	add	r3,r23,r3
 8003e50:	d8c00615 	stw	r3,24(sp)
 8003e54:	d8c00217 	ldw	r3,8(sp)
 8003e58:	1080004c 	andi	r2,r2,1
 8003e5c:	d8800815 	stw	r2,32(sp)
 8003e60:	10c4b03a 	or	r2,r2,r3
 8003e64:	d8800715 	stw	r2,28(sp)
 8003e68:	00002c06 	br	8003f1c <_dtoa_r+0xef0>
 8003e6c:	b80b883a 	mov	r5,r23
 8003e70:	a809883a 	mov	r4,r21
 8003e74:	da000515 	stw	r8,20(sp)
 8003e78:	80059f00 	call	80059f0 <__mcmp>
 8003e7c:	b80b883a 	mov	r5,r23
 8003e80:	e009883a 	mov	r4,fp
 8003e84:	d8800115 	stw	r2,4(sp)
 8003e88:	80051940 	call	8005194 <_Bfree>
 8003e8c:	d8800117 	ldw	r2,4(sp)
 8003e90:	da000517 	ldw	r8,20(sp)
 8003e94:	1000021e 	bne	r2,zero,8003ea0 <_dtoa_r+0xe74>
 8003e98:	d8c00717 	ldw	r3,28(sp)
 8003e9c:	1801f226 	beq	r3,zero,8004668 <_dtoa_r+0x163c>
 8003ea0:	8dc00044 	addi	r23,r17,1
 8003ea4:	a0010516 	blt	r20,zero,80042bc <_dtoa_r+0x1290>
 8003ea8:	d8c00217 	ldw	r3,8(sp)
 8003eac:	a0e8b03a 	or	r20,r20,r3
 8003eb0:	d8c00817 	ldw	r3,32(sp)
 8003eb4:	1d28b03a 	or	r20,r3,r20
 8003eb8:	a0010026 	beq	r20,zero,80042bc <_dtoa_r+0x1290>
 8003ebc:	00812816 	blt	zero,r2,8004360 <_dtoa_r+0x1334>
 8003ec0:	d8800617 	ldw	r2,24(sp)
 8003ec4:	8a000005 	stb	r8,0(r17)
 8003ec8:	14412926 	beq	r2,r17,8004370 <_dtoa_r+0x1344>
 8003ecc:	a80b883a 	mov	r5,r21
 8003ed0:	000f883a 	mov	r7,zero
 8003ed4:	01800284 	movi	r6,10
 8003ed8:	e009883a 	mov	r4,fp
 8003edc:	80051b80 	call	80051b8 <__multadd>
 8003ee0:	102b883a 	mov	r21,r2
 8003ee4:	000f883a 	mov	r7,zero
 8003ee8:	01800284 	movi	r6,10
 8003eec:	800b883a 	mov	r5,r16
 8003ef0:	e009883a 	mov	r4,fp
 8003ef4:	84c02026 	beq	r16,r19,8003f78 <_dtoa_r+0xf4c>
 8003ef8:	80051b80 	call	80051b8 <__multadd>
 8003efc:	980b883a 	mov	r5,r19
 8003f00:	000f883a 	mov	r7,zero
 8003f04:	01800284 	movi	r6,10
 8003f08:	e009883a 	mov	r4,fp
 8003f0c:	1021883a 	mov	r16,r2
 8003f10:	80051b80 	call	80051b8 <__multadd>
 8003f14:	1027883a 	mov	r19,r2
 8003f18:	b823883a 	mov	r17,r23
 8003f1c:	900b883a 	mov	r5,r18
 8003f20:	a809883a 	mov	r4,r21
 8003f24:	8002df80 	call	8002df8 <quorem>
 8003f28:	800b883a 	mov	r5,r16
 8003f2c:	a809883a 	mov	r4,r21
 8003f30:	102d883a 	mov	r22,r2
 8003f34:	80059f00 	call	80059f0 <__mcmp>
 8003f38:	980d883a 	mov	r6,r19
 8003f3c:	900b883a 	mov	r5,r18
 8003f40:	e009883a 	mov	r4,fp
 8003f44:	1029883a 	mov	r20,r2
 8003f48:	8005a480 	call	8005a48 <__mdiff>
 8003f4c:	102f883a 	mov	r23,r2
 8003f50:	10800317 	ldw	r2,12(r2)
 8003f54:	b2000c04 	addi	r8,r22,48
 8003f58:	103fc426 	beq	r2,zero,8003e6c <_dtoa_r+0xe40>
 8003f5c:	b80b883a 	mov	r5,r23
 8003f60:	e009883a 	mov	r4,fp
 8003f64:	da000115 	stw	r8,4(sp)
 8003f68:	80051940 	call	8005194 <_Bfree>
 8003f6c:	00800044 	movi	r2,1
 8003f70:	da000117 	ldw	r8,4(sp)
 8003f74:	003fca06 	br	8003ea0 <_dtoa_r+0xe74>
 8003f78:	80051b80 	call	80051b8 <__multadd>
 8003f7c:	1021883a 	mov	r16,r2
 8003f80:	1027883a 	mov	r19,r2
 8003f84:	003fe406 	br	8003f18 <_dtoa_r+0xeec>
 8003f88:	d8800217 	ldw	r2,8(sp)
 8003f8c:	108000d0 	cmplti	r2,r2,3
 8003f90:	10004b1e 	bne	r2,zero,80040c0 <_dtoa_r+0x1094>
 8003f94:	d8800617 	ldw	r2,24(sp)
 8003f98:	103e0d1e 	bne	r2,zero,80037d0 <_dtoa_r+0x7a4>
 8003f9c:	900b883a 	mov	r5,r18
 8003fa0:	e009883a 	mov	r4,fp
 8003fa4:	000f883a 	mov	r7,zero
 8003fa8:	01800144 	movi	r6,5
 8003fac:	80051b80 	call	80051b8 <__multadd>
 8003fb0:	100b883a 	mov	r5,r2
 8003fb4:	a809883a 	mov	r4,r21
 8003fb8:	1025883a 	mov	r18,r2
 8003fbc:	80059f00 	call	80059f0 <__mcmp>
 8003fc0:	00be030e 	bge	zero,r2,80037d0 <_dtoa_r+0x7a4>
 8003fc4:	d8c00317 	ldw	r3,12(sp)
 8003fc8:	00800c44 	movi	r2,49
 8003fcc:	18800005 	stb	r2,0(r3)
 8003fd0:	d8800417 	ldw	r2,16(sp)
 8003fd4:	1dc00044 	addi	r23,r3,1
 8003fd8:	14400044 	addi	r17,r2,1
 8003fdc:	900b883a 	mov	r5,r18
 8003fe0:	e009883a 	mov	r4,fp
 8003fe4:	80051940 	call	8005194 <_Bfree>
 8003fe8:	88800044 	addi	r2,r17,1
 8003fec:	d8800415 	stw	r2,16(sp)
 8003ff0:	803f121e 	bne	r16,zero,8003c3c <_dtoa_r+0xc10>
 8003ff4:	003d9f06 	br	8003674 <_dtoa_r+0x648>
 8003ff8:	900b883a 	mov	r5,r18
 8003ffc:	a809883a 	mov	r4,r21
 8004000:	80059f00 	call	80059f0 <__mcmp>
 8004004:	103ed10e 	bge	r2,zero,8003b4c <_dtoa_r+0xb20>
 8004008:	a80b883a 	mov	r5,r21
 800400c:	000f883a 	mov	r7,zero
 8004010:	01800284 	movi	r6,10
 8004014:	e009883a 	mov	r4,fp
 8004018:	80051b80 	call	80051b8 <__multadd>
 800401c:	102b883a 	mov	r21,r2
 8004020:	d8800417 	ldw	r2,16(sp)
 8004024:	153fffc4 	addi	r20,r2,-1
 8004028:	d8800717 	ldw	r2,28(sp)
 800402c:	103f771e 	bne	r2,zero,8003e0c <_dtoa_r+0xde0>
 8004030:	d8800b17 	ldw	r2,44(sp)
 8004034:	0081910e 	bge	zero,r2,800467c <_dtoa_r+0x1650>
 8004038:	d8800615 	stw	r2,24(sp)
 800403c:	003eca06 	br	8003b68 <_dtoa_r+0xb3c>
 8004040:	d9800817 	ldw	r6,32(sp)
 8004044:	a80b883a 	mov	r5,r21
 8004048:	e009883a 	mov	r4,fp
 800404c:	800578c0 	call	800578c <__pow5mult>
 8004050:	102b883a 	mov	r21,r2
 8004054:	003e9a06 	br	8003ac0 <_dtoa_r+0xa94>
 8004058:	00820074 	movhi	r2,2049
 800405c:	1007883a 	mov	r3,r2
 8004060:	18f72104 	addi	r3,r3,-9084
 8004064:	00820074 	movhi	r2,2049
 8004068:	d8c00315 	stw	r3,12(sp)
 800406c:	10b721c4 	addi	r2,r2,-9081
 8004070:	003da506 	br	8003708 <_dtoa_r+0x6dc>
 8004074:	d8800117 	ldw	r2,4(sp)
 8004078:	103e991e 	bne	r2,zero,8003ae0 <_dtoa_r+0xab4>
 800407c:	00800434 	movhi	r2,16
 8004080:	10bfffc4 	addi	r2,r2,-1
 8004084:	8884703a 	and	r2,r17,r2
 8004088:	103e951e 	bne	r2,zero,8003ae0 <_dtoa_r+0xab4>
 800408c:	8c5ffc2c 	andhi	r17,r17,32752
 8004090:	883e9326 	beq	r17,zero,8003ae0 <_dtoa_r+0xab4>
 8004094:	d8800517 	ldw	r2,20(sp)
 8004098:	a5000044 	addi	r20,r20,1
 800409c:	04400044 	movi	r17,1
 80040a0:	10800044 	addi	r2,r2,1
 80040a4:	d8800515 	stw	r2,20(sp)
 80040a8:	003e8e06 	br	8003ae4 <_dtoa_r+0xab8>
 80040ac:	00800044 	movi	r2,1
 80040b0:	04800044 	movi	r18,1
 80040b4:	d8800615 	stw	r2,24(sp)
 80040b8:	d8801e15 	stw	r2,120(sp)
 80040bc:	003ef406 	br	8003c90 <_dtoa_r+0xc64>
 80040c0:	d8800417 	ldw	r2,16(sp)
 80040c4:	10800044 	addi	r2,r2,1
 80040c8:	d8800415 	stw	r2,16(sp)
 80040cc:	d8800717 	ldw	r2,28(sp)
 80040d0:	103f571e 	bne	r2,zero,8003e30 <_dtoa_r+0xe04>
 80040d4:	900b883a 	mov	r5,r18
 80040d8:	a809883a 	mov	r4,r21
 80040dc:	8002df80 	call	8002df8 <quorem>
 80040e0:	12000c04 	addi	r8,r2,48
 80040e4:	d8800317 	ldw	r2,12(sp)
 80040e8:	0029883a 	mov	r20,zero
 80040ec:	15c00044 	addi	r23,r2,1
 80040f0:	12000005 	stb	r8,0(r2)
 80040f4:	003eb006 	br	8003bb8 <_dtoa_r+0xb8c>
 80040f8:	a005883a 	mov	r2,r20
 80040fc:	003e5506 	br	8003a54 <_dtoa_r+0xa28>
 8004100:	800b883a 	mov	r5,r16
 8004104:	980d883a 	mov	r6,r19
 8004108:	e009883a 	mov	r4,fp
 800410c:	80058b40 	call	80058b4 <__lshift>
 8004110:	1021883a 	mov	r16,r2
 8004114:	003f4706 	br	8003e34 <_dtoa_r+0xe08>
 8004118:	14a5c83a 	sub	r18,r2,r18
 800411c:	003e3e06 	br	8003a18 <_dtoa_r+0x9ec>
 8004120:	00820074 	movhi	r2,2049
 8004124:	10b73204 	addi	r2,r2,-9016
 8004128:	11800817 	ldw	r6,32(r2)
 800412c:	11c00917 	ldw	r7,36(r2)
 8004130:	d9000117 	ldw	r4,4(sp)
 8004134:	880b883a 	mov	r5,r17
 8004138:	da400e15 	stw	r9,56(sp)
 800413c:	da800d15 	stw	r10,52(sp)
 8004140:	80099a40 	call	80099a4 <__divdf3>
 8004144:	d8800c15 	stw	r2,48(sp)
 8004148:	1827883a 	mov	r19,r3
 800414c:	bdc003cc 	andi	r23,r23,15
 8004150:	040000c4 	movi	r16,3
 8004154:	da800d17 	ldw	r10,52(sp)
 8004158:	da400e17 	ldw	r9,56(sp)
 800415c:	003c9206 	br	80033a8 <_dtoa_r+0x37c>
 8004160:	d8000715 	stw	zero,28(sp)
 8004164:	003ed306 	br	8003cb4 <_dtoa_r+0xc88>
 8004168:	1000031e 	bne	r2,zero,8004178 <_dtoa_r+0x114c>
 800416c:	da000117 	ldw	r8,4(sp)
 8004170:	4200004c 	andi	r8,r8,1
 8004174:	403e9b1e 	bne	r8,zero,8003be4 <_dtoa_r+0xbb8>
 8004178:	1805883a 	mov	r2,r3
 800417c:	00000206 	br	8004188 <_dtoa_r+0x115c>
 8004180:	b8bfff83 	ldbu	r2,-2(r23)
 8004184:	182f883a 	mov	r23,r3
 8004188:	10803fcc 	andi	r2,r2,255
 800418c:	1080201c 	xori	r2,r2,128
 8004190:	10bfe004 	addi	r2,r2,-128
 8004194:	10800c18 	cmpnei	r2,r2,48
 8004198:	b8ffffc4 	addi	r3,r23,-1
 800419c:	103ff826 	beq	r2,zero,8004180 <_dtoa_r+0x1154>
 80041a0:	003e9d06 	br	8003c18 <_dtoa_r+0xbec>
 80041a4:	d8c00a17 	ldw	r3,40(sp)
 80041a8:	1800bc26 	beq	r3,zero,800449c <_dtoa_r+0x1470>
 80041ac:	d8c00517 	ldw	r3,20(sp)
 80041b0:	10810cc4 	addi	r2,r2,1075
 80041b4:	a0a9883a 	add	r20,r20,r2
 80041b8:	1885883a 	add	r2,r3,r2
 80041bc:	1827883a 	mov	r19,r3
 80041c0:	dc800817 	ldw	r18,32(sp)
 80041c4:	d8800515 	stw	r2,20(sp)
 80041c8:	003e1a06 	br	8003a34 <_dtoa_r+0xa08>
 80041cc:	d8c00317 	ldw	r3,12(sp)
 80041d0:	00800c44 	movi	r2,49
 80041d4:	18800005 	stb	r2,0(r3)
 80041d8:	d8800417 	ldw	r2,16(sp)
 80041dc:	10800044 	addi	r2,r2,1
 80041e0:	d8800415 	stw	r2,16(sp)
 80041e4:	003e8c06 	br	8003c18 <_dtoa_r+0xbec>
 80041e8:	8009883a 	mov	r4,r16
 80041ec:	800b7880 	call	800b788 <__floatsidf>
 80041f0:	900d883a 	mov	r6,r18
 80041f4:	980f883a 	mov	r7,r19
 80041f8:	1009883a 	mov	r4,r2
 80041fc:	180b883a 	mov	r5,r3
 8004200:	800a5680 	call	800a568 <__muldf3>
 8004204:	000d883a 	mov	r6,zero
 8004208:	01d00734 	movhi	r7,16412
 800420c:	1009883a 	mov	r4,r2
 8004210:	180b883a 	mov	r5,r3
 8004214:	80090040 	call	8009004 <__adddf3>
 8004218:	d8800c15 	stw	r2,48(sp)
 800421c:	00bf3034 	movhi	r2,64704
 8004220:	1885883a 	add	r2,r3,r2
 8004224:	d8800d15 	stw	r2,52(sp)
 8004228:	9009883a 	mov	r4,r18
 800422c:	980b883a 	mov	r5,r19
 8004230:	000d883a 	mov	r6,zero
 8004234:	01d00534 	movhi	r7,16404
 8004238:	800ad480 	call	800ad48 <__subdf3>
 800423c:	ddc00c17 	ldw	r23,48(sp)
 8004240:	dcc00d17 	ldw	r19,52(sp)
 8004244:	1009883a 	mov	r4,r2
 8004248:	b80d883a 	mov	r6,r23
 800424c:	980f883a 	mov	r7,r19
 8004250:	180b883a 	mov	r5,r3
 8004254:	1025883a 	mov	r18,r2
 8004258:	1821883a 	mov	r16,r3
 800425c:	800a3880 	call	800a388 <__gedf2>
 8004260:	0080ee16 	blt	zero,r2,800461c <_dtoa_r+0x15f0>
 8004264:	99e0003c 	xorhi	r7,r19,32768
 8004268:	b80d883a 	mov	r6,r23
 800426c:	9009883a 	mov	r4,r18
 8004270:	800b883a 	mov	r5,r16
 8004274:	800a4780 	call	800a478 <__ledf2>
 8004278:	103d380e 	bge	r2,zero,800375c <_dtoa_r+0x730>
 800427c:	0025883a 	mov	r18,zero
 8004280:	0021883a 	mov	r16,zero
 8004284:	003d5206 	br	80037d0 <_dtoa_r+0x7a4>
 8004288:	d8800417 	ldw	r2,16(sp)
 800428c:	1000ad1e 	bne	r2,zero,8004544 <_dtoa_r+0x1518>
 8004290:	dc800117 	ldw	r18,4(sp)
 8004294:	8827883a 	mov	r19,r17
 8004298:	04000084 	movi	r16,2
 800429c:	003c5b06 	br	800340c <_dtoa_r+0x3e0>
 80042a0:	d8800117 	ldw	r2,4(sp)
 80042a4:	103ecf1e 	bne	r2,zero,8003de4 <_dtoa_r+0xdb8>
 80042a8:	00800434 	movhi	r2,16
 80042ac:	10bfffc4 	addi	r2,r2,-1
 80042b0:	8884703a 	and	r2,r17,r2
 80042b4:	103f7526 	beq	r2,zero,800408c <_dtoa_r+0x1060>
 80042b8:	003eca06 	br	8003de4 <_dtoa_r+0xdb8>
 80042bc:	00800e0e 	bge	zero,r2,80042f8 <_dtoa_r+0x12cc>
 80042c0:	a80b883a 	mov	r5,r21
 80042c4:	01800044 	movi	r6,1
 80042c8:	e009883a 	mov	r4,fp
 80042cc:	da000115 	stw	r8,4(sp)
 80042d0:	80058b40 	call	80058b4 <__lshift>
 80042d4:	900b883a 	mov	r5,r18
 80042d8:	1009883a 	mov	r4,r2
 80042dc:	102b883a 	mov	r21,r2
 80042e0:	80059f00 	call	80059f0 <__mcmp>
 80042e4:	da000117 	ldw	r8,4(sp)
 80042e8:	0080d50e 	bge	zero,r2,8004640 <_dtoa_r+0x1614>
 80042ec:	42000e60 	cmpeqi	r8,r8,57
 80042f0:	4000c31e 	bne	r8,zero,8004600 <_dtoa_r+0x15d4>
 80042f4:	b2000c44 	addi	r8,r22,49
 80042f8:	8029883a 	mov	r20,r16
 80042fc:	8a000005 	stb	r8,0(r17)
 8004300:	9821883a 	mov	r16,r19
 8004304:	003e4406 	br	8003c18 <_dtoa_r+0xbec>
 8004308:	81400117 	ldw	r5,4(r16)
 800430c:	e009883a 	mov	r4,fp
 8004310:	80050f00 	call	80050f0 <_Balloc>
 8004314:	81800417 	ldw	r6,16(r16)
 8004318:	81400304 	addi	r5,r16,12
 800431c:	11000304 	addi	r4,r2,12
 8004320:	31800084 	addi	r6,r6,2
 8004324:	300c90ba 	slli	r6,r6,2
 8004328:	1023883a 	mov	r17,r2
 800432c:	8004ff00 	call	8004ff0 <memcpy>
 8004330:	01800044 	movi	r6,1
 8004334:	880b883a 	mov	r5,r17
 8004338:	e009883a 	mov	r4,fp
 800433c:	80058b40 	call	80058b4 <__lshift>
 8004340:	1027883a 	mov	r19,r2
 8004344:	003ebd06 	br	8003e3c <_dtoa_r+0xe10>
 8004348:	dd400117 	ldw	r21,4(sp)
 800434c:	003cc906 	br	8003674 <_dtoa_r+0x648>
 8004350:	d8800517 	ldw	r2,20(sp)
 8004354:	d8c00617 	ldw	r3,24(sp)
 8004358:	10e7c83a 	sub	r19,r2,r3
 800435c:	003db506 	br	8003a34 <_dtoa_r+0xa08>
 8004360:	40800e58 	cmpnei	r2,r8,57
 8004364:	1000a626 	beq	r2,zero,8004600 <_dtoa_r+0x15d4>
 8004368:	42000044 	addi	r8,r8,1
 800436c:	003fe206 	br	80042f8 <_dtoa_r+0x12cc>
 8004370:	8029883a 	mov	r20,r16
 8004374:	9821883a 	mov	r16,r19
 8004378:	003e0f06 	br	8003bb8 <_dtoa_r+0xb8c>
 800437c:	d9000c17 	ldw	r4,48(sp)
 8004380:	d9400d17 	ldw	r5,52(sp)
 8004384:	da401015 	stw	r9,64(sp)
 8004388:	800a5680 	call	800a568 <__muldf3>
 800438c:	d9000e17 	ldw	r4,56(sp)
 8004390:	d8c00d15 	stw	r3,52(sp)
 8004394:	da401017 	ldw	r9,64(sp)
 8004398:	d8c00317 	ldw	r3,12(sp)
 800439c:	d8800c15 	stw	r2,48(sp)
 80043a0:	20800058 	cmpnei	r2,r4,1
 80043a4:	1a400005 	stb	r9,0(r3)
 80043a8:	1907883a 	add	r3,r3,r4
 80043ac:	1809883a 	mov	r4,r3
 80043b0:	10001d26 	beq	r2,zero,8004428 <_dtoa_r+0x13fc>
 80043b4:	8007883a 	mov	r3,r16
 80043b8:	9005883a 	mov	r2,r18
 80043bc:	dc400e15 	stw	r17,56(sp)
 80043c0:	2021883a 	mov	r16,r4
 80043c4:	000d883a 	mov	r6,zero
 80043c8:	01d00934 	movhi	r7,16420
 80043cc:	1009883a 	mov	r4,r2
 80043d0:	180b883a 	mov	r5,r3
 80043d4:	800a5680 	call	800a568 <__muldf3>
 80043d8:	180b883a 	mov	r5,r3
 80043dc:	1009883a 	mov	r4,r2
 80043e0:	1825883a 	mov	r18,r3
 80043e4:	1023883a 	mov	r17,r2
 80043e8:	800b7080 	call	800b708 <__fixdfsi>
 80043ec:	1009883a 	mov	r4,r2
 80043f0:	1027883a 	mov	r19,r2
 80043f4:	800b7880 	call	800b788 <__floatsidf>
 80043f8:	100d883a 	mov	r6,r2
 80043fc:	180f883a 	mov	r7,r3
 8004400:	8809883a 	mov	r4,r17
 8004404:	900b883a 	mov	r5,r18
 8004408:	bdc00044 	addi	r23,r23,1
 800440c:	9cc00c04 	addi	r19,r19,48
 8004410:	800ad480 	call	800ad48 <__subdf3>
 8004414:	bcffffc5 	stb	r19,-1(r23)
 8004418:	bc3fea1e 	bne	r23,r16,80043c4 <_dtoa_r+0x1398>
 800441c:	dc400e17 	ldw	r17,56(sp)
 8004420:	1025883a 	mov	r18,r2
 8004424:	1821883a 	mov	r16,r3
 8004428:	d9000c17 	ldw	r4,48(sp)
 800442c:	d9400d17 	ldw	r5,52(sp)
 8004430:	000d883a 	mov	r6,zero
 8004434:	01cff834 	movhi	r7,16352
 8004438:	80090040 	call	8009004 <__adddf3>
 800443c:	100d883a 	mov	r6,r2
 8004440:	180f883a 	mov	r7,r3
 8004444:	9009883a 	mov	r4,r18
 8004448:	800b883a 	mov	r5,r16
 800444c:	800a3880 	call	800a388 <__gedf2>
 8004450:	00807516 	blt	zero,r2,8004628 <_dtoa_r+0x15fc>
 8004454:	d9800c17 	ldw	r6,48(sp)
 8004458:	d9c00d17 	ldw	r7,52(sp)
 800445c:	0009883a 	mov	r4,zero
 8004460:	014ff834 	movhi	r5,16352
 8004464:	800ad480 	call	800ad48 <__subdf3>
 8004468:	100d883a 	mov	r6,r2
 800446c:	180f883a 	mov	r7,r3
 8004470:	9009883a 	mov	r4,r18
 8004474:	800b883a 	mov	r5,r16
 8004478:	800a4780 	call	800a478 <__ledf2>
 800447c:	103cb70e 	bge	r2,zero,800375c <_dtoa_r+0x730>
 8004480:	00000106 	br	8004488 <_dtoa_r+0x145c>
 8004484:	182f883a 	mov	r23,r3
 8004488:	b8bfffc7 	ldb	r2,-1(r23)
 800448c:	b8ffffc4 	addi	r3,r23,-1
 8004490:	10800c20 	cmpeqi	r2,r2,48
 8004494:	103ffb1e 	bne	r2,zero,8004484 <_dtoa_r+0x1458>
 8004498:	003c7306 	br	8003668 <_dtoa_r+0x63c>
 800449c:	d8c01217 	ldw	r3,72(sp)
 80044a0:	d9000517 	ldw	r4,20(sp)
 80044a4:	00800d84 	movi	r2,54
 80044a8:	10c5c83a 	sub	r2,r2,r3
 80044ac:	a0a9883a 	add	r20,r20,r2
 80044b0:	2085883a 	add	r2,r4,r2
 80044b4:	2027883a 	mov	r19,r4
 80044b8:	dc800817 	ldw	r18,32(sp)
 80044bc:	d8800515 	stw	r2,20(sp)
 80044c0:	003d5c06 	br	8003a34 <_dtoa_r+0xa08>
 80044c4:	d8800617 	ldw	r2,24(sp)
 80044c8:	103f4726 	beq	r2,zero,80041e8 <_dtoa_r+0x11bc>
 80044cc:	ddc00b17 	ldw	r23,44(sp)
 80044d0:	05fca20e 	bge	zero,r23,800375c <_dtoa_r+0x730>
 80044d4:	980b883a 	mov	r5,r19
 80044d8:	000d883a 	mov	r6,zero
 80044dc:	01d00934 	movhi	r7,16420
 80044e0:	9009883a 	mov	r4,r18
 80044e4:	800a5680 	call	800a568 <__muldf3>
 80044e8:	81000044 	addi	r4,r16,1
 80044ec:	1025883a 	mov	r18,r2
 80044f0:	1827883a 	mov	r19,r3
 80044f4:	800b7880 	call	800b788 <__floatsidf>
 80044f8:	900d883a 	mov	r6,r18
 80044fc:	980f883a 	mov	r7,r19
 8004500:	1009883a 	mov	r4,r2
 8004504:	180b883a 	mov	r5,r3
 8004508:	800a5680 	call	800a568 <__muldf3>
 800450c:	000d883a 	mov	r6,zero
 8004510:	01d00734 	movhi	r7,16412
 8004514:	1009883a 	mov	r4,r2
 8004518:	180b883a 	mov	r5,r3
 800451c:	80090040 	call	8009004 <__adddf3>
 8004520:	d8800c15 	stw	r2,48(sp)
 8004524:	d8800417 	ldw	r2,16(sp)
 8004528:	ddc00e15 	stw	r23,56(sp)
 800452c:	10bfffc4 	addi	r2,r2,-1
 8004530:	d8800f15 	stw	r2,60(sp)
 8004534:	00bf3034 	movhi	r2,64704
 8004538:	1885883a 	add	r2,r3,r2
 800453c:	d8800d15 	stw	r2,52(sp)
 8004540:	003bd006 	br	8003484 <_dtoa_r+0x458>
 8004544:	d8800417 	ldw	r2,16(sp)
 8004548:	d9000117 	ldw	r4,4(sp)
 800454c:	880b883a 	mov	r5,r17
 8004550:	00afc83a 	sub	r23,zero,r2
 8004554:	b88003cc 	andi	r2,r23,15
 8004558:	100690fa 	slli	r3,r2,3
 800455c:	00820074 	movhi	r2,2049
 8004560:	10b73c04 	addi	r2,r2,-8976
 8004564:	10c5883a 	add	r2,r2,r3
 8004568:	11800017 	ldw	r6,0(r2)
 800456c:	11c00117 	ldw	r7,4(r2)
 8004570:	b82fd13a 	srai	r23,r23,4
 8004574:	800a5680 	call	800a568 <__muldf3>
 8004578:	1025883a 	mov	r18,r2
 800457c:	1827883a 	mov	r19,r3
 8004580:	b8004a26 	beq	r23,zero,80046ac <_dtoa_r+0x1680>
 8004584:	02020074 	movhi	r8,2049
 8004588:	04000084 	movi	r16,2
 800458c:	42373204 	addi	r8,r8,-9016
 8004590:	dc400c15 	stw	r17,48(sp)
 8004594:	000f883a 	mov	r7,zero
 8004598:	8023883a 	mov	r17,r16
 800459c:	4021883a 	mov	r16,r8
 80045a0:	b980004c 	andi	r6,r23,1
 80045a4:	1009883a 	mov	r4,r2
 80045a8:	b82fd07a 	srai	r23,r23,1
 80045ac:	180b883a 	mov	r5,r3
 80045b0:	30000526 	beq	r6,zero,80045c8 <_dtoa_r+0x159c>
 80045b4:	81c00117 	ldw	r7,4(r16)
 80045b8:	81800017 	ldw	r6,0(r16)
 80045bc:	8c400044 	addi	r17,r17,1
 80045c0:	800a5680 	call	800a568 <__muldf3>
 80045c4:	01c00044 	movi	r7,1
 80045c8:	84000204 	addi	r16,r16,8
 80045cc:	b83ff41e 	bne	r23,zero,80045a0 <_dtoa_r+0x1574>
 80045d0:	39c03fcc 	andi	r7,r7,255
 80045d4:	8821883a 	mov	r16,r17
 80045d8:	dc400c17 	ldw	r17,48(sp)
 80045dc:	383b8b26 	beq	r7,zero,800340c <_dtoa_r+0x3e0>
 80045e0:	1025883a 	mov	r18,r2
 80045e4:	1827883a 	mov	r19,r3
 80045e8:	003b8806 	br	800340c <_dtoa_r+0x3e0>
 80045ec:	d8800417 	ldw	r2,16(sp)
 80045f0:	02000c44 	movi	r8,49
 80045f4:	10800044 	addi	r2,r2,1
 80045f8:	d8800415 	stw	r2,16(sp)
 80045fc:	003cf606 	br	80039d8 <_dtoa_r+0x9ac>
 8004600:	00800e44 	movi	r2,57
 8004604:	8029883a 	mov	r20,r16
 8004608:	88800005 	stb	r2,0(r17)
 800460c:	9821883a 	mov	r16,r19
 8004610:	00c00e44 	movi	r3,57
 8004614:	d9400317 	ldw	r5,12(sp)
 8004618:	003d7706 	br	8003bf8 <_dtoa_r+0xbcc>
 800461c:	0025883a 	mov	r18,zero
 8004620:	0021883a 	mov	r16,zero
 8004624:	003e6706 	br	8003fc4 <_dtoa_r+0xf98>
 8004628:	d8800f17 	ldw	r2,60(sp)
 800462c:	ba3fffc3 	ldbu	r8,-1(r23)
 8004630:	d9000317 	ldw	r4,12(sp)
 8004634:	10800044 	addi	r2,r2,1
 8004638:	d8800415 	stw	r2,16(sp)
 800463c:	003cdf06 	br	80039bc <_dtoa_r+0x990>
 8004640:	103f2d1e 	bne	r2,zero,80042f8 <_dtoa_r+0x12cc>
 8004644:	4080004c 	andi	r2,r8,1
 8004648:	103f281e 	bne	r2,zero,80042ec <_dtoa_r+0x12c0>
 800464c:	003f2a06 	br	80042f8 <_dtoa_r+0x12cc>
 8004650:	d8800f17 	ldw	r2,60(sp)
 8004654:	8811883a 	mov	r8,r17
 8004658:	d9000317 	ldw	r4,12(sp)
 800465c:	10800044 	addi	r2,r2,1
 8004660:	d8800415 	stw	r2,16(sp)
 8004664:	003cd506 	br	80039bc <_dtoa_r+0x990>
 8004668:	40800e60 	cmpeqi	r2,r8,57
 800466c:	8dc00044 	addi	r23,r17,1
 8004670:	103fe31e 	bne	r2,zero,8004600 <_dtoa_r+0x15d4>
 8004674:	053f1f16 	blt	zero,r20,80042f4 <_dtoa_r+0x12c8>
 8004678:	003f1f06 	br	80042f8 <_dtoa_r+0x12cc>
 800467c:	d8800217 	ldw	r2,8(sp)
 8004680:	108000c8 	cmpgei	r2,r2,3
 8004684:	103e9326 	beq	r2,zero,80040d4 <_dtoa_r+0x10a8>
 8004688:	d8800b17 	ldw	r2,44(sp)
 800468c:	dd000415 	stw	r20,16(sp)
 8004690:	d8800615 	stw	r2,24(sp)
 8004694:	003e3f06 	br	8003f94 <_dtoa_r+0xf68>
 8004698:	d8800217 	ldw	r2,8(sp)
 800469c:	108000c8 	cmpgei	r2,r2,3
 80046a0:	103ff91e 	bne	r2,zero,8004688 <_dtoa_r+0x165c>
 80046a4:	d8800b17 	ldw	r2,44(sp)
 80046a8:	003de006 	br	8003e2c <_dtoa_r+0xe00>
 80046ac:	04000084 	movi	r16,2
 80046b0:	003b5606 	br	800340c <_dtoa_r+0x3e0>
 80046b4:	d8800f17 	ldw	r2,60(sp)
 80046b8:	d9000317 	ldw	r4,12(sp)
 80046bc:	10800044 	addi	r2,r2,1
 80046c0:	d8800415 	stw	r2,16(sp)
 80046c4:	003cbd06 	br	80039bc <_dtoa_r+0x990>
 80046c8:	00820074 	movhi	r2,2049
 80046cc:	10b72204 	addi	r2,r2,-9080
 80046d0:	d8800315 	stw	r2,12(sp)
 80046d4:	003a8706 	br	80030f4 <_dtoa_r+0xc8>
 80046d8:	000b883a 	mov	r5,zero
 80046dc:	003b1b06 	br	800334c <_dtoa_r+0x320>
 80046e0:	18c00120 	cmpeqi	r3,r3,4
 80046e4:	183d0f1e 	bne	r3,zero,8003b24 <_dtoa_r+0xaf8>
 80046e8:	00c00f04 	movi	r3,60
 80046ec:	1885c83a 	sub	r2,r3,r2
 80046f0:	003d0706 	br	8003b10 <_dtoa_r+0xae4>

080046f4 <__localeconv_l>:
 80046f4:	20803c04 	addi	r2,r4,240
 80046f8:	f800283a 	ret

080046fc <_localeconv_r>:
 80046fc:	00820074 	movhi	r2,2049
 8004700:	10bbc304 	addi	r2,r2,-4340
 8004704:	f800283a 	ret

08004708 <localeconv>:
 8004708:	00820074 	movhi	r2,2049
 800470c:	10bbc304 	addi	r2,r2,-4340
 8004710:	f800283a 	ret

08004714 <_malloc_r>:
 8004714:	defff604 	addi	sp,sp,-40
 8004718:	dc400115 	stw	r17,4(sp)
 800471c:	2c4002c4 	addi	r17,r5,11
 8004720:	dc800215 	stw	r18,8(sp)
 8004724:	dfc00915 	stw	ra,36(sp)
 8004728:	df000815 	stw	fp,32(sp)
 800472c:	ddc00715 	stw	r23,28(sp)
 8004730:	dd800615 	stw	r22,24(sp)
 8004734:	dd400515 	stw	r21,20(sp)
 8004738:	dd000415 	stw	r20,16(sp)
 800473c:	dcc00315 	stw	r19,12(sp)
 8004740:	dc000015 	stw	r16,0(sp)
 8004744:	888005e8 	cmpgeui	r2,r17,23
 8004748:	2025883a 	mov	r18,r4
 800474c:	10001b1e 	bne	r2,zero,80047bc <_malloc_r+0xa8>
 8004750:	29400468 	cmpgeui	r5,r5,17
 8004754:	2800951e 	bne	r5,zero,80049ac <_malloc_r+0x298>
 8004758:	800baa80 	call	800baa8 <__malloc_lock>
 800475c:	04400404 	movi	r17,16
 8004760:	00800604 	movi	r2,24
 8004764:	01800084 	movi	r6,2
 8004768:	04c20074 	movhi	r19,2049
 800476c:	9cfa8504 	addi	r19,r19,-5612
 8004770:	9885883a 	add	r2,r19,r2
 8004774:	14000117 	ldw	r16,4(r2)
 8004778:	10fffe04 	addi	r3,r2,-8
 800477c:	80c09e26 	beq	r16,r3,80049f8 <_malloc_r+0x2e4>
 8004780:	80800117 	ldw	r2,4(r16)
 8004784:	81000317 	ldw	r4,12(r16)
 8004788:	00ffff04 	movi	r3,-4
 800478c:	10c4703a 	and	r2,r2,r3
 8004790:	81400217 	ldw	r5,8(r16)
 8004794:	8085883a 	add	r2,r16,r2
 8004798:	10c00117 	ldw	r3,4(r2)
 800479c:	29000315 	stw	r4,12(r5)
 80047a0:	21400215 	stw	r5,8(r4)
 80047a4:	18c00054 	ori	r3,r3,1
 80047a8:	10c00115 	stw	r3,4(r2)
 80047ac:	9009883a 	mov	r4,r18
 80047b0:	800bacc0 	call	800bacc <__malloc_unlock>
 80047b4:	80800204 	addi	r2,r16,8
 80047b8:	00007f06 	br	80049b8 <_malloc_r+0x2a4>
 80047bc:	00bffe04 	movi	r2,-8
 80047c0:	88a2703a 	and	r17,r17,r2
 80047c4:	88007916 	blt	r17,zero,80049ac <_malloc_r+0x298>
 80047c8:	89407836 	bltu	r17,r5,80049ac <_malloc_r+0x298>
 80047cc:	800baa80 	call	800baa8 <__malloc_lock>
 80047d0:	88807e28 	cmpgeui	r2,r17,504
 80047d4:	10013326 	beq	r2,zero,8004ca4 <_malloc_r+0x590>
 80047d8:	8804d27a 	srli	r2,r17,9
 80047dc:	10008226 	beq	r2,zero,80049e8 <_malloc_r+0x2d4>
 80047e0:	10c00168 	cmpgeui	r3,r2,5
 80047e4:	1801151e 	bne	r3,zero,8004c3c <_malloc_r+0x528>
 80047e8:	8804d1ba 	srli	r2,r17,6
 80047ec:	11800e44 	addi	r6,r2,57
 80047f0:	300a90fa 	slli	r5,r6,3
 80047f4:	12000e04 	addi	r8,r2,56
 80047f8:	04c20074 	movhi	r19,2049
 80047fc:	9cfa8504 	addi	r19,r19,-5612
 8004800:	994b883a 	add	r5,r19,r5
 8004804:	2c000117 	ldw	r16,4(r5)
 8004808:	297ffe04 	addi	r5,r5,-8
 800480c:	2c001126 	beq	r5,r16,8004854 <_malloc_r+0x140>
 8004810:	80800117 	ldw	r2,4(r16)
 8004814:	00ffff04 	movi	r3,-4
 8004818:	10c4703a 	and	r2,r2,r3
 800481c:	1447c83a 	sub	r3,r2,r17
 8004820:	19000408 	cmpgei	r4,r3,16
 8004824:	2000e81e 	bne	r4,zero,8004bc8 <_malloc_r+0x4b4>
 8004828:	1800e90e 	bge	r3,zero,8004bd0 <_malloc_r+0x4bc>
 800482c:	01ffff04 	movi	r7,-4
 8004830:	00000606 	br	800484c <_malloc_r+0x138>
 8004834:	80800117 	ldw	r2,4(r16)
 8004838:	11c4703a 	and	r2,r2,r7
 800483c:	1447c83a 	sub	r3,r2,r17
 8004840:	19000408 	cmpgei	r4,r3,16
 8004844:	2000e01e 	bne	r4,zero,8004bc8 <_malloc_r+0x4b4>
 8004848:	1800e10e 	bge	r3,zero,8004bd0 <_malloc_r+0x4bc>
 800484c:	84000317 	ldw	r16,12(r16)
 8004850:	2c3ff81e 	bne	r5,r16,8004834 <_malloc_r+0x120>
 8004854:	9c000417 	ldw	r16,16(r19)
 8004858:	02020074 	movhi	r8,2049
 800485c:	423a8704 	addi	r8,r8,-5604
 8004860:	82006c26 	beq	r16,r8,8004a14 <_malloc_r+0x300>
 8004864:	80c00117 	ldw	r3,4(r16)
 8004868:	00bfff04 	movi	r2,-4
 800486c:	1884703a 	and	r2,r3,r2
 8004870:	1447c83a 	sub	r3,r2,r17
 8004874:	19000410 	cmplti	r4,r3,16
 8004878:	20011526 	beq	r4,zero,8004cd0 <_malloc_r+0x5bc>
 800487c:	9a000515 	stw	r8,20(r19)
 8004880:	9a000415 	stw	r8,16(r19)
 8004884:	18010a0e 	bge	r3,zero,8004cb0 <_malloc_r+0x59c>
 8004888:	10c08028 	cmpgeui	r3,r2,512
 800488c:	1800d21e 	bne	r3,zero,8004bd8 <_malloc_r+0x4c4>
 8004890:	1004d0fa 	srli	r2,r2,3
 8004894:	99400117 	ldw	r5,4(r19)
 8004898:	10c00044 	addi	r3,r2,1
 800489c:	1009d0ba 	srai	r4,r2,2
 80048a0:	180690fa 	slli	r3,r3,3
 80048a4:	00800044 	movi	r2,1
 80048a8:	1104983a 	sll	r2,r2,r4
 80048ac:	98c7883a 	add	r3,r19,r3
 80048b0:	19000017 	ldw	r4,0(r3)
 80048b4:	1144b03a 	or	r2,r2,r5
 80048b8:	197ffe04 	addi	r5,r3,-8
 80048bc:	81400315 	stw	r5,12(r16)
 80048c0:	81000215 	stw	r4,8(r16)
 80048c4:	98800115 	stw	r2,4(r19)
 80048c8:	1c000015 	stw	r16,0(r3)
 80048cc:	24000315 	stw	r16,12(r4)
 80048d0:	3007d0ba 	srai	r3,r6,2
 80048d4:	01000044 	movi	r4,1
 80048d8:	20c8983a 	sll	r4,r4,r3
 80048dc:	11005236 	bltu	r2,r4,8004a28 <_malloc_r+0x314>
 80048e0:	2086703a 	and	r3,r4,r2
 80048e4:	18000a1e 	bne	r3,zero,8004910 <_malloc_r+0x1fc>
 80048e8:	00ffff04 	movi	r3,-4
 80048ec:	2109883a 	add	r4,r4,r4
 80048f0:	30cc703a 	and	r6,r6,r3
 80048f4:	2086703a 	and	r3,r4,r2
 80048f8:	31800104 	addi	r6,r6,4
 80048fc:	1800041e 	bne	r3,zero,8004910 <_malloc_r+0x1fc>
 8004900:	2109883a 	add	r4,r4,r4
 8004904:	2086703a 	and	r3,r4,r2
 8004908:	31800104 	addi	r6,r6,4
 800490c:	183ffc26 	beq	r3,zero,8004900 <_malloc_r+0x1ec>
 8004910:	027fff04 	movi	r9,-4
 8004914:	301490fa 	slli	r10,r6,3
 8004918:	3017883a 	mov	r11,r6
 800491c:	9a95883a 	add	r10,r19,r10
 8004920:	500f883a 	mov	r7,r10
 8004924:	3c000317 	ldw	r16,12(r7)
 8004928:	3c00cd26 	beq	r7,r16,8004c60 <_malloc_r+0x54c>
 800492c:	80800117 	ldw	r2,4(r16)
 8004930:	1244703a 	and	r2,r2,r9
 8004934:	1447c83a 	sub	r3,r2,r17
 8004938:	19400408 	cmpgei	r5,r3,16
 800493c:	2800081e 	bne	r5,zero,8004960 <_malloc_r+0x24c>
 8004940:	1800cc0e 	bge	r3,zero,8004c74 <_malloc_r+0x560>
 8004944:	84000317 	ldw	r16,12(r16)
 8004948:	3c00c526 	beq	r7,r16,8004c60 <_malloc_r+0x54c>
 800494c:	80800117 	ldw	r2,4(r16)
 8004950:	1244703a 	and	r2,r2,r9
 8004954:	1447c83a 	sub	r3,r2,r17
 8004958:	19400410 	cmplti	r5,r3,16
 800495c:	283ff81e 	bne	r5,zero,8004940 <_malloc_r+0x22c>
 8004960:	81000317 	ldw	r4,12(r16)
 8004964:	81400217 	ldw	r5,8(r16)
 8004968:	89800054 	ori	r6,r17,1
 800496c:	81800115 	stw	r6,4(r16)
 8004970:	29000315 	stw	r4,12(r5)
 8004974:	21400215 	stw	r5,8(r4)
 8004978:	8463883a 	add	r17,r16,r17
 800497c:	9c400515 	stw	r17,20(r19)
 8004980:	9c400415 	stw	r17,16(r19)
 8004984:	19000054 	ori	r4,r3,1
 8004988:	89000115 	stw	r4,4(r17)
 800498c:	8085883a 	add	r2,r16,r2
 8004990:	8a000315 	stw	r8,12(r17)
 8004994:	8a000215 	stw	r8,8(r17)
 8004998:	10c00015 	stw	r3,0(r2)
 800499c:	9009883a 	mov	r4,r18
 80049a0:	800bacc0 	call	800bacc <__malloc_unlock>
 80049a4:	80800204 	addi	r2,r16,8
 80049a8:	00000306 	br	80049b8 <_malloc_r+0x2a4>
 80049ac:	00800304 	movi	r2,12
 80049b0:	90800015 	stw	r2,0(r18)
 80049b4:	0005883a 	mov	r2,zero
 80049b8:	dfc00917 	ldw	ra,36(sp)
 80049bc:	df000817 	ldw	fp,32(sp)
 80049c0:	ddc00717 	ldw	r23,28(sp)
 80049c4:	dd800617 	ldw	r22,24(sp)
 80049c8:	dd400517 	ldw	r21,20(sp)
 80049cc:	dd000417 	ldw	r20,16(sp)
 80049d0:	dcc00317 	ldw	r19,12(sp)
 80049d4:	dc800217 	ldw	r18,8(sp)
 80049d8:	dc400117 	ldw	r17,4(sp)
 80049dc:	dc000017 	ldw	r16,0(sp)
 80049e0:	dec00a04 	addi	sp,sp,40
 80049e4:	f800283a 	ret
 80049e8:	01408004 	movi	r5,512
 80049ec:	01801004 	movi	r6,64
 80049f0:	02000fc4 	movi	r8,63
 80049f4:	003f8006 	br	80047f8 <_malloc_r+0xe4>
 80049f8:	14000317 	ldw	r16,12(r2)
 80049fc:	31800084 	addi	r6,r6,2
 8004a00:	143f5f1e 	bne	r2,r16,8004780 <_malloc_r+0x6c>
 8004a04:	9c000417 	ldw	r16,16(r19)
 8004a08:	02020074 	movhi	r8,2049
 8004a0c:	423a8704 	addi	r8,r8,-5604
 8004a10:	823f941e 	bne	r16,r8,8004864 <_malloc_r+0x150>
 8004a14:	3007d0ba 	srai	r3,r6,2
 8004a18:	01000044 	movi	r4,1
 8004a1c:	98800117 	ldw	r2,4(r19)
 8004a20:	20c8983a 	sll	r4,r4,r3
 8004a24:	113fae2e 	bgeu	r2,r4,80048e0 <_malloc_r+0x1cc>
 8004a28:	9c000217 	ldw	r16,8(r19)
 8004a2c:	00bfff04 	movi	r2,-4
 8004a30:	85000117 	ldw	r20,4(r16)
 8004a34:	a0ac703a 	and	r22,r20,r2
 8004a38:	b4400336 	bltu	r22,r17,8004a48 <_malloc_r+0x334>
 8004a3c:	b445c83a 	sub	r2,r22,r17
 8004a40:	10c00408 	cmpgei	r3,r2,16
 8004a44:	1800561e 	bne	r3,zero,8004ba0 <_malloc_r+0x48c>
 8004a48:	00820074 	movhi	r2,2049
 8004a4c:	10806917 	ldw	r2,420(r2)
 8004a50:	00c20074 	movhi	r3,2049
 8004a54:	1d088417 	ldw	r20,8720(r3)
 8004a58:	10bfffd8 	cmpnei	r2,r2,-1
 8004a5c:	85ab883a 	add	r21,r16,r22
 8004a60:	8d29883a 	add	r20,r17,r20
 8004a64:	1000c826 	beq	r2,zero,8004d88 <_malloc_r+0x674>
 8004a68:	a50403c4 	addi	r20,r20,4111
 8004a6c:	00bc0004 	movi	r2,-4096
 8004a70:	a0a8703a 	and	r20,r20,r2
 8004a74:	a00b883a 	mov	r5,r20
 8004a78:	9009883a 	mov	r4,r18
 8004a7c:	80060a40 	call	80060a4 <_sbrk_r>
 8004a80:	102f883a 	mov	r23,r2
 8004a84:	10bfffd8 	cmpnei	r2,r2,-1
 8004a88:	10009a26 	beq	r2,zero,8004cf4 <_malloc_r+0x5e0>
 8004a8c:	bd409836 	bltu	r23,r21,8004cf0 <_malloc_r+0x5dc>
 8004a90:	00820074 	movhi	r2,2049
 8004a94:	10888e17 	ldw	r2,8760(r2)
 8004a98:	00c20074 	movhi	r3,2049
 8004a9c:	a085883a 	add	r2,r20,r2
 8004aa0:	18888e15 	stw	r2,8760(r3)
 8004aa4:	1007883a 	mov	r3,r2
 8004aa8:	adc0dd26 	beq	r21,r23,8004e20 <_malloc_r+0x70c>
 8004aac:	00820074 	movhi	r2,2049
 8004ab0:	10806917 	ldw	r2,420(r2)
 8004ab4:	10bfffd8 	cmpnei	r2,r2,-1
 8004ab8:	1000e026 	beq	r2,zero,8004e3c <_malloc_r+0x728>
 8004abc:	bd6bc83a 	sub	r21,r23,r21
 8004ac0:	a8c7883a 	add	r3,r21,r3
 8004ac4:	00820074 	movhi	r2,2049
 8004ac8:	10c88e15 	stw	r3,8760(r2)
 8004acc:	bf0001cc 	andi	fp,r23,7
 8004ad0:	e000b626 	beq	fp,zero,8004dac <_malloc_r+0x698>
 8004ad4:	bf2fc83a 	sub	r23,r23,fp
 8004ad8:	bdc00204 	addi	r23,r23,8
 8004adc:	00840204 	movi	r2,4104
 8004ae0:	1705c83a 	sub	r2,r2,fp
 8004ae4:	bd29883a 	add	r20,r23,r20
 8004ae8:	1505c83a 	sub	r2,r2,r20
 8004aec:	1543ffcc 	andi	r21,r2,4095
 8004af0:	a80b883a 	mov	r5,r21
 8004af4:	9009883a 	mov	r4,r18
 8004af8:	80060a40 	call	80060a4 <_sbrk_r>
 8004afc:	10ffffe0 	cmpeqi	r3,r2,-1
 8004b00:	1800e41e 	bne	r3,zero,8004e94 <_malloc_r+0x780>
 8004b04:	15c5c83a 	sub	r2,r2,r23
 8004b08:	1569883a 	add	r20,r2,r21
 8004b0c:	00820074 	movhi	r2,2049
 8004b10:	10888e17 	ldw	r2,8760(r2)
 8004b14:	9dc00215 	stw	r23,8(r19)
 8004b18:	a5000054 	ori	r20,r20,1
 8004b1c:	a885883a 	add	r2,r21,r2
 8004b20:	00c20074 	movhi	r3,2049
 8004b24:	18888e15 	stw	r2,8760(r3)
 8004b28:	bd000115 	stw	r20,4(r23)
 8004b2c:	84c0c626 	beq	r16,r19,8004e48 <_malloc_r+0x734>
 8004b30:	b0c00428 	cmpgeui	r3,r22,16
 8004b34:	1800c626 	beq	r3,zero,8004e50 <_malloc_r+0x73c>
 8004b38:	81000117 	ldw	r4,4(r16)
 8004b3c:	017ffe04 	movi	r5,-8
 8004b40:	b0fffd04 	addi	r3,r22,-12
 8004b44:	1946703a 	and	r3,r3,r5
 8004b48:	2100004c 	andi	r4,r4,1
 8004b4c:	20c8b03a 	or	r4,r4,r3
 8004b50:	81000115 	stw	r4,4(r16)
 8004b54:	01400144 	movi	r5,5
 8004b58:	80c9883a 	add	r4,r16,r3
 8004b5c:	21400115 	stw	r5,4(r4)
 8004b60:	21400215 	stw	r5,8(r4)
 8004b64:	18c00428 	cmpgeui	r3,r3,16
 8004b68:	1800cf1e 	bne	r3,zero,8004ea8 <_malloc_r+0x794>
 8004b6c:	bd000117 	ldw	r20,4(r23)
 8004b70:	b821883a 	mov	r16,r23
 8004b74:	00c20074 	movhi	r3,2049
 8004b78:	18c88317 	ldw	r3,8716(r3)
 8004b7c:	1880022e 	bgeu	r3,r2,8004b88 <_malloc_r+0x474>
 8004b80:	00c20074 	movhi	r3,2049
 8004b84:	18888315 	stw	r2,8716(r3)
 8004b88:	00c20074 	movhi	r3,2049
 8004b8c:	18c88217 	ldw	r3,8712(r3)
 8004b90:	18805a2e 	bgeu	r3,r2,8004cfc <_malloc_r+0x5e8>
 8004b94:	00c20074 	movhi	r3,2049
 8004b98:	18888215 	stw	r2,8712(r3)
 8004b9c:	00005706 	br	8004cfc <_malloc_r+0x5e8>
 8004ba0:	88c00054 	ori	r3,r17,1
 8004ba4:	80c00115 	stw	r3,4(r16)
 8004ba8:	8463883a 	add	r17,r16,r17
 8004bac:	10800054 	ori	r2,r2,1
 8004bb0:	9c400215 	stw	r17,8(r19)
 8004bb4:	88800115 	stw	r2,4(r17)
 8004bb8:	9009883a 	mov	r4,r18
 8004bbc:	800bacc0 	call	800bacc <__malloc_unlock>
 8004bc0:	80800204 	addi	r2,r16,8
 8004bc4:	003f7c06 	br	80049b8 <_malloc_r+0x2a4>
 8004bc8:	400d883a 	mov	r6,r8
 8004bcc:	003f2106 	br	8004854 <_malloc_r+0x140>
 8004bd0:	81000317 	ldw	r4,12(r16)
 8004bd4:	003eee06 	br	8004790 <_malloc_r+0x7c>
 8004bd8:	1006d27a 	srli	r3,r2,9
 8004bdc:	19000168 	cmpgeui	r4,r3,5
 8004be0:	20003e26 	beq	r4,zero,8004cdc <_malloc_r+0x5c8>
 8004be4:	19000568 	cmpgeui	r4,r3,21
 8004be8:	20007a1e 	bne	r4,zero,8004dd4 <_malloc_r+0x6c0>
 8004bec:	19401704 	addi	r5,r3,92
 8004bf0:	280a90fa 	slli	r5,r5,3
 8004bf4:	190016c4 	addi	r4,r3,91
 8004bf8:	994b883a 	add	r5,r19,r5
 8004bfc:	28c00017 	ldw	r3,0(r5)
 8004c00:	297ffe04 	addi	r5,r5,-8
 8004c04:	28c06226 	beq	r5,r3,8004d90 <_malloc_r+0x67c>
 8004c08:	01ffff04 	movi	r7,-4
 8004c0c:	19000117 	ldw	r4,4(r3)
 8004c10:	21c8703a 	and	r4,r4,r7
 8004c14:	1100022e 	bgeu	r2,r4,8004c20 <_malloc_r+0x50c>
 8004c18:	18c00217 	ldw	r3,8(r3)
 8004c1c:	28fffb1e 	bne	r5,r3,8004c0c <_malloc_r+0x4f8>
 8004c20:	19400317 	ldw	r5,12(r3)
 8004c24:	98800117 	ldw	r2,4(r19)
 8004c28:	81400315 	stw	r5,12(r16)
 8004c2c:	80c00215 	stw	r3,8(r16)
 8004c30:	2c000215 	stw	r16,8(r5)
 8004c34:	1c000315 	stw	r16,12(r3)
 8004c38:	003f2506 	br	80048d0 <_malloc_r+0x1bc>
 8004c3c:	10c00568 	cmpgeui	r3,r2,21
 8004c40:	18003826 	beq	r3,zero,8004d24 <_malloc_r+0x610>
 8004c44:	10c01568 	cmpgeui	r3,r2,85
 8004c48:	1800691e 	bne	r3,zero,8004df0 <_malloc_r+0x6dc>
 8004c4c:	8804d33a 	srli	r2,r17,12
 8004c50:	11801bc4 	addi	r6,r2,111
 8004c54:	12001b84 	addi	r8,r2,110
 8004c58:	300a90fa 	slli	r5,r6,3
 8004c5c:	003ee606 	br	80047f8 <_malloc_r+0xe4>
 8004c60:	5ac00044 	addi	r11,r11,1
 8004c64:	588000cc 	andi	r2,r11,3
 8004c68:	39c00204 	addi	r7,r7,8
 8004c6c:	103f2d1e 	bne	r2,zero,8004924 <_malloc_r+0x210>
 8004c70:	00003306 	br	8004d40 <_malloc_r+0x62c>
 8004c74:	8085883a 	add	r2,r16,r2
 8004c78:	10c00117 	ldw	r3,4(r2)
 8004c7c:	81000317 	ldw	r4,12(r16)
 8004c80:	81400217 	ldw	r5,8(r16)
 8004c84:	18c00054 	ori	r3,r3,1
 8004c88:	10c00115 	stw	r3,4(r2)
 8004c8c:	29000315 	stw	r4,12(r5)
 8004c90:	21400215 	stw	r5,8(r4)
 8004c94:	9009883a 	mov	r4,r18
 8004c98:	800bacc0 	call	800bacc <__malloc_unlock>
 8004c9c:	80800204 	addi	r2,r16,8
 8004ca0:	003f4506 	br	80049b8 <_malloc_r+0x2a4>
 8004ca4:	880cd0fa 	srli	r6,r17,3
 8004ca8:	88800204 	addi	r2,r17,8
 8004cac:	003eae06 	br	8004768 <_malloc_r+0x54>
 8004cb0:	8085883a 	add	r2,r16,r2
 8004cb4:	10c00117 	ldw	r3,4(r2)
 8004cb8:	9009883a 	mov	r4,r18
 8004cbc:	18c00054 	ori	r3,r3,1
 8004cc0:	10c00115 	stw	r3,4(r2)
 8004cc4:	800bacc0 	call	800bacc <__malloc_unlock>
 8004cc8:	80800204 	addi	r2,r16,8
 8004ccc:	003f3a06 	br	80049b8 <_malloc_r+0x2a4>
 8004cd0:	89000054 	ori	r4,r17,1
 8004cd4:	81000115 	stw	r4,4(r16)
 8004cd8:	003f2706 	br	8004978 <_malloc_r+0x264>
 8004cdc:	1006d1ba 	srli	r3,r2,6
 8004ce0:	19400e44 	addi	r5,r3,57
 8004ce4:	19000e04 	addi	r4,r3,56
 8004ce8:	280a90fa 	slli	r5,r5,3
 8004cec:	003fc206 	br	8004bf8 <_malloc_r+0x4e4>
 8004cf0:	84c04626 	beq	r16,r19,8004e0c <_malloc_r+0x6f8>
 8004cf4:	9c000217 	ldw	r16,8(r19)
 8004cf8:	85000117 	ldw	r20,4(r16)
 8004cfc:	00bfff04 	movi	r2,-4
 8004d00:	a0a8703a 	and	r20,r20,r2
 8004d04:	a445c83a 	sub	r2,r20,r17
 8004d08:	a4400236 	bltu	r20,r17,8004d14 <_malloc_r+0x600>
 8004d0c:	10c00408 	cmpgei	r3,r2,16
 8004d10:	183fa31e 	bne	r3,zero,8004ba0 <_malloc_r+0x48c>
 8004d14:	9009883a 	mov	r4,r18
 8004d18:	800bacc0 	call	800bacc <__malloc_unlock>
 8004d1c:	0005883a 	mov	r2,zero
 8004d20:	003f2506 	br	80049b8 <_malloc_r+0x2a4>
 8004d24:	11801704 	addi	r6,r2,92
 8004d28:	120016c4 	addi	r8,r2,91
 8004d2c:	300a90fa 	slli	r5,r6,3
 8004d30:	003eb106 	br	80047f8 <_malloc_r+0xe4>
 8004d34:	50800217 	ldw	r2,8(r10)
 8004d38:	31bfffc4 	addi	r6,r6,-1
 8004d3c:	1280701e 	bne	r2,r10,8004f00 <_malloc_r+0x7ec>
 8004d40:	308000cc 	andi	r2,r6,3
 8004d44:	52bffe04 	addi	r10,r10,-8
 8004d48:	103ffa1e 	bne	r2,zero,8004d34 <_malloc_r+0x620>
 8004d4c:	98c00117 	ldw	r3,4(r19)
 8004d50:	0104303a 	nor	r2,zero,r4
 8004d54:	10c4703a 	and	r2,r2,r3
 8004d58:	98800115 	stw	r2,4(r19)
 8004d5c:	2109883a 	add	r4,r4,r4
 8004d60:	113f3136 	bltu	r2,r4,8004a28 <_malloc_r+0x314>
 8004d64:	203f3026 	beq	r4,zero,8004a28 <_malloc_r+0x314>
 8004d68:	2086703a 	and	r3,r4,r2
 8004d6c:	1800041e 	bne	r3,zero,8004d80 <_malloc_r+0x66c>
 8004d70:	2109883a 	add	r4,r4,r4
 8004d74:	2086703a 	and	r3,r4,r2
 8004d78:	5ac00104 	addi	r11,r11,4
 8004d7c:	183ffc26 	beq	r3,zero,8004d70 <_malloc_r+0x65c>
 8004d80:	580d883a 	mov	r6,r11
 8004d84:	003ee306 	br	8004914 <_malloc_r+0x200>
 8004d88:	a5000404 	addi	r20,r20,16
 8004d8c:	003f3906 	br	8004a74 <_malloc_r+0x360>
 8004d90:	2009d0ba 	srai	r4,r4,2
 8004d94:	00800044 	movi	r2,1
 8004d98:	99c00117 	ldw	r7,4(r19)
 8004d9c:	1104983a 	sll	r2,r2,r4
 8004da0:	11c4b03a 	or	r2,r2,r7
 8004da4:	98800115 	stw	r2,4(r19)
 8004da8:	003f9f06 	br	8004c28 <_malloc_r+0x514>
 8004dac:	bd05883a 	add	r2,r23,r20
 8004db0:	0085c83a 	sub	r2,zero,r2
 8004db4:	1543ffcc 	andi	r21,r2,4095
 8004db8:	a80b883a 	mov	r5,r21
 8004dbc:	9009883a 	mov	r4,r18
 8004dc0:	80060a40 	call	80060a4 <_sbrk_r>
 8004dc4:	10ffffe0 	cmpeqi	r3,r2,-1
 8004dc8:	183f4e26 	beq	r3,zero,8004b04 <_malloc_r+0x3f0>
 8004dcc:	002b883a 	mov	r21,zero
 8004dd0:	003f4e06 	br	8004b0c <_malloc_r+0x3f8>
 8004dd4:	19001568 	cmpgeui	r4,r3,85
 8004dd8:	2000201e 	bne	r4,zero,8004e5c <_malloc_r+0x748>
 8004ddc:	1006d33a 	srli	r3,r2,12
 8004de0:	19401bc4 	addi	r5,r3,111
 8004de4:	19001b84 	addi	r4,r3,110
 8004de8:	280a90fa 	slli	r5,r5,3
 8004dec:	003f8206 	br	8004bf8 <_malloc_r+0x4e4>
 8004df0:	10c05568 	cmpgeui	r3,r2,341
 8004df4:	1800201e 	bne	r3,zero,8004e78 <_malloc_r+0x764>
 8004df8:	8804d3fa 	srli	r2,r17,15
 8004dfc:	11801e04 	addi	r6,r2,120
 8004e00:	12001dc4 	addi	r8,r2,119
 8004e04:	300a90fa 	slli	r5,r6,3
 8004e08:	003e7b06 	br	80047f8 <_malloc_r+0xe4>
 8004e0c:	00820074 	movhi	r2,2049
 8004e10:	10c88e17 	ldw	r3,8760(r2)
 8004e14:	a0c7883a 	add	r3,r20,r3
 8004e18:	10c88e15 	stw	r3,8760(r2)
 8004e1c:	003f2306 	br	8004aac <_malloc_r+0x398>
 8004e20:	a903ffcc 	andi	r4,r21,4095
 8004e24:	203f211e 	bne	r4,zero,8004aac <_malloc_r+0x398>
 8004e28:	9c000217 	ldw	r16,8(r19)
 8004e2c:	b529883a 	add	r20,r22,r20
 8004e30:	a5000054 	ori	r20,r20,1
 8004e34:	85000115 	stw	r20,4(r16)
 8004e38:	003f4e06 	br	8004b74 <_malloc_r+0x460>
 8004e3c:	00820074 	movhi	r2,2049
 8004e40:	15c06915 	stw	r23,420(r2)
 8004e44:	003f2106 	br	8004acc <_malloc_r+0x3b8>
 8004e48:	b821883a 	mov	r16,r23
 8004e4c:	003f4906 	br	8004b74 <_malloc_r+0x460>
 8004e50:	00800044 	movi	r2,1
 8004e54:	b8800115 	stw	r2,4(r23)
 8004e58:	003fae06 	br	8004d14 <_malloc_r+0x600>
 8004e5c:	19005568 	cmpgeui	r4,r3,341
 8004e60:	2000191e 	bne	r4,zero,8004ec8 <_malloc_r+0x7b4>
 8004e64:	1006d3fa 	srli	r3,r2,15
 8004e68:	19401e04 	addi	r5,r3,120
 8004e6c:	19001dc4 	addi	r4,r3,119
 8004e70:	280a90fa 	slli	r5,r5,3
 8004e74:	003f6006 	br	8004bf8 <_malloc_r+0x4e4>
 8004e78:	10815568 	cmpgeui	r2,r2,1365
 8004e7c:	1000191e 	bne	r2,zero,8004ee4 <_malloc_r+0x7d0>
 8004e80:	8804d4ba 	srli	r2,r17,18
 8004e84:	11801f44 	addi	r6,r2,125
 8004e88:	12001f04 	addi	r8,r2,124
 8004e8c:	300a90fa 	slli	r5,r6,3
 8004e90:	003e5906 	br	80047f8 <_malloc_r+0xe4>
 8004e94:	e73ffe04 	addi	fp,fp,-8
 8004e98:	a729883a 	add	r20,r20,fp
 8004e9c:	a5e9c83a 	sub	r20,r20,r23
 8004ea0:	002b883a 	mov	r21,zero
 8004ea4:	003f1906 	br	8004b0c <_malloc_r+0x3f8>
 8004ea8:	81400204 	addi	r5,r16,8
 8004eac:	9009883a 	mov	r4,r18
 8004eb0:	80075e00 	call	80075e0 <_free_r>
 8004eb4:	9c000217 	ldw	r16,8(r19)
 8004eb8:	00820074 	movhi	r2,2049
 8004ebc:	10888e17 	ldw	r2,8760(r2)
 8004ec0:	85000117 	ldw	r20,4(r16)
 8004ec4:	003f2b06 	br	8004b74 <_malloc_r+0x460>
 8004ec8:	18c15568 	cmpgeui	r3,r3,1365
 8004ecc:	1800091e 	bne	r3,zero,8004ef4 <_malloc_r+0x7e0>
 8004ed0:	1006d4ba 	srli	r3,r2,18
 8004ed4:	19401f44 	addi	r5,r3,125
 8004ed8:	19001f04 	addi	r4,r3,124
 8004edc:	280a90fa 	slli	r5,r5,3
 8004ee0:	003f4506 	br	8004bf8 <_malloc_r+0x4e4>
 8004ee4:	0140fe04 	movi	r5,1016
 8004ee8:	01801fc4 	movi	r6,127
 8004eec:	02001f84 	movi	r8,126
 8004ef0:	003e4106 	br	80047f8 <_malloc_r+0xe4>
 8004ef4:	0140fe04 	movi	r5,1016
 8004ef8:	01001f84 	movi	r4,126
 8004efc:	003f3e06 	br	8004bf8 <_malloc_r+0x4e4>
 8004f00:	98800117 	ldw	r2,4(r19)
 8004f04:	003f9506 	br	8004d5c <_malloc_r+0x648>

08004f08 <memchr>:
 8004f08:	208000cc 	andi	r2,r4,3
 8004f0c:	280f883a 	mov	r7,r5
 8004f10:	10003526 	beq	r2,zero,8004fe8 <memchr+0xe0>
 8004f14:	30bfffc4 	addi	r2,r6,-1
 8004f18:	30001926 	beq	r6,zero,8004f80 <memchr+0x78>
 8004f1c:	20c00003 	ldbu	r3,0(r4)
 8004f20:	29803fcc 	andi	r6,r5,255
 8004f24:	30c0061e 	bne	r6,r3,8004f40 <memchr+0x38>
 8004f28:	00001706 	br	8004f88 <memchr+0x80>
 8004f2c:	10bfffc4 	addi	r2,r2,-1
 8004f30:	10ffffe0 	cmpeqi	r3,r2,-1
 8004f34:	1800121e 	bne	r3,zero,8004f80 <memchr+0x78>
 8004f38:	20c00003 	ldbu	r3,0(r4)
 8004f3c:	19801226 	beq	r3,r6,8004f88 <memchr+0x80>
 8004f40:	21000044 	addi	r4,r4,1
 8004f44:	20c000cc 	andi	r3,r4,3
 8004f48:	183ff81e 	bne	r3,zero,8004f2c <memchr+0x24>
 8004f4c:	10c00128 	cmpgeui	r3,r2,4
 8004f50:	18000f1e 	bne	r3,zero,8004f90 <memchr+0x88>
 8004f54:	10000a26 	beq	r2,zero,8004f80 <memchr+0x78>
 8004f58:	20c00003 	ldbu	r3,0(r4)
 8004f5c:	29403fcc 	andi	r5,r5,255
 8004f60:	19400926 	beq	r3,r5,8004f88 <memchr+0x80>
 8004f64:	2085883a 	add	r2,r4,r2
 8004f68:	39403fcc 	andi	r5,r7,255
 8004f6c:	00000206 	br	8004f78 <memchr+0x70>
 8004f70:	20c00003 	ldbu	r3,0(r4)
 8004f74:	19400426 	beq	r3,r5,8004f88 <memchr+0x80>
 8004f78:	21000044 	addi	r4,r4,1
 8004f7c:	113ffc1e 	bne	r2,r4,8004f70 <memchr+0x68>
 8004f80:	0005883a 	mov	r2,zero
 8004f84:	f800283a 	ret
 8004f88:	2005883a 	mov	r2,r4
 8004f8c:	f800283a 	ret
 8004f90:	280c923a 	slli	r6,r5,8
 8004f94:	2a403fcc 	andi	r9,r5,255
 8004f98:	02bfbff4 	movhi	r10,65279
 8004f9c:	31bfffcc 	andi	r6,r6,65535
 8004fa0:	3246b03a 	or	r3,r6,r9
 8004fa4:	1812943a 	slli	r9,r3,16
 8004fa8:	02202074 	movhi	r8,32897
 8004fac:	52bfbfc4 	addi	r10,r10,-257
 8004fb0:	48d2b03a 	or	r9,r9,r3
 8004fb4:	42202004 	addi	r8,r8,-32640
 8004fb8:	20c00017 	ldw	r3,0(r4)
 8004fbc:	48c6f03a 	xor	r3,r9,r3
 8004fc0:	1a8d883a 	add	r6,r3,r10
 8004fc4:	00c6303a 	nor	r3,zero,r3
 8004fc8:	30c6703a 	and	r3,r6,r3
 8004fcc:	1a06703a 	and	r3,r3,r8
 8004fd0:	183fe11e 	bne	r3,zero,8004f58 <memchr+0x50>
 8004fd4:	10bfff04 	addi	r2,r2,-4
 8004fd8:	10c00128 	cmpgeui	r3,r2,4
 8004fdc:	21000104 	addi	r4,r4,4
 8004fe0:	183ff51e 	bne	r3,zero,8004fb8 <memchr+0xb0>
 8004fe4:	003fdb06 	br	8004f54 <memchr+0x4c>
 8004fe8:	3005883a 	mov	r2,r6
 8004fec:	003fd706 	br	8004f4c <memchr+0x44>

08004ff0 <memcpy>:
 8004ff0:	30c00430 	cmpltui	r3,r6,16
 8004ff4:	2005883a 	mov	r2,r4
 8004ff8:	18002d1e 	bne	r3,zero,80050b0 <memcpy+0xc0>
 8004ffc:	2906b03a 	or	r3,r5,r4
 8005000:	18c000cc 	andi	r3,r3,3
 8005004:	1800351e 	bne	r3,zero,80050dc <memcpy+0xec>
 8005008:	32fffc04 	addi	r11,r6,-16
 800500c:	5816d13a 	srli	r11,r11,4
 8005010:	2007883a 	mov	r3,r4
 8005014:	280f883a 	mov	r7,r5
 8005018:	5ac00044 	addi	r11,r11,1
 800501c:	5816913a 	slli	r11,r11,4
 8005020:	22c9883a 	add	r4,r4,r11
 8005024:	3a000017 	ldw	r8,0(r7)
 8005028:	3a800117 	ldw	r10,4(r7)
 800502c:	3a400217 	ldw	r9,8(r7)
 8005030:	39c00404 	addi	r7,r7,16
 8005034:	1a000015 	stw	r8,0(r3)
 8005038:	3a3fff17 	ldw	r8,-4(r7)
 800503c:	1a800115 	stw	r10,4(r3)
 8005040:	1a400215 	stw	r9,8(r3)
 8005044:	18c00404 	addi	r3,r3,16
 8005048:	1a3fff15 	stw	r8,-4(r3)
 800504c:	20fff51e 	bne	r4,r3,8005024 <memcpy+0x34>
 8005050:	3100030c 	andi	r4,r6,12
 8005054:	2acb883a 	add	r5,r5,r11
 8005058:	320003cc 	andi	r8,r6,15
 800505c:	20002226 	beq	r4,zero,80050e8 <memcpy+0xf8>
 8005060:	2809883a 	mov	r4,r5
 8005064:	1813883a 	mov	r9,r3
 8005068:	21000104 	addi	r4,r4,4
 800506c:	22bfff17 	ldw	r10,-4(r4)
 8005070:	410fc83a 	sub	r7,r8,r4
 8005074:	4a400104 	addi	r9,r9,4
 8005078:	29cf883a 	add	r7,r5,r7
 800507c:	4abfff15 	stw	r10,-4(r9)
 8005080:	39c00128 	cmpgeui	r7,r7,4
 8005084:	383ff81e 	bne	r7,zero,8005068 <memcpy+0x78>
 8005088:	413fff04 	addi	r4,r8,-4
 800508c:	2008d0ba 	srli	r4,r4,2
 8005090:	318000cc 	andi	r6,r6,3
 8005094:	31ffffc4 	addi	r7,r6,-1
 8005098:	21000044 	addi	r4,r4,1
 800509c:	200890ba 	slli	r4,r4,2
 80050a0:	1907883a 	add	r3,r3,r4
 80050a4:	290b883a 	add	r5,r5,r4
 80050a8:	3000041e 	bne	r6,zero,80050bc <memcpy+0xcc>
 80050ac:	f800283a 	ret
 80050b0:	2007883a 	mov	r3,r4
 80050b4:	31ffffc4 	addi	r7,r6,-1
 80050b8:	303ffc26 	beq	r6,zero,80050ac <memcpy+0xbc>
 80050bc:	39c00044 	addi	r7,r7,1
 80050c0:	19cf883a 	add	r7,r3,r7
 80050c4:	29400044 	addi	r5,r5,1
 80050c8:	29bfffc3 	ldbu	r6,-1(r5)
 80050cc:	18c00044 	addi	r3,r3,1
 80050d0:	19bfffc5 	stb	r6,-1(r3)
 80050d4:	19fffb1e 	bne	r3,r7,80050c4 <memcpy+0xd4>
 80050d8:	f800283a 	ret
 80050dc:	31ffffc4 	addi	r7,r6,-1
 80050e0:	2007883a 	mov	r3,r4
 80050e4:	003ff506 	br	80050bc <memcpy+0xcc>
 80050e8:	400d883a 	mov	r6,r8
 80050ec:	003ff106 	br	80050b4 <memcpy+0xc4>

080050f0 <_Balloc>:
 80050f0:	20801317 	ldw	r2,76(r4)
 80050f4:	defffc04 	addi	sp,sp,-16
 80050f8:	dc400115 	stw	r17,4(sp)
 80050fc:	dc000015 	stw	r16,0(sp)
 8005100:	dfc00315 	stw	ra,12(sp)
 8005104:	dc800215 	stw	r18,8(sp)
 8005108:	2021883a 	mov	r16,r4
 800510c:	2823883a 	mov	r17,r5
 8005110:	10000e26 	beq	r2,zero,800514c <_Balloc+0x5c>
 8005114:	880690ba 	slli	r3,r17,2
 8005118:	10c7883a 	add	r3,r2,r3
 800511c:	18800017 	ldw	r2,0(r3)
 8005120:	10001126 	beq	r2,zero,8005168 <_Balloc+0x78>
 8005124:	11000017 	ldw	r4,0(r2)
 8005128:	19000015 	stw	r4,0(r3)
 800512c:	10000415 	stw	zero,16(r2)
 8005130:	10000315 	stw	zero,12(r2)
 8005134:	dfc00317 	ldw	ra,12(sp)
 8005138:	dc800217 	ldw	r18,8(sp)
 800513c:	dc400117 	ldw	r17,4(sp)
 8005140:	dc000017 	ldw	r16,0(sp)
 8005144:	dec00404 	addi	sp,sp,16
 8005148:	f800283a 	ret
 800514c:	01800844 	movi	r6,33
 8005150:	01400104 	movi	r5,4
 8005154:	80073f80 	call	80073f8 <_calloc_r>
 8005158:	80801315 	stw	r2,76(r16)
 800515c:	103fed1e 	bne	r2,zero,8005114 <_Balloc+0x24>
 8005160:	0005883a 	mov	r2,zero
 8005164:	003ff306 	br	8005134 <_Balloc+0x44>
 8005168:	04800044 	movi	r18,1
 800516c:	9464983a 	sll	r18,r18,r17
 8005170:	01400044 	movi	r5,1
 8005174:	8009883a 	mov	r4,r16
 8005178:	91800144 	addi	r6,r18,5
 800517c:	300c90ba 	slli	r6,r6,2
 8005180:	80073f80 	call	80073f8 <_calloc_r>
 8005184:	103ff626 	beq	r2,zero,8005160 <_Balloc+0x70>
 8005188:	14400115 	stw	r17,4(r2)
 800518c:	14800215 	stw	r18,8(r2)
 8005190:	003fe606 	br	800512c <_Balloc+0x3c>

08005194 <_Bfree>:
 8005194:	28000726 	beq	r5,zero,80051b4 <_Bfree+0x20>
 8005198:	28c00117 	ldw	r3,4(r5)
 800519c:	20801317 	ldw	r2,76(r4)
 80051a0:	180690ba 	slli	r3,r3,2
 80051a4:	10c5883a 	add	r2,r2,r3
 80051a8:	10c00017 	ldw	r3,0(r2)
 80051ac:	28c00015 	stw	r3,0(r5)
 80051b0:	11400015 	stw	r5,0(r2)
 80051b4:	f800283a 	ret

080051b8 <__multadd>:
 80051b8:	defff704 	addi	sp,sp,-36
 80051bc:	dcc00315 	stw	r19,12(sp)
 80051c0:	2cc00417 	ldw	r19,16(r5)
 80051c4:	ddc00715 	stw	r23,28(sp)
 80051c8:	dd800615 	stw	r22,24(sp)
 80051cc:	dd400515 	stw	r21,20(sp)
 80051d0:	dd000415 	stw	r20,16(sp)
 80051d4:	dc800215 	stw	r18,8(sp)
 80051d8:	dc400115 	stw	r17,4(sp)
 80051dc:	dfc00815 	stw	ra,32(sp)
 80051e0:	dc000015 	stw	r16,0(sp)
 80051e4:	2829883a 	mov	r20,r5
 80051e8:	202b883a 	mov	r21,r4
 80051ec:	3025883a 	mov	r18,r6
 80051f0:	3823883a 	mov	r17,r7
 80051f4:	2d800504 	addi	r22,r5,20
 80051f8:	002f883a 	mov	r23,zero
 80051fc:	b4000017 	ldw	r16,0(r22)
 8005200:	900b883a 	mov	r5,r18
 8005204:	b5800104 	addi	r22,r22,4
 8005208:	813fffcc 	andi	r4,r16,65535
 800520c:	8000acc0 	call	8000acc <__mulsi3>
 8005210:	8008d43a 	srli	r4,r16,16
 8005214:	900b883a 	mov	r5,r18
 8005218:	1461883a 	add	r16,r2,r17
 800521c:	8000acc0 	call	8000acc <__mulsi3>
 8005220:	800ed43a 	srli	r7,r16,16
 8005224:	843fffcc 	andi	r16,r16,65535
 8005228:	bdc00044 	addi	r23,r23,1
 800522c:	11c5883a 	add	r2,r2,r7
 8005230:	1006943a 	slli	r3,r2,16
 8005234:	1022d43a 	srli	r17,r2,16
 8005238:	1c21883a 	add	r16,r3,r16
 800523c:	b43fff15 	stw	r16,-4(r22)
 8005240:	bcffee16 	blt	r23,r19,80051fc <__multadd+0x44>
 8005244:	88000826 	beq	r17,zero,8005268 <__multadd+0xb0>
 8005248:	a0800217 	ldw	r2,8(r20)
 800524c:	9880120e 	bge	r19,r2,8005298 <__multadd+0xe0>
 8005250:	98800144 	addi	r2,r19,5
 8005254:	100490ba 	slli	r2,r2,2
 8005258:	9cc00044 	addi	r19,r19,1
 800525c:	a085883a 	add	r2,r20,r2
 8005260:	14400015 	stw	r17,0(r2)
 8005264:	a4c00415 	stw	r19,16(r20)
 8005268:	a005883a 	mov	r2,r20
 800526c:	dfc00817 	ldw	ra,32(sp)
 8005270:	ddc00717 	ldw	r23,28(sp)
 8005274:	dd800617 	ldw	r22,24(sp)
 8005278:	dd400517 	ldw	r21,20(sp)
 800527c:	dd000417 	ldw	r20,16(sp)
 8005280:	dcc00317 	ldw	r19,12(sp)
 8005284:	dc800217 	ldw	r18,8(sp)
 8005288:	dc400117 	ldw	r17,4(sp)
 800528c:	dc000017 	ldw	r16,0(sp)
 8005290:	dec00904 	addi	sp,sp,36
 8005294:	f800283a 	ret
 8005298:	a1400117 	ldw	r5,4(r20)
 800529c:	a809883a 	mov	r4,r21
 80052a0:	29400044 	addi	r5,r5,1
 80052a4:	80050f00 	call	80050f0 <_Balloc>
 80052a8:	a1800417 	ldw	r6,16(r20)
 80052ac:	a1400304 	addi	r5,r20,12
 80052b0:	11000304 	addi	r4,r2,12
 80052b4:	31800084 	addi	r6,r6,2
 80052b8:	300c90ba 	slli	r6,r6,2
 80052bc:	1021883a 	mov	r16,r2
 80052c0:	8004ff00 	call	8004ff0 <memcpy>
 80052c4:	a0000926 	beq	r20,zero,80052ec <__multadd+0x134>
 80052c8:	a0c00117 	ldw	r3,4(r20)
 80052cc:	a8801317 	ldw	r2,76(r21)
 80052d0:	180690ba 	slli	r3,r3,2
 80052d4:	10c5883a 	add	r2,r2,r3
 80052d8:	10c00017 	ldw	r3,0(r2)
 80052dc:	a0c00015 	stw	r3,0(r20)
 80052e0:	15000015 	stw	r20,0(r2)
 80052e4:	8029883a 	mov	r20,r16
 80052e8:	003fd906 	br	8005250 <__multadd+0x98>
 80052ec:	8029883a 	mov	r20,r16
 80052f0:	003fd706 	br	8005250 <__multadd+0x98>

080052f4 <__s2b>:
 80052f4:	defff904 	addi	sp,sp,-28
 80052f8:	dc800215 	stw	r18,8(sp)
 80052fc:	dc000015 	stw	r16,0(sp)
 8005300:	2025883a 	mov	r18,r4
 8005304:	2821883a 	mov	r16,r5
 8005308:	39000204 	addi	r4,r7,8
 800530c:	01400244 	movi	r5,9
 8005310:	dcc00315 	stw	r19,12(sp)
 8005314:	dc400115 	stw	r17,4(sp)
 8005318:	dfc00615 	stw	ra,24(sp)
 800531c:	3823883a 	mov	r17,r7
 8005320:	dd400515 	stw	r21,20(sp)
 8005324:	dd000415 	stw	r20,16(sp)
 8005328:	3027883a 	mov	r19,r6
 800532c:	80009140 	call	8000914 <__divsi3>
 8005330:	88c00290 	cmplti	r3,r17,10
 8005334:	1800311e 	bne	r3,zero,80053fc <__s2b+0x108>
 8005338:	00c00044 	movi	r3,1
 800533c:	000b883a 	mov	r5,zero
 8005340:	18c7883a 	add	r3,r3,r3
 8005344:	29400044 	addi	r5,r5,1
 8005348:	18bffd16 	blt	r3,r2,8005340 <__s2b+0x4c>
 800534c:	9009883a 	mov	r4,r18
 8005350:	80050f00 	call	80050f0 <_Balloc>
 8005354:	d8c00717 	ldw	r3,28(sp)
 8005358:	10c00515 	stw	r3,20(r2)
 800535c:	00c00044 	movi	r3,1
 8005360:	10c00415 	stw	r3,16(r2)
 8005364:	98c00290 	cmplti	r3,r19,10
 8005368:	1800211e 	bne	r3,zero,80053f0 <__s2b+0xfc>
 800536c:	85400244 	addi	r21,r16,9
 8005370:	84e9883a 	add	r20,r16,r19
 8005374:	a821883a 	mov	r16,r21
 8005378:	84000044 	addi	r16,r16,1
 800537c:	81ffffc7 	ldb	r7,-1(r16)
 8005380:	01800284 	movi	r6,10
 8005384:	100b883a 	mov	r5,r2
 8005388:	39fff404 	addi	r7,r7,-48
 800538c:	9009883a 	mov	r4,r18
 8005390:	80051b80 	call	80051b8 <__multadd>
 8005394:	a43ff81e 	bne	r20,r16,8005378 <__s2b+0x84>
 8005398:	9c3ffe04 	addi	r16,r19,-8
 800539c:	ac21883a 	add	r16,r21,r16
 80053a0:	9c400a0e 	bge	r19,r17,80053cc <__s2b+0xd8>
 80053a4:	8ce3c83a 	sub	r17,r17,r19
 80053a8:	8463883a 	add	r17,r16,r17
 80053ac:	84000044 	addi	r16,r16,1
 80053b0:	81ffffc7 	ldb	r7,-1(r16)
 80053b4:	01800284 	movi	r6,10
 80053b8:	100b883a 	mov	r5,r2
 80053bc:	39fff404 	addi	r7,r7,-48
 80053c0:	9009883a 	mov	r4,r18
 80053c4:	80051b80 	call	80051b8 <__multadd>
 80053c8:	8c3ff81e 	bne	r17,r16,80053ac <__s2b+0xb8>
 80053cc:	dfc00617 	ldw	ra,24(sp)
 80053d0:	dd400517 	ldw	r21,20(sp)
 80053d4:	dd000417 	ldw	r20,16(sp)
 80053d8:	dcc00317 	ldw	r19,12(sp)
 80053dc:	dc800217 	ldw	r18,8(sp)
 80053e0:	dc400117 	ldw	r17,4(sp)
 80053e4:	dc000017 	ldw	r16,0(sp)
 80053e8:	dec00704 	addi	sp,sp,28
 80053ec:	f800283a 	ret
 80053f0:	84000284 	addi	r16,r16,10
 80053f4:	04c00244 	movi	r19,9
 80053f8:	003fe906 	br	80053a0 <__s2b+0xac>
 80053fc:	000b883a 	mov	r5,zero
 8005400:	003fd206 	br	800534c <__s2b+0x58>

08005404 <__hi0bits>:
 8005404:	20bfffec 	andhi	r2,r4,65535
 8005408:	1000131e 	bne	r2,zero,8005458 <__hi0bits+0x54>
 800540c:	2008943a 	slli	r4,r4,16
 8005410:	00800404 	movi	r2,16
 8005414:	20ffc02c 	andhi	r3,r4,65280
 8005418:	1800021e 	bne	r3,zero,8005424 <__hi0bits+0x20>
 800541c:	2008923a 	slli	r4,r4,8
 8005420:	10800204 	addi	r2,r2,8
 8005424:	20fc002c 	andhi	r3,r4,61440
 8005428:	1800021e 	bne	r3,zero,8005434 <__hi0bits+0x30>
 800542c:	2008913a 	slli	r4,r4,4
 8005430:	10800104 	addi	r2,r2,4
 8005434:	20f0002c 	andhi	r3,r4,49152
 8005438:	1800021e 	bne	r3,zero,8005444 <__hi0bits+0x40>
 800543c:	200890ba 	slli	r4,r4,2
 8005440:	10800084 	addi	r2,r2,2
 8005444:	20000316 	blt	r4,zero,8005454 <__hi0bits+0x50>
 8005448:	2110002c 	andhi	r4,r4,16384
 800544c:	10800044 	addi	r2,r2,1
 8005450:	20000326 	beq	r4,zero,8005460 <__hi0bits+0x5c>
 8005454:	f800283a 	ret
 8005458:	0005883a 	mov	r2,zero
 800545c:	003fed06 	br	8005414 <__hi0bits+0x10>
 8005460:	00800804 	movi	r2,32
 8005464:	f800283a 	ret

08005468 <__lo0bits>:
 8005468:	20c00017 	ldw	r3,0(r4)
 800546c:	188001cc 	andi	r2,r3,7
 8005470:	10000826 	beq	r2,zero,8005494 <__lo0bits+0x2c>
 8005474:	1880004c 	andi	r2,r3,1
 8005478:	10001f1e 	bne	r2,zero,80054f8 <__lo0bits+0x90>
 800547c:	1880008c 	andi	r2,r3,2
 8005480:	10002126 	beq	r2,zero,8005508 <__lo0bits+0xa0>
 8005484:	1806d07a 	srli	r3,r3,1
 8005488:	00800044 	movi	r2,1
 800548c:	20c00015 	stw	r3,0(r4)
 8005490:	f800283a 	ret
 8005494:	18bfffcc 	andi	r2,r3,65535
 8005498:	1000151e 	bne	r2,zero,80054f0 <__lo0bits+0x88>
 800549c:	1806d43a 	srli	r3,r3,16
 80054a0:	00800404 	movi	r2,16
 80054a4:	19403fcc 	andi	r5,r3,255
 80054a8:	2800021e 	bne	r5,zero,80054b4 <__lo0bits+0x4c>
 80054ac:	1806d23a 	srli	r3,r3,8
 80054b0:	10800204 	addi	r2,r2,8
 80054b4:	194003cc 	andi	r5,r3,15
 80054b8:	2800021e 	bne	r5,zero,80054c4 <__lo0bits+0x5c>
 80054bc:	1806d13a 	srli	r3,r3,4
 80054c0:	10800104 	addi	r2,r2,4
 80054c4:	194000cc 	andi	r5,r3,3
 80054c8:	2800021e 	bne	r5,zero,80054d4 <__lo0bits+0x6c>
 80054cc:	1806d0ba 	srli	r3,r3,2
 80054d0:	10800084 	addi	r2,r2,2
 80054d4:	1940004c 	andi	r5,r3,1
 80054d8:	2800031e 	bne	r5,zero,80054e8 <__lo0bits+0x80>
 80054dc:	1806d07a 	srli	r3,r3,1
 80054e0:	10800044 	addi	r2,r2,1
 80054e4:	18000626 	beq	r3,zero,8005500 <__lo0bits+0x98>
 80054e8:	20c00015 	stw	r3,0(r4)
 80054ec:	f800283a 	ret
 80054f0:	0005883a 	mov	r2,zero
 80054f4:	003feb06 	br	80054a4 <__lo0bits+0x3c>
 80054f8:	0005883a 	mov	r2,zero
 80054fc:	f800283a 	ret
 8005500:	00800804 	movi	r2,32
 8005504:	f800283a 	ret
 8005508:	1806d0ba 	srli	r3,r3,2
 800550c:	00800084 	movi	r2,2
 8005510:	20c00015 	stw	r3,0(r4)
 8005514:	f800283a 	ret

08005518 <__i2b>:
 8005518:	defffe04 	addi	sp,sp,-8
 800551c:	dc000015 	stw	r16,0(sp)
 8005520:	2821883a 	mov	r16,r5
 8005524:	01400044 	movi	r5,1
 8005528:	dfc00115 	stw	ra,4(sp)
 800552c:	80050f00 	call	80050f0 <_Balloc>
 8005530:	01000044 	movi	r4,1
 8005534:	14000515 	stw	r16,20(r2)
 8005538:	11000415 	stw	r4,16(r2)
 800553c:	dfc00117 	ldw	ra,4(sp)
 8005540:	dc000017 	ldw	r16,0(sp)
 8005544:	dec00204 	addi	sp,sp,8
 8005548:	f800283a 	ret

0800554c <__multiply>:
 800554c:	defff104 	addi	sp,sp,-60
 8005550:	dd800b15 	stw	r22,44(sp)
 8005554:	dc400615 	stw	r17,24(sp)
 8005558:	2d800417 	ldw	r22,16(r5)
 800555c:	34400417 	ldw	r17,16(r6)
 8005560:	ddc00c15 	stw	r23,48(sp)
 8005564:	dc800715 	stw	r18,28(sp)
 8005568:	dfc00e15 	stw	ra,56(sp)
 800556c:	df000d15 	stw	fp,52(sp)
 8005570:	dd400a15 	stw	r21,40(sp)
 8005574:	dd000915 	stw	r20,36(sp)
 8005578:	dcc00815 	stw	r19,32(sp)
 800557c:	dc000515 	stw	r16,20(sp)
 8005580:	2825883a 	mov	r18,r5
 8005584:	302f883a 	mov	r23,r6
 8005588:	b4400516 	blt	r22,r17,80055a0 <__multiply+0x54>
 800558c:	8807883a 	mov	r3,r17
 8005590:	282f883a 	mov	r23,r5
 8005594:	b023883a 	mov	r17,r22
 8005598:	3025883a 	mov	r18,r6
 800559c:	182d883a 	mov	r22,r3
 80055a0:	b8800217 	ldw	r2,8(r23)
 80055a4:	8da9883a 	add	r20,r17,r22
 80055a8:	b9400117 	ldw	r5,4(r23)
 80055ac:	1500010e 	bge	r2,r20,80055b4 <__multiply+0x68>
 80055b0:	29400044 	addi	r5,r5,1
 80055b4:	a02690ba 	slli	r19,r20,2
 80055b8:	80050f00 	call	80050f0 <_Balloc>
 80055bc:	10c00504 	addi	r3,r2,20
 80055c0:	1cc9883a 	add	r4,r3,r19
 80055c4:	d8800415 	stw	r2,16(sp)
 80055c8:	d8c00015 	stw	r3,0(sp)
 80055cc:	d9000115 	stw	r4,4(sp)
 80055d0:	1805883a 	mov	r2,r3
 80055d4:	1900042e 	bgeu	r3,r4,80055e8 <__multiply+0x9c>
 80055d8:	d8c00117 	ldw	r3,4(sp)
 80055dc:	10000015 	stw	zero,0(r2)
 80055e0:	10800104 	addi	r2,r2,4
 80055e4:	10fffc36 	bltu	r2,r3,80055d8 <__multiply+0x8c>
 80055e8:	b02c90ba 	slli	r22,r22,2
 80055ec:	882290ba 	slli	r17,r17,2
 80055f0:	94800504 	addi	r18,r18,20
 80055f4:	b8800504 	addi	r2,r23,20
 80055f8:	9587883a 	add	r3,r18,r22
 80055fc:	d8800315 	stw	r2,12(sp)
 8005600:	d8c00215 	stw	r3,8(sp)
 8005604:	1463883a 	add	r17,r2,r17
 8005608:	90c00936 	bltu	r18,r3,8005630 <__multiply+0xe4>
 800560c:	00004606 	br	8005728 <__multiply+0x1dc>
 8005610:	8020d43a 	srli	r16,r16,16
 8005614:	8000271e 	bne	r16,zero,80056b4 <__multiply+0x168>
 8005618:	d8800017 	ldw	r2,0(sp)
 800561c:	94800104 	addi	r18,r18,4
 8005620:	10800104 	addi	r2,r2,4
 8005624:	d8800015 	stw	r2,0(sp)
 8005628:	d8800217 	ldw	r2,8(sp)
 800562c:	90803e2e 	bgeu	r18,r2,8005728 <__multiply+0x1dc>
 8005630:	94000017 	ldw	r16,0(r18)
 8005634:	873fffcc 	andi	fp,r16,65535
 8005638:	e03ff526 	beq	fp,zero,8005610 <__multiply+0xc4>
 800563c:	dcc00017 	ldw	r19,0(sp)
 8005640:	dd800317 	ldw	r22,12(sp)
 8005644:	002b883a 	mov	r21,zero
 8005648:	b5c00017 	ldw	r23,0(r22)
 800564c:	9c000017 	ldw	r16,0(r19)
 8005650:	e00b883a 	mov	r5,fp
 8005654:	b93fffcc 	andi	r4,r23,65535
 8005658:	8000acc0 	call	8000acc <__mulsi3>
 800565c:	b808d43a 	srli	r4,r23,16
 8005660:	80ffffcc 	andi	r3,r16,65535
 8005664:	10c5883a 	add	r2,r2,r3
 8005668:	e00b883a 	mov	r5,fp
 800566c:	156b883a 	add	r21,r2,r21
 8005670:	8020d43a 	srli	r16,r16,16
 8005674:	8000acc0 	call	8000acc <__mulsi3>
 8005678:	a808d43a 	srli	r4,r21,16
 800567c:	1405883a 	add	r2,r2,r16
 8005680:	a8ffffcc 	andi	r3,r21,65535
 8005684:	1105883a 	add	r2,r2,r4
 8005688:	1008943a 	slli	r4,r2,16
 800568c:	9cc00104 	addi	r19,r19,4
 8005690:	b5800104 	addi	r22,r22,4
 8005694:	20c6b03a 	or	r3,r4,r3
 8005698:	98ffff15 	stw	r3,-4(r19)
 800569c:	102ad43a 	srli	r21,r2,16
 80056a0:	b47fe936 	bltu	r22,r17,8005648 <__multiply+0xfc>
 80056a4:	9d400015 	stw	r21,0(r19)
 80056a8:	94000017 	ldw	r16,0(r18)
 80056ac:	8020d43a 	srli	r16,r16,16
 80056b0:	803fd926 	beq	r16,zero,8005618 <__multiply+0xcc>
 80056b4:	ddc00017 	ldw	r23,0(sp)
 80056b8:	dd400317 	ldw	r21,12(sp)
 80056bc:	0027883a 	mov	r19,zero
 80056c0:	bd800017 	ldw	r22,0(r23)
 80056c4:	b039883a 	mov	fp,r22
 80056c8:	a900000b 	ldhu	r4,0(r21)
 80056cc:	e038d43a 	srli	fp,fp,16
 80056d0:	800b883a 	mov	r5,r16
 80056d4:	8000acc0 	call	8000acc <__mulsi3>
 80056d8:	1739883a 	add	fp,r2,fp
 80056dc:	e4e7883a 	add	r19,fp,r19
 80056e0:	9804943a 	slli	r2,r19,16
 80056e4:	b0ffffcc 	andi	r3,r22,65535
 80056e8:	bdc00104 	addi	r23,r23,4
 80056ec:	10c6b03a 	or	r3,r2,r3
 80056f0:	b8ffff15 	stw	r3,-4(r23)
 80056f4:	ad400104 	addi	r21,r21,4
 80056f8:	a93fff8b 	ldhu	r4,-2(r21)
 80056fc:	bf000017 	ldw	fp,0(r23)
 8005700:	800b883a 	mov	r5,r16
 8005704:	8000acc0 	call	8000acc <__mulsi3>
 8005708:	980cd43a 	srli	r6,r19,16
 800570c:	e0ffffcc 	andi	r3,fp,65535
 8005710:	10c7883a 	add	r3,r2,r3
 8005714:	19ad883a 	add	r22,r3,r6
 8005718:	b026d43a 	srli	r19,r22,16
 800571c:	ac7fea36 	bltu	r21,r17,80056c8 <__multiply+0x17c>
 8005720:	bd800015 	stw	r22,0(r23)
 8005724:	003fbc06 	br	8005618 <__multiply+0xcc>
 8005728:	05000a0e 	bge	zero,r20,8005754 <__multiply+0x208>
 800572c:	d8c00117 	ldw	r3,4(sp)
 8005730:	18bfff17 	ldw	r2,-4(r3)
 8005734:	1cffff04 	addi	r19,r3,-4
 8005738:	10000326 	beq	r2,zero,8005748 <__multiply+0x1fc>
 800573c:	00000506 	br	8005754 <__multiply+0x208>
 8005740:	98800017 	ldw	r2,0(r19)
 8005744:	1000031e 	bne	r2,zero,8005754 <__multiply+0x208>
 8005748:	a53fffc4 	addi	r20,r20,-1
 800574c:	9cffff04 	addi	r19,r19,-4
 8005750:	a03ffb1e 	bne	r20,zero,8005740 <__multiply+0x1f4>
 8005754:	d8800417 	ldw	r2,16(sp)
 8005758:	15000415 	stw	r20,16(r2)
 800575c:	dfc00e17 	ldw	ra,56(sp)
 8005760:	df000d17 	ldw	fp,52(sp)
 8005764:	ddc00c17 	ldw	r23,48(sp)
 8005768:	dd800b17 	ldw	r22,44(sp)
 800576c:	dd400a17 	ldw	r21,40(sp)
 8005770:	dd000917 	ldw	r20,36(sp)
 8005774:	dcc00817 	ldw	r19,32(sp)
 8005778:	dc800717 	ldw	r18,28(sp)
 800577c:	dc400617 	ldw	r17,24(sp)
 8005780:	dc000517 	ldw	r16,20(sp)
 8005784:	dec00f04 	addi	sp,sp,60
 8005788:	f800283a 	ret

0800578c <__pow5mult>:
 800578c:	defffb04 	addi	sp,sp,-20
 8005790:	dcc00315 	stw	r19,12(sp)
 8005794:	dc000015 	stw	r16,0(sp)
 8005798:	dfc00415 	stw	ra,16(sp)
 800579c:	dc800215 	stw	r18,8(sp)
 80057a0:	dc400115 	stw	r17,4(sp)
 80057a4:	308000cc 	andi	r2,r6,3
 80057a8:	3021883a 	mov	r16,r6
 80057ac:	2027883a 	mov	r19,r4
 80057b0:	10002d1e 	bne	r2,zero,8005868 <__pow5mult+0xdc>
 80057b4:	2825883a 	mov	r18,r5
 80057b8:	8021d0ba 	srai	r16,r16,2
 80057bc:	80001926 	beq	r16,zero,8005824 <__pow5mult+0x98>
 80057c0:	9c401217 	ldw	r17,72(r19)
 80057c4:	8800061e 	bne	r17,zero,80057e0 <__pow5mult+0x54>
 80057c8:	00002f06 	br	8005888 <__pow5mult+0xfc>
 80057cc:	8021d07a 	srai	r16,r16,1
 80057d0:	80001426 	beq	r16,zero,8005824 <__pow5mult+0x98>
 80057d4:	88800017 	ldw	r2,0(r17)
 80057d8:	10001a26 	beq	r2,zero,8005844 <__pow5mult+0xb8>
 80057dc:	1023883a 	mov	r17,r2
 80057e0:	8080004c 	andi	r2,r16,1
 80057e4:	103ff926 	beq	r2,zero,80057cc <__pow5mult+0x40>
 80057e8:	880d883a 	mov	r6,r17
 80057ec:	900b883a 	mov	r5,r18
 80057f0:	9809883a 	mov	r4,r19
 80057f4:	800554c0 	call	800554c <__multiply>
 80057f8:	90001926 	beq	r18,zero,8005860 <__pow5mult+0xd4>
 80057fc:	91000117 	ldw	r4,4(r18)
 8005800:	98c01317 	ldw	r3,76(r19)
 8005804:	8021d07a 	srai	r16,r16,1
 8005808:	200890ba 	slli	r4,r4,2
 800580c:	1907883a 	add	r3,r3,r4
 8005810:	19000017 	ldw	r4,0(r3)
 8005814:	91000015 	stw	r4,0(r18)
 8005818:	1c800015 	stw	r18,0(r3)
 800581c:	1025883a 	mov	r18,r2
 8005820:	803fec1e 	bne	r16,zero,80057d4 <__pow5mult+0x48>
 8005824:	9005883a 	mov	r2,r18
 8005828:	dfc00417 	ldw	ra,16(sp)
 800582c:	dcc00317 	ldw	r19,12(sp)
 8005830:	dc800217 	ldw	r18,8(sp)
 8005834:	dc400117 	ldw	r17,4(sp)
 8005838:	dc000017 	ldw	r16,0(sp)
 800583c:	dec00504 	addi	sp,sp,20
 8005840:	f800283a 	ret
 8005844:	880d883a 	mov	r6,r17
 8005848:	880b883a 	mov	r5,r17
 800584c:	9809883a 	mov	r4,r19
 8005850:	800554c0 	call	800554c <__multiply>
 8005854:	88800015 	stw	r2,0(r17)
 8005858:	10000015 	stw	zero,0(r2)
 800585c:	003fdf06 	br	80057dc <__pow5mult+0x50>
 8005860:	1025883a 	mov	r18,r2
 8005864:	003fd906 	br	80057cc <__pow5mult+0x40>
 8005868:	100490ba 	slli	r2,r2,2
 800586c:	00c20074 	movhi	r3,2049
 8005870:	000f883a 	mov	r7,zero
 8005874:	10c7883a 	add	r3,r2,r3
 8005878:	19b72417 	ldw	r6,-9072(r3)
 800587c:	80051b80 	call	80051b8 <__multadd>
 8005880:	1025883a 	mov	r18,r2
 8005884:	003fcc06 	br	80057b8 <__pow5mult+0x2c>
 8005888:	01400044 	movi	r5,1
 800588c:	9809883a 	mov	r4,r19
 8005890:	80050f00 	call	80050f0 <_Balloc>
 8005894:	1023883a 	mov	r17,r2
 8005898:	00809c44 	movi	r2,625
 800589c:	88800515 	stw	r2,20(r17)
 80058a0:	00800044 	movi	r2,1
 80058a4:	88800415 	stw	r2,16(r17)
 80058a8:	9c401215 	stw	r17,72(r19)
 80058ac:	88000015 	stw	zero,0(r17)
 80058b0:	003fcb06 	br	80057e0 <__pow5mult+0x54>

080058b4 <__lshift>:
 80058b4:	defff904 	addi	sp,sp,-28
 80058b8:	dcc00315 	stw	r19,12(sp)
 80058bc:	dc400115 	stw	r17,4(sp)
 80058c0:	2cc00417 	ldw	r19,16(r5)
 80058c4:	3023d17a 	srai	r17,r6,5
 80058c8:	28800217 	ldw	r2,8(r5)
 80058cc:	dd400515 	stw	r21,20(sp)
 80058d0:	8ce7883a 	add	r19,r17,r19
 80058d4:	dd000415 	stw	r20,16(sp)
 80058d8:	dc800215 	stw	r18,8(sp)
 80058dc:	dc000015 	stw	r16,0(sp)
 80058e0:	dfc00615 	stw	ra,24(sp)
 80058e4:	9c000044 	addi	r16,r19,1
 80058e8:	2825883a 	mov	r18,r5
 80058ec:	302b883a 	mov	r21,r6
 80058f0:	2029883a 	mov	r20,r4
 80058f4:	29400117 	ldw	r5,4(r5)
 80058f8:	1400030e 	bge	r2,r16,8005908 <__lshift+0x54>
 80058fc:	1085883a 	add	r2,r2,r2
 8005900:	29400044 	addi	r5,r5,1
 8005904:	143ffd16 	blt	r2,r16,80058fc <__lshift+0x48>
 8005908:	a009883a 	mov	r4,r20
 800590c:	80050f00 	call	80050f0 <_Balloc>
 8005910:	11000504 	addi	r4,r2,20
 8005914:	0440090e 	bge	zero,r17,800593c <__lshift+0x88>
 8005918:	8c400144 	addi	r17,r17,5
 800591c:	882290ba 	slli	r17,r17,2
 8005920:	2007883a 	mov	r3,r4
 8005924:	144b883a 	add	r5,r2,r17
 8005928:	18c00104 	addi	r3,r3,4
 800592c:	183fff15 	stw	zero,-4(r3)
 8005930:	28fffd1e 	bne	r5,r3,8005928 <__lshift+0x74>
 8005934:	8c7ffb04 	addi	r17,r17,-20
 8005938:	2449883a 	add	r4,r4,r17
 800593c:	92000417 	ldw	r8,16(r18)
 8005940:	90c00504 	addi	r3,r18,20
 8005944:	a98007cc 	andi	r6,r21,31
 8005948:	401090ba 	slli	r8,r8,2
 800594c:	1a11883a 	add	r8,r3,r8
 8005950:	30002126 	beq	r6,zero,80059d8 <__lshift+0x124>
 8005954:	02400804 	movi	r9,32
 8005958:	4993c83a 	sub	r9,r9,r6
 800595c:	000f883a 	mov	r7,zero
 8005960:	19400017 	ldw	r5,0(r3)
 8005964:	21000104 	addi	r4,r4,4
 8005968:	18c00104 	addi	r3,r3,4
 800596c:	298a983a 	sll	r5,r5,r6
 8005970:	29cab03a 	or	r5,r5,r7
 8005974:	217fff15 	stw	r5,-4(r4)
 8005978:	197fff17 	ldw	r5,-4(r3)
 800597c:	2a4ed83a 	srl	r7,r5,r9
 8005980:	1a3ff736 	bltu	r3,r8,8005960 <__lshift+0xac>
 8005984:	21c00015 	stw	r7,0(r4)
 8005988:	38000126 	beq	r7,zero,8005990 <__lshift+0xdc>
 800598c:	8027883a 	mov	r19,r16
 8005990:	14c00415 	stw	r19,16(r2)
 8005994:	90000726 	beq	r18,zero,80059b4 <__lshift+0x100>
 8005998:	91000117 	ldw	r4,4(r18)
 800599c:	a0c01317 	ldw	r3,76(r20)
 80059a0:	200890ba 	slli	r4,r4,2
 80059a4:	1907883a 	add	r3,r3,r4
 80059a8:	19000017 	ldw	r4,0(r3)
 80059ac:	91000015 	stw	r4,0(r18)
 80059b0:	1c800015 	stw	r18,0(r3)
 80059b4:	dfc00617 	ldw	ra,24(sp)
 80059b8:	dd400517 	ldw	r21,20(sp)
 80059bc:	dd000417 	ldw	r20,16(sp)
 80059c0:	dcc00317 	ldw	r19,12(sp)
 80059c4:	dc800217 	ldw	r18,8(sp)
 80059c8:	dc400117 	ldw	r17,4(sp)
 80059cc:	dc000017 	ldw	r16,0(sp)
 80059d0:	dec00704 	addi	sp,sp,28
 80059d4:	f800283a 	ret
 80059d8:	18c00104 	addi	r3,r3,4
 80059dc:	197fff17 	ldw	r5,-4(r3)
 80059e0:	21000104 	addi	r4,r4,4
 80059e4:	217fff15 	stw	r5,-4(r4)
 80059e8:	1a3ffb36 	bltu	r3,r8,80059d8 <__lshift+0x124>
 80059ec:	003fe806 	br	8005990 <__lshift+0xdc>

080059f0 <__mcmp>:
 80059f0:	20800417 	ldw	r2,16(r4)
 80059f4:	28c00417 	ldw	r3,16(r5)
 80059f8:	10c5c83a 	sub	r2,r2,r3
 80059fc:	10000e1e 	bne	r2,zero,8005a38 <__mcmp+0x48>
 8005a00:	180c90ba 	slli	r6,r3,2
 8005a04:	21000504 	addi	r4,r4,20
 8005a08:	29400504 	addi	r5,r5,20
 8005a0c:	2187883a 	add	r3,r4,r6
 8005a10:	298b883a 	add	r5,r5,r6
 8005a14:	00000106 	br	8005a1c <__mcmp+0x2c>
 8005a18:	20c0082e 	bgeu	r4,r3,8005a3c <__mcmp+0x4c>
 8005a1c:	18ffff04 	addi	r3,r3,-4
 8005a20:	297fff04 	addi	r5,r5,-4
 8005a24:	19c00017 	ldw	r7,0(r3)
 8005a28:	29800017 	ldw	r6,0(r5)
 8005a2c:	39bffa26 	beq	r7,r6,8005a18 <__mcmp+0x28>
 8005a30:	3980032e 	bgeu	r7,r6,8005a40 <__mcmp+0x50>
 8005a34:	00bfffc4 	movi	r2,-1
 8005a38:	f800283a 	ret
 8005a3c:	f800283a 	ret
 8005a40:	00800044 	movi	r2,1
 8005a44:	f800283a 	ret

08005a48 <__mdiff>:
 8005a48:	defffa04 	addi	sp,sp,-24
 8005a4c:	dc800215 	stw	r18,8(sp)
 8005a50:	30c00417 	ldw	r3,16(r6)
 8005a54:	2c800417 	ldw	r18,16(r5)
 8005a58:	dd000415 	stw	r20,16(sp)
 8005a5c:	dcc00315 	stw	r19,12(sp)
 8005a60:	dc400115 	stw	r17,4(sp)
 8005a64:	dc000015 	stw	r16,0(sp)
 8005a68:	dfc00515 	stw	ra,20(sp)
 8005a6c:	90e5c83a 	sub	r18,r18,r3
 8005a70:	2827883a 	mov	r19,r5
 8005a74:	3029883a 	mov	r20,r6
 8005a78:	2c000504 	addi	r16,r5,20
 8005a7c:	34400504 	addi	r17,r6,20
 8005a80:	9000131e 	bne	r18,zero,8005ad0 <__mdiff+0x88>
 8005a84:	180690ba 	slli	r3,r3,2
 8005a88:	80c5883a 	add	r2,r16,r3
 8005a8c:	88c7883a 	add	r3,r17,r3
 8005a90:	00000106 	br	8005a98 <__mdiff+0x50>
 8005a94:	8080552e 	bgeu	r16,r2,8005bec <__mdiff+0x1a4>
 8005a98:	10bfff04 	addi	r2,r2,-4
 8005a9c:	18ffff04 	addi	r3,r3,-4
 8005aa0:	11c00017 	ldw	r7,0(r2)
 8005aa4:	19400017 	ldw	r5,0(r3)
 8005aa8:	397ffa26 	beq	r7,r5,8005a94 <__mdiff+0x4c>
 8005aac:	39400a2e 	bgeu	r7,r5,8005ad8 <__mdiff+0x90>
 8005ab0:	8007883a 	mov	r3,r16
 8005ab4:	9805883a 	mov	r2,r19
 8005ab8:	8821883a 	mov	r16,r17
 8005abc:	a027883a 	mov	r19,r20
 8005ac0:	1823883a 	mov	r17,r3
 8005ac4:	1029883a 	mov	r20,r2
 8005ac8:	04800044 	movi	r18,1
 8005acc:	00000206 	br	8005ad8 <__mdiff+0x90>
 8005ad0:	903ff716 	blt	r18,zero,8005ab0 <__mdiff+0x68>
 8005ad4:	0025883a 	mov	r18,zero
 8005ad8:	99400117 	ldw	r5,4(r19)
 8005adc:	80050f00 	call	80050f0 <_Balloc>
 8005ae0:	9a400417 	ldw	r9,16(r19)
 8005ae4:	a2c00417 	ldw	r11,16(r20)
 8005ae8:	12800504 	addi	r10,r2,20
 8005aec:	481090ba 	slli	r8,r9,2
 8005af0:	581690ba 	slli	r11,r11,2
 8005af4:	14800315 	stw	r18,12(r2)
 8005af8:	8211883a 	add	r8,r16,r8
 8005afc:	8ad7883a 	add	r11,r17,r11
 8005b00:	0007883a 	mov	r3,zero
 8005b04:	00000106 	br	8005b0c <__mdiff+0xc4>
 8005b08:	3815883a 	mov	r10,r7
 8005b0c:	81000017 	ldw	r4,0(r16)
 8005b10:	89800017 	ldw	r6,0(r17)
 8005b14:	51c00104 	addi	r7,r10,4
 8005b18:	217fffcc 	andi	r5,r4,65535
 8005b1c:	28cb883a 	add	r5,r5,r3
 8005b20:	30ffffcc 	andi	r3,r6,65535
 8005b24:	28cbc83a 	sub	r5,r5,r3
 8005b28:	300cd43a 	srli	r6,r6,16
 8005b2c:	2006d43a 	srli	r3,r4,16
 8005b30:	2809d43a 	srai	r4,r5,16
 8005b34:	297fffcc 	andi	r5,r5,65535
 8005b38:	1987c83a 	sub	r3,r3,r6
 8005b3c:	1907883a 	add	r3,r3,r4
 8005b40:	1808943a 	slli	r4,r3,16
 8005b44:	8c400104 	addi	r17,r17,4
 8005b48:	84000104 	addi	r16,r16,4
 8005b4c:	214ab03a 	or	r5,r4,r5
 8005b50:	397fff15 	stw	r5,-4(r7)
 8005b54:	1807d43a 	srai	r3,r3,16
 8005b58:	8affeb36 	bltu	r17,r11,8005b08 <__mdiff+0xc0>
 8005b5c:	8200152e 	bgeu	r16,r8,8005bb4 <__mdiff+0x16c>
 8005b60:	3815883a 	mov	r10,r7
 8005b64:	800d883a 	mov	r6,r16
 8005b68:	31000017 	ldw	r4,0(r6)
 8005b6c:	52800104 	addi	r10,r10,4
 8005b70:	31800104 	addi	r6,r6,4
 8005b74:	217fffcc 	andi	r5,r4,65535
 8005b78:	28cb883a 	add	r5,r5,r3
 8005b7c:	2817d43a 	srai	r11,r5,16
 8005b80:	2006d43a 	srli	r3,r4,16
 8005b84:	293fffcc 	andi	r4,r5,65535
 8005b88:	1ac7883a 	add	r3,r3,r11
 8005b8c:	180a943a 	slli	r5,r3,16
 8005b90:	1807d43a 	srai	r3,r3,16
 8005b94:	290ab03a 	or	r5,r5,r4
 8005b98:	517fff15 	stw	r5,-4(r10)
 8005b9c:	323ff236 	bltu	r6,r8,8005b68 <__mdiff+0x120>
 8005ba0:	42bfffc4 	addi	r10,r8,-1
 8005ba4:	5415c83a 	sub	r10,r10,r16
 8005ba8:	5014d0ba 	srli	r10,r10,2
 8005bac:	501490ba 	slli	r10,r10,2
 8005bb0:	3a95883a 	add	r10,r7,r10
 8005bb4:	2800041e 	bne	r5,zero,8005bc8 <__mdiff+0x180>
 8005bb8:	52bfff04 	addi	r10,r10,-4
 8005bbc:	50c00017 	ldw	r3,0(r10)
 8005bc0:	4a7fffc4 	addi	r9,r9,-1
 8005bc4:	183ffc26 	beq	r3,zero,8005bb8 <__mdiff+0x170>
 8005bc8:	12400415 	stw	r9,16(r2)
 8005bcc:	dfc00517 	ldw	ra,20(sp)
 8005bd0:	dd000417 	ldw	r20,16(sp)
 8005bd4:	dcc00317 	ldw	r19,12(sp)
 8005bd8:	dc800217 	ldw	r18,8(sp)
 8005bdc:	dc400117 	ldw	r17,4(sp)
 8005be0:	dc000017 	ldw	r16,0(sp)
 8005be4:	dec00604 	addi	sp,sp,24
 8005be8:	f800283a 	ret
 8005bec:	000b883a 	mov	r5,zero
 8005bf0:	80050f00 	call	80050f0 <_Balloc>
 8005bf4:	00c00044 	movi	r3,1
 8005bf8:	10c00415 	stw	r3,16(r2)
 8005bfc:	10000515 	stw	zero,20(r2)
 8005c00:	003ff206 	br	8005bcc <__mdiff+0x184>

08005c04 <__ulp>:
 8005c04:	295ffc2c 	andhi	r5,r5,32752
 8005c08:	00ff3034 	movhi	r3,64704
 8005c0c:	28c7883a 	add	r3,r5,r3
 8005c10:	00c0020e 	bge	zero,r3,8005c1c <__ulp+0x18>
 8005c14:	0005883a 	mov	r2,zero
 8005c18:	f800283a 	ret
 8005c1c:	00c7c83a 	sub	r3,zero,r3
 8005c20:	1807d53a 	srai	r3,r3,20
 8005c24:	18800508 	cmpgei	r2,r3,20
 8005c28:	1000041e 	bne	r2,zero,8005c3c <__ulp+0x38>
 8005c2c:	01400234 	movhi	r5,8
 8005c30:	28c7d83a 	sra	r3,r5,r3
 8005c34:	0005883a 	mov	r2,zero
 8005c38:	f800283a 	ret
 8005c3c:	193ffb04 	addi	r4,r3,-20
 8005c40:	208007c8 	cmpgei	r2,r4,31
 8005c44:	0007883a 	mov	r3,zero
 8005c48:	1000031e 	bne	r2,zero,8005c58 <__ulp+0x54>
 8005c4c:	00a00034 	movhi	r2,32768
 8005c50:	1104d83a 	srl	r2,r2,r4
 8005c54:	f800283a 	ret
 8005c58:	00800044 	movi	r2,1
 8005c5c:	f800283a 	ret

08005c60 <__b2d>:
 8005c60:	defffa04 	addi	sp,sp,-24
 8005c64:	dc000015 	stw	r16,0(sp)
 8005c68:	24000417 	ldw	r16,16(r4)
 8005c6c:	dc800215 	stw	r18,8(sp)
 8005c70:	24800504 	addi	r18,r4,20
 8005c74:	802090ba 	slli	r16,r16,2
 8005c78:	dc400115 	stw	r17,4(sp)
 8005c7c:	dd000415 	stw	r20,16(sp)
 8005c80:	9421883a 	add	r16,r18,r16
 8005c84:	847fff17 	ldw	r17,-4(r16)
 8005c88:	dcc00315 	stw	r19,12(sp)
 8005c8c:	2829883a 	mov	r20,r5
 8005c90:	8809883a 	mov	r4,r17
 8005c94:	dfc00515 	stw	ra,20(sp)
 8005c98:	80054040 	call	8005404 <__hi0bits>
 8005c9c:	01000804 	movi	r4,32
 8005ca0:	2087c83a 	sub	r3,r4,r2
 8005ca4:	a0c00015 	stw	r3,0(r20)
 8005ca8:	10c002c8 	cmpgei	r3,r2,11
 8005cac:	84ffff04 	addi	r19,r16,-4
 8005cb0:	18001f26 	beq	r3,zero,8005d30 <__b2d+0xd0>
 8005cb4:	10fffd44 	addi	r3,r2,-11
 8005cb8:	94c00e2e 	bgeu	r18,r19,8005cf4 <__b2d+0x94>
 8005cbc:	80bffe17 	ldw	r2,-8(r16)
 8005cc0:	18001226 	beq	r3,zero,8005d0c <__b2d+0xac>
 8005cc4:	20c9c83a 	sub	r4,r4,r3
 8005cc8:	110cd83a 	srl	r6,r2,r4
 8005ccc:	88e2983a 	sll	r17,r17,r3
 8005cd0:	10c4983a 	sll	r2,r2,r3
 8005cd4:	817ffe04 	addi	r5,r16,-8
 8005cd8:	8986b03a 	or	r3,r17,r6
 8005cdc:	18cffc34 	orhi	r3,r3,16368
 8005ce0:	91400b2e 	bgeu	r18,r5,8005d10 <__b2d+0xb0>
 8005ce4:	817ffd17 	ldw	r5,-12(r16)
 8005ce8:	2908d83a 	srl	r4,r5,r4
 8005cec:	1104b03a 	or	r2,r2,r4
 8005cf0:	00000706 	br	8005d10 <__b2d+0xb0>
 8005cf4:	18000426 	beq	r3,zero,8005d08 <__b2d+0xa8>
 8005cf8:	88c6983a 	sll	r3,r17,r3
 8005cfc:	0005883a 	mov	r2,zero
 8005d00:	18cffc34 	orhi	r3,r3,16368
 8005d04:	00000206 	br	8005d10 <__b2d+0xb0>
 8005d08:	0005883a 	mov	r2,zero
 8005d0c:	88cffc34 	orhi	r3,r17,16368
 8005d10:	dfc00517 	ldw	ra,20(sp)
 8005d14:	dd000417 	ldw	r20,16(sp)
 8005d18:	dcc00317 	ldw	r19,12(sp)
 8005d1c:	dc800217 	ldw	r18,8(sp)
 8005d20:	dc400117 	ldw	r17,4(sp)
 8005d24:	dc000017 	ldw	r16,0(sp)
 8005d28:	dec00604 	addi	sp,sp,24
 8005d2c:	f800283a 	ret
 8005d30:	014002c4 	movi	r5,11
 8005d34:	2889c83a 	sub	r4,r5,r2
 8005d38:	8906d83a 	srl	r3,r17,r4
 8005d3c:	18cffc34 	orhi	r3,r3,16368
 8005d40:	94c00536 	bltu	r18,r19,8005d58 <__b2d+0xf8>
 8005d44:	000b883a 	mov	r5,zero
 8005d48:	10800544 	addi	r2,r2,21
 8005d4c:	8884983a 	sll	r2,r17,r2
 8005d50:	1144b03a 	or	r2,r2,r5
 8005d54:	003fee06 	br	8005d10 <__b2d+0xb0>
 8005d58:	817ffe17 	ldw	r5,-8(r16)
 8005d5c:	290ad83a 	srl	r5,r5,r4
 8005d60:	003ff906 	br	8005d48 <__b2d+0xe8>

08005d64 <__d2b>:
 8005d64:	defff804 	addi	sp,sp,-32
 8005d68:	dc400315 	stw	r17,12(sp)
 8005d6c:	3023883a 	mov	r17,r6
 8005d70:	dd000615 	stw	r20,24(sp)
 8005d74:	dc000215 	stw	r16,8(sp)
 8005d78:	2829883a 	mov	r20,r5
 8005d7c:	8820d53a 	srli	r16,r17,20
 8005d80:	01400044 	movi	r5,1
 8005d84:	dcc00515 	stw	r19,20(sp)
 8005d88:	dc800415 	stw	r18,16(sp)
 8005d8c:	dfc00715 	stw	ra,28(sp)
 8005d90:	3825883a 	mov	r18,r7
 8005d94:	80050f00 	call	80050f0 <_Balloc>
 8005d98:	01800434 	movhi	r6,16
 8005d9c:	31bfffc4 	addi	r6,r6,-1
 8005da0:	8401ffcc 	andi	r16,r16,2047
 8005da4:	1027883a 	mov	r19,r2
 8005da8:	89a2703a 	and	r17,r17,r6
 8005dac:	80000126 	beq	r16,zero,8005db4 <__d2b+0x50>
 8005db0:	8c400434 	orhi	r17,r17,16
 8005db4:	dc400115 	stw	r17,4(sp)
 8005db8:	a0002826 	beq	r20,zero,8005e5c <__d2b+0xf8>
 8005dbc:	d809883a 	mov	r4,sp
 8005dc0:	dd000015 	stw	r20,0(sp)
 8005dc4:	80054680 	call	8005468 <__lo0bits>
 8005dc8:	d8c00117 	ldw	r3,4(sp)
 8005dcc:	1000171e 	bne	r2,zero,8005e2c <__d2b+0xc8>
 8005dd0:	d9000017 	ldw	r4,0(sp)
 8005dd4:	98c00615 	stw	r3,24(r19)
 8005dd8:	99000515 	stw	r4,20(r19)
 8005ddc:	18001d1e 	bne	r3,zero,8005e54 <__d2b+0xf0>
 8005de0:	04400044 	movi	r17,1
 8005de4:	9c400415 	stw	r17,16(r19)
 8005de8:	80002526 	beq	r16,zero,8005e80 <__d2b+0x11c>
 8005dec:	00c00d44 	movi	r3,53
 8005df0:	843ef344 	addi	r16,r16,-1075
 8005df4:	80a1883a 	add	r16,r16,r2
 8005df8:	1885c83a 	sub	r2,r3,r2
 8005dfc:	d8c00817 	ldw	r3,32(sp)
 8005e00:	94000015 	stw	r16,0(r18)
 8005e04:	18800015 	stw	r2,0(r3)
 8005e08:	9805883a 	mov	r2,r19
 8005e0c:	dfc00717 	ldw	ra,28(sp)
 8005e10:	dd000617 	ldw	r20,24(sp)
 8005e14:	dcc00517 	ldw	r19,20(sp)
 8005e18:	dc800417 	ldw	r18,16(sp)
 8005e1c:	dc400317 	ldw	r17,12(sp)
 8005e20:	dc000217 	ldw	r16,8(sp)
 8005e24:	dec00804 	addi	sp,sp,32
 8005e28:	f800283a 	ret
 8005e2c:	01000804 	movi	r4,32
 8005e30:	2089c83a 	sub	r4,r4,r2
 8005e34:	1908983a 	sll	r4,r3,r4
 8005e38:	d9400017 	ldw	r5,0(sp)
 8005e3c:	1886d83a 	srl	r3,r3,r2
 8005e40:	2148b03a 	or	r4,r4,r5
 8005e44:	99000515 	stw	r4,20(r19)
 8005e48:	d8c00115 	stw	r3,4(sp)
 8005e4c:	98c00615 	stw	r3,24(r19)
 8005e50:	183fe326 	beq	r3,zero,8005de0 <__d2b+0x7c>
 8005e54:	04400084 	movi	r17,2
 8005e58:	003fe206 	br	8005de4 <__d2b+0x80>
 8005e5c:	d9000104 	addi	r4,sp,4
 8005e60:	80054680 	call	8005468 <__lo0bits>
 8005e64:	00c00044 	movi	r3,1
 8005e68:	98c00415 	stw	r3,16(r19)
 8005e6c:	d8c00117 	ldw	r3,4(sp)
 8005e70:	10800804 	addi	r2,r2,32
 8005e74:	04400044 	movi	r17,1
 8005e78:	98c00515 	stw	r3,20(r19)
 8005e7c:	803fdb1e 	bne	r16,zero,8005dec <__d2b+0x88>
 8005e80:	880690ba 	slli	r3,r17,2
 8005e84:	10bef384 	addi	r2,r2,-1074
 8005e88:	8822917a 	slli	r17,r17,5
 8005e8c:	98c7883a 	add	r3,r19,r3
 8005e90:	19000417 	ldw	r4,16(r3)
 8005e94:	90800015 	stw	r2,0(r18)
 8005e98:	80054040 	call	8005404 <__hi0bits>
 8005e9c:	88a3c83a 	sub	r17,r17,r2
 8005ea0:	d8800817 	ldw	r2,32(sp)
 8005ea4:	14400015 	stw	r17,0(r2)
 8005ea8:	003fd706 	br	8005e08 <__d2b+0xa4>

08005eac <__ratio>:
 8005eac:	defff904 	addi	sp,sp,-28
 8005eb0:	dc400315 	stw	r17,12(sp)
 8005eb4:	2823883a 	mov	r17,r5
 8005eb8:	d80b883a 	mov	r5,sp
 8005ebc:	dfc00615 	stw	ra,24(sp)
 8005ec0:	dcc00515 	stw	r19,20(sp)
 8005ec4:	dc800415 	stw	r18,16(sp)
 8005ec8:	2027883a 	mov	r19,r4
 8005ecc:	dc000215 	stw	r16,8(sp)
 8005ed0:	8005c600 	call	8005c60 <__b2d>
 8005ed4:	d9400104 	addi	r5,sp,4
 8005ed8:	8809883a 	mov	r4,r17
 8005edc:	1025883a 	mov	r18,r2
 8005ee0:	1821883a 	mov	r16,r3
 8005ee4:	8005c600 	call	8005c60 <__b2d>
 8005ee8:	89400417 	ldw	r5,16(r17)
 8005eec:	99000417 	ldw	r4,16(r19)
 8005ef0:	d9800117 	ldw	r6,4(sp)
 8005ef4:	2149c83a 	sub	r4,r4,r5
 8005ef8:	d9400017 	ldw	r5,0(sp)
 8005efc:	2008917a 	slli	r4,r4,5
 8005f00:	298bc83a 	sub	r5,r5,r6
 8005f04:	2149883a 	add	r4,r4,r5
 8005f08:	01000e0e 	bge	zero,r4,8005f44 <__ratio+0x98>
 8005f0c:	2008953a 	slli	r4,r4,20
 8005f10:	2421883a 	add	r16,r4,r16
 8005f14:	100d883a 	mov	r6,r2
 8005f18:	180f883a 	mov	r7,r3
 8005f1c:	9009883a 	mov	r4,r18
 8005f20:	800b883a 	mov	r5,r16
 8005f24:	80099a40 	call	80099a4 <__divdf3>
 8005f28:	dfc00617 	ldw	ra,24(sp)
 8005f2c:	dcc00517 	ldw	r19,20(sp)
 8005f30:	dc800417 	ldw	r18,16(sp)
 8005f34:	dc400317 	ldw	r17,12(sp)
 8005f38:	dc000217 	ldw	r16,8(sp)
 8005f3c:	dec00704 	addi	sp,sp,28
 8005f40:	f800283a 	ret
 8005f44:	2008953a 	slli	r4,r4,20
 8005f48:	1907c83a 	sub	r3,r3,r4
 8005f4c:	003ff106 	br	8005f14 <__ratio+0x68>

08005f50 <_mprec_log10>:
 8005f50:	defffe04 	addi	sp,sp,-8
 8005f54:	dc000015 	stw	r16,0(sp)
 8005f58:	dfc00115 	stw	ra,4(sp)
 8005f5c:	20800608 	cmpgei	r2,r4,24
 8005f60:	2021883a 	mov	r16,r4
 8005f64:	10000d26 	beq	r2,zero,8005f9c <_mprec_log10+0x4c>
 8005f68:	0005883a 	mov	r2,zero
 8005f6c:	00cffc34 	movhi	r3,16368
 8005f70:	843fffc4 	addi	r16,r16,-1
 8005f74:	000d883a 	mov	r6,zero
 8005f78:	01d00934 	movhi	r7,16420
 8005f7c:	1009883a 	mov	r4,r2
 8005f80:	180b883a 	mov	r5,r3
 8005f84:	800a5680 	call	800a568 <__muldf3>
 8005f88:	803ff91e 	bne	r16,zero,8005f70 <_mprec_log10+0x20>
 8005f8c:	dfc00117 	ldw	ra,4(sp)
 8005f90:	dc000017 	ldw	r16,0(sp)
 8005f94:	dec00204 	addi	sp,sp,8
 8005f98:	f800283a 	ret
 8005f9c:	202090fa 	slli	r16,r4,3
 8005fa0:	00820074 	movhi	r2,2049
 8005fa4:	10b73c04 	addi	r2,r2,-8976
 8005fa8:	1421883a 	add	r16,r2,r16
 8005fac:	80800017 	ldw	r2,0(r16)
 8005fb0:	80c00117 	ldw	r3,4(r16)
 8005fb4:	dfc00117 	ldw	ra,4(sp)
 8005fb8:	dc000017 	ldw	r16,0(sp)
 8005fbc:	dec00204 	addi	sp,sp,8
 8005fc0:	f800283a 	ret

08005fc4 <__copybits>:
 8005fc4:	29ffffc4 	addi	r7,r5,-1
 8005fc8:	380fd17a 	srai	r7,r7,5
 8005fcc:	31400417 	ldw	r5,16(r6)
 8005fd0:	30800504 	addi	r2,r6,20
 8005fd4:	39c00044 	addi	r7,r7,1
 8005fd8:	280a90ba 	slli	r5,r5,2
 8005fdc:	380e90ba 	slli	r7,r7,2
 8005fe0:	114b883a 	add	r5,r2,r5
 8005fe4:	21cf883a 	add	r7,r4,r7
 8005fe8:	11400c2e 	bgeu	r2,r5,800601c <__copybits+0x58>
 8005fec:	2007883a 	mov	r3,r4
 8005ff0:	10800104 	addi	r2,r2,4
 8005ff4:	123fff17 	ldw	r8,-4(r2)
 8005ff8:	18c00104 	addi	r3,r3,4
 8005ffc:	1a3fff15 	stw	r8,-4(r3)
 8006000:	117ffb36 	bltu	r2,r5,8005ff0 <__copybits+0x2c>
 8006004:	2985c83a 	sub	r2,r5,r6
 8006008:	10bffac4 	addi	r2,r2,-21
 800600c:	1004d0ba 	srli	r2,r2,2
 8006010:	10800044 	addi	r2,r2,1
 8006014:	100490ba 	slli	r2,r2,2
 8006018:	2089883a 	add	r4,r4,r2
 800601c:	21c0032e 	bgeu	r4,r7,800602c <__copybits+0x68>
 8006020:	21000104 	addi	r4,r4,4
 8006024:	203fff15 	stw	zero,-4(r4)
 8006028:	21fffd36 	bltu	r4,r7,8006020 <__copybits+0x5c>
 800602c:	f800283a 	ret

08006030 <__any_on>:
 8006030:	20800417 	ldw	r2,16(r4)
 8006034:	280dd17a 	srai	r6,r5,5
 8006038:	21000504 	addi	r4,r4,20
 800603c:	11800c0e 	bge	r2,r6,8006070 <__any_on+0x40>
 8006040:	100690ba 	slli	r3,r2,2
 8006044:	20c7883a 	add	r3,r4,r3
 8006048:	20c0142e 	bgeu	r4,r3,800609c <__any_on+0x6c>
 800604c:	18bfff17 	ldw	r2,-4(r3)
 8006050:	18ffff04 	addi	r3,r3,-4
 8006054:	1000041e 	bne	r2,zero,8006068 <__any_on+0x38>
 8006058:	20c00f2e 	bgeu	r4,r3,8006098 <__any_on+0x68>
 800605c:	18ffff04 	addi	r3,r3,-4
 8006060:	19400017 	ldw	r5,0(r3)
 8006064:	283ffc26 	beq	r5,zero,8006058 <__any_on+0x28>
 8006068:	00800044 	movi	r2,1
 800606c:	f800283a 	ret
 8006070:	300690ba 	slli	r3,r6,2
 8006074:	20c7883a 	add	r3,r4,r3
 8006078:	30bff30e 	bge	r6,r2,8006048 <__any_on+0x18>
 800607c:	294007cc 	andi	r5,r5,31
 8006080:	283ff126 	beq	r5,zero,8006048 <__any_on+0x18>
 8006084:	19800017 	ldw	r6,0(r3)
 8006088:	3144d83a 	srl	r2,r6,r5
 800608c:	114a983a 	sll	r5,r2,r5
 8006090:	317ff51e 	bne	r6,r5,8006068 <__any_on+0x38>
 8006094:	003fec06 	br	8006048 <__any_on+0x18>
 8006098:	f800283a 	ret
 800609c:	0005883a 	mov	r2,zero
 80060a0:	f800283a 	ret

080060a4 <_sbrk_r>:
 80060a4:	defffe04 	addi	sp,sp,-8
 80060a8:	dc000015 	stw	r16,0(sp)
 80060ac:	00820074 	movhi	r2,2049
 80060b0:	2021883a 	mov	r16,r4
 80060b4:	2809883a 	mov	r4,r5
 80060b8:	dfc00115 	stw	ra,4(sp)
 80060bc:	10088515 	stw	zero,8724(r2)
 80060c0:	800baf00 	call	800baf0 <sbrk>
 80060c4:	10ffffd8 	cmpnei	r3,r2,-1
 80060c8:	18000426 	beq	r3,zero,80060dc <_sbrk_r+0x38>
 80060cc:	dfc00117 	ldw	ra,4(sp)
 80060d0:	dc000017 	ldw	r16,0(sp)
 80060d4:	dec00204 	addi	sp,sp,8
 80060d8:	f800283a 	ret
 80060dc:	00c20074 	movhi	r3,2049
 80060e0:	18c88517 	ldw	r3,8724(r3)
 80060e4:	183ff926 	beq	r3,zero,80060cc <_sbrk_r+0x28>
 80060e8:	80c00015 	stw	r3,0(r16)
 80060ec:	dfc00117 	ldw	ra,4(sp)
 80060f0:	dc000017 	ldw	r16,0(sp)
 80060f4:	dec00204 	addi	sp,sp,8
 80060f8:	f800283a 	ret

080060fc <__ssprint_r>:
 80060fc:	30800217 	ldw	r2,8(r6)
 8006100:	defff604 	addi	sp,sp,-40
 8006104:	dcc00315 	stw	r19,12(sp)
 8006108:	dfc00915 	stw	ra,36(sp)
 800610c:	df000815 	stw	fp,32(sp)
 8006110:	ddc00715 	stw	r23,28(sp)
 8006114:	dd800615 	stw	r22,24(sp)
 8006118:	dd400515 	stw	r21,20(sp)
 800611c:	dd000415 	stw	r20,16(sp)
 8006120:	dc800215 	stw	r18,8(sp)
 8006124:	dc400115 	stw	r17,4(sp)
 8006128:	dc000015 	stw	r16,0(sp)
 800612c:	3027883a 	mov	r19,r6
 8006130:	10005526 	beq	r2,zero,8006288 <__ssprint_r+0x18c>
 8006134:	2029883a 	mov	r20,r4
 8006138:	2821883a 	mov	r16,r5
 800613c:	35800017 	ldw	r22,0(r6)
 8006140:	29000017 	ldw	r4,0(r5)
 8006144:	2c400217 	ldw	r17,8(r5)
 8006148:	057edfc4 	movi	r21,-1153
 800614c:	00003506 	br	8006224 <__ssprint_r+0x128>
 8006150:	8080030b 	ldhu	r2,12(r16)
 8006154:	10c1200c 	andi	r3,r2,1152
 8006158:	18002526 	beq	r3,zero,80061f0 <__ssprint_r+0xf4>
 800615c:	84400517 	ldw	r17,20(r16)
 8006160:	81400417 	ldw	r5,16(r16)
 8006164:	90c00044 	addi	r3,r18,1
 8006168:	8c4d883a 	add	r6,r17,r17
 800616c:	344d883a 	add	r6,r6,r17
 8006170:	3022d7fa 	srli	r17,r6,31
 8006174:	216fc83a 	sub	r23,r4,r5
 8006178:	1dc7883a 	add	r3,r3,r23
 800617c:	89a3883a 	add	r17,r17,r6
 8006180:	8823d07a 	srai	r17,r17,1
 8006184:	880d883a 	mov	r6,r17
 8006188:	88c0022e 	bgeu	r17,r3,8006194 <__ssprint_r+0x98>
 800618c:	1823883a 	mov	r17,r3
 8006190:	180d883a 	mov	r6,r3
 8006194:	1081000c 	andi	r2,r2,1024
 8006198:	10002b26 	beq	r2,zero,8006248 <__ssprint_r+0x14c>
 800619c:	300b883a 	mov	r5,r6
 80061a0:	a009883a 	mov	r4,r20
 80061a4:	80047140 	call	8004714 <_malloc_r>
 80061a8:	10002e26 	beq	r2,zero,8006264 <__ssprint_r+0x168>
 80061ac:	81400417 	ldw	r5,16(r16)
 80061b0:	b80d883a 	mov	r6,r23
 80061b4:	1009883a 	mov	r4,r2
 80061b8:	8004ff00 	call	8004ff0 <memcpy>
 80061bc:	1007883a 	mov	r3,r2
 80061c0:	8080030b 	ldhu	r2,12(r16)
 80061c4:	1544703a 	and	r2,r2,r21
 80061c8:	10802014 	ori	r2,r2,128
 80061cc:	8080030d 	sth	r2,12(r16)
 80061d0:	8dc5c83a 	sub	r2,r17,r23
 80061d4:	1dc9883a 	add	r4,r3,r23
 80061d8:	84400515 	stw	r17,20(r16)
 80061dc:	80c00415 	stw	r3,16(r16)
 80061e0:	81000015 	stw	r4,0(r16)
 80061e4:	9023883a 	mov	r17,r18
 80061e8:	80800215 	stw	r2,8(r16)
 80061ec:	902f883a 	mov	r23,r18
 80061f0:	b80d883a 	mov	r6,r23
 80061f4:	e00b883a 	mov	r5,fp
 80061f8:	80079bc0 	call	80079bc <memmove>
 80061fc:	80c00217 	ldw	r3,8(r16)
 8006200:	81000017 	ldw	r4,0(r16)
 8006204:	98800217 	ldw	r2,8(r19)
 8006208:	1c63c83a 	sub	r17,r3,r17
 800620c:	25c9883a 	add	r4,r4,r23
 8006210:	84400215 	stw	r17,8(r16)
 8006214:	81000015 	stw	r4,0(r16)
 8006218:	14a5c83a 	sub	r18,r2,r18
 800621c:	9c800215 	stw	r18,8(r19)
 8006220:	90001926 	beq	r18,zero,8006288 <__ssprint_r+0x18c>
 8006224:	b4800117 	ldw	r18,4(r22)
 8006228:	b7000017 	ldw	fp,0(r22)
 800622c:	882f883a 	mov	r23,r17
 8006230:	b5800204 	addi	r22,r22,8
 8006234:	903ffb26 	beq	r18,zero,8006224 <__ssprint_r+0x128>
 8006238:	947fc52e 	bgeu	r18,r17,8006150 <__ssprint_r+0x54>
 800623c:	9023883a 	mov	r17,r18
 8006240:	902f883a 	mov	r23,r18
 8006244:	003fea06 	br	80061f0 <__ssprint_r+0xf4>
 8006248:	a009883a 	mov	r4,r20
 800624c:	8007bd80 	call	8007bd8 <_realloc_r>
 8006250:	1007883a 	mov	r3,r2
 8006254:	103fde1e 	bne	r2,zero,80061d0 <__ssprint_r+0xd4>
 8006258:	81400417 	ldw	r5,16(r16)
 800625c:	a009883a 	mov	r4,r20
 8006260:	80075e00 	call	80075e0 <_free_r>
 8006264:	80c0030b 	ldhu	r3,12(r16)
 8006268:	00800304 	movi	r2,12
 800626c:	a0800015 	stw	r2,0(r20)
 8006270:	18c01014 	ori	r3,r3,64
 8006274:	80c0030d 	sth	r3,12(r16)
 8006278:	00bfffc4 	movi	r2,-1
 800627c:	98000215 	stw	zero,8(r19)
 8006280:	98000115 	stw	zero,4(r19)
 8006284:	00000206 	br	8006290 <__ssprint_r+0x194>
 8006288:	98000115 	stw	zero,4(r19)
 800628c:	0005883a 	mov	r2,zero
 8006290:	dfc00917 	ldw	ra,36(sp)
 8006294:	df000817 	ldw	fp,32(sp)
 8006298:	ddc00717 	ldw	r23,28(sp)
 800629c:	dd800617 	ldw	r22,24(sp)
 80062a0:	dd400517 	ldw	r21,20(sp)
 80062a4:	dd000417 	ldw	r20,16(sp)
 80062a8:	dcc00317 	ldw	r19,12(sp)
 80062ac:	dc800217 	ldw	r18,8(sp)
 80062b0:	dc400117 	ldw	r17,4(sp)
 80062b4:	dc000017 	ldw	r16,0(sp)
 80062b8:	dec00a04 	addi	sp,sp,40
 80062bc:	f800283a 	ret

080062c0 <___svfiprintf_internal_r>:
 80062c0:	2880030b 	ldhu	r2,12(r5)
 80062c4:	deffd004 	addi	sp,sp,-192
 80062c8:	df002e15 	stw	fp,184(sp)
 80062cc:	dd802c15 	stw	r22,176(sp)
 80062d0:	dd002a15 	stw	r20,168(sp)
 80062d4:	dfc02f15 	stw	ra,188(sp)
 80062d8:	ddc02d15 	stw	r23,180(sp)
 80062dc:	dd402b15 	stw	r21,172(sp)
 80062e0:	dcc02915 	stw	r19,164(sp)
 80062e4:	dc802815 	stw	r18,160(sp)
 80062e8:	dc402715 	stw	r17,156(sp)
 80062ec:	dc002615 	stw	r16,152(sp)
 80062f0:	1080200c 	andi	r2,r2,128
 80062f4:	d9c00315 	stw	r7,12(sp)
 80062f8:	2829883a 	mov	r20,r5
 80062fc:	202d883a 	mov	r22,r4
 8006300:	3039883a 	mov	fp,r6
 8006304:	10000226 	beq	r2,zero,8006310 <___svfiprintf_internal_r+0x50>
 8006308:	28800417 	ldw	r2,16(r5)
 800630c:	10039f26 	beq	r2,zero,800718c <___svfiprintf_internal_r+0xecc>
 8006310:	dc801604 	addi	r18,sp,88
 8006314:	dc800915 	stw	r18,36(sp)
 8006318:	d8000b15 	stw	zero,44(sp)
 800631c:	d8000a15 	stw	zero,40(sp)
 8006320:	9011883a 	mov	r8,r18
 8006324:	d8000415 	stw	zero,16(sp)
 8006328:	d8000015 	stw	zero,0(sp)
 800632c:	e0800007 	ldb	r2,0(fp)
 8006330:	10009026 	beq	r2,zero,8006574 <___svfiprintf_internal_r+0x2b4>
 8006334:	10800960 	cmpeqi	r2,r2,37
 8006338:	1003791e 	bne	r2,zero,8007120 <___svfiprintf_internal_r+0xe60>
 800633c:	e021883a 	mov	r16,fp
 8006340:	00000206 	br	800634c <___svfiprintf_internal_r+0x8c>
 8006344:	18008126 	beq	r3,zero,800654c <___svfiprintf_internal_r+0x28c>
 8006348:	8821883a 	mov	r16,r17
 800634c:	80800047 	ldb	r2,1(r16)
 8006350:	84400044 	addi	r17,r16,1
 8006354:	10c00958 	cmpnei	r3,r2,37
 8006358:	103ffa1e 	bne	r2,zero,8006344 <___svfiprintf_internal_r+0x84>
 800635c:	8f27c83a 	sub	r19,r17,fp
 8006360:	98008426 	beq	r19,zero,8006574 <___svfiprintf_internal_r+0x2b4>
 8006364:	d8c00b17 	ldw	r3,44(sp)
 8006368:	d8800a17 	ldw	r2,40(sp)
 800636c:	47000015 	stw	fp,0(r8)
 8006370:	1cc7883a 	add	r3,r3,r19
 8006374:	10800044 	addi	r2,r2,1
 8006378:	d8800a15 	stw	r2,40(sp)
 800637c:	44c00115 	stw	r19,4(r8)
 8006380:	d8c00b15 	stw	r3,44(sp)
 8006384:	10800208 	cmpgei	r2,r2,8
 8006388:	1000731e 	bne	r2,zero,8006558 <___svfiprintf_internal_r+0x298>
 800638c:	42000204 	addi	r8,r8,8
 8006390:	d8c00017 	ldw	r3,0(sp)
 8006394:	80800047 	ldb	r2,1(r16)
 8006398:	1cc7883a 	add	r3,r3,r19
 800639c:	d8c00015 	stw	r3,0(sp)
 80063a0:	10007426 	beq	r2,zero,8006574 <___svfiprintf_internal_r+0x2b4>
 80063a4:	88800047 	ldb	r2,1(r17)
 80063a8:	8f000044 	addi	fp,r17,1
 80063ac:	d8000845 	stb	zero,33(sp)
 80063b0:	000b883a 	mov	r5,zero
 80063b4:	000d883a 	mov	r6,zero
 80063b8:	02bfffc4 	movi	r10,-1
 80063bc:	0021883a 	mov	r16,zero
 80063c0:	0019883a 	mov	r12,zero
 80063c4:	e7000044 	addi	fp,fp,1
 80063c8:	10fff804 	addi	r3,r2,-32
 80063cc:	19001668 	cmpgeui	r4,r3,89
 80063d0:	20008c1e 	bne	r4,zero,8006604 <___svfiprintf_internal_r+0x344>
 80063d4:	180690ba 	slli	r3,r3,2
 80063d8:	01020034 	movhi	r4,2048
 80063dc:	1909883a 	add	r4,r3,r4
 80063e0:	20d8fa17 	ldw	r3,25576(r4)
 80063e4:	1800683a 	jmp	r3
 80063e8:	080066dc 	xori	zero,at,411
 80063ec:	08006604 	addi	zero,at,408
 80063f0:	08006604 	addi	zero,at,408
 80063f4:	080066d0 	cmplti	zero,at,411
 80063f8:	08006604 	addi	zero,at,408
 80063fc:	08006604 	addi	zero,at,408
 8006400:	08006604 	addi	zero,at,408
 8006404:	08006604 	addi	zero,at,408
 8006408:	08006604 	addi	zero,at,408
 800640c:	08006604 	addi	zero,at,408
 8006410:	080066a8 	cmpgeui	zero,at,410
 8006414:	08006698 	cmpnei	zero,at,410
 8006418:	08006604 	addi	zero,at,408
 800641c:	08006680 	call	800668 <__alt_mem_onchip_memory2_0+0x800668>
 8006420:	08006634 	orhi	zero,at,408
 8006424:	08006604 	addi	zero,at,408
 8006428:	08006628 	cmpgeui	zero,at,408
 800642c:	080065cc 	andi	zero,at,407
 8006430:	080065cc 	andi	zero,at,407
 8006434:	080065cc 	andi	zero,at,407
 8006438:	080065cc 	andi	zero,at,407
 800643c:	080065cc 	andi	zero,at,407
 8006440:	080065cc 	andi	zero,at,407
 8006444:	080065cc 	andi	zero,at,407
 8006448:	080065cc 	andi	zero,at,407
 800644c:	080065cc 	andi	zero,at,407
 8006450:	08006604 	addi	zero,at,408
 8006454:	08006604 	addi	zero,at,408
 8006458:	08006604 	addi	zero,at,408
 800645c:	08006604 	addi	zero,at,408
 8006460:	08006604 	addi	zero,at,408
 8006464:	08006604 	addi	zero,at,408
 8006468:	08006604 	addi	zero,at,408
 800646c:	08006604 	addi	zero,at,408
 8006470:	08006604 	addi	zero,at,408
 8006474:	08006604 	addi	zero,at,408
 8006478:	08006c48 	cmpgei	zero,at,433
 800647c:	08006604 	addi	zero,at,408
 8006480:	08006604 	addi	zero,at,408
 8006484:	08006604 	addi	zero,at,408
 8006488:	08006604 	addi	zero,at,408
 800648c:	08006604 	addi	zero,at,408
 8006490:	08006604 	addi	zero,at,408
 8006494:	08006604 	addi	zero,at,408
 8006498:	08006604 	addi	zero,at,408
 800649c:	08006604 	addi	zero,at,408
 80064a0:	08006604 	addi	zero,at,408
 80064a4:	08006c14 	ori	zero,at,432
 80064a8:	08006604 	addi	zero,at,408
 80064ac:	08006604 	addi	zero,at,408
 80064b0:	08006604 	addi	zero,at,408
 80064b4:	08006604 	addi	zero,at,408
 80064b8:	08006604 	addi	zero,at,408
 80064bc:	08006be0 	cmpeqi	zero,at,431
 80064c0:	08006604 	addi	zero,at,408
 80064c4:	08006604 	addi	zero,at,408
 80064c8:	08006b98 	cmpnei	zero,at,430
 80064cc:	08006604 	addi	zero,at,408
 80064d0:	08006604 	addi	zero,at,408
 80064d4:	08006604 	addi	zero,at,408
 80064d8:	08006604 	addi	zero,at,408
 80064dc:	08006604 	addi	zero,at,408
 80064e0:	08006604 	addi	zero,at,408
 80064e4:	08006604 	addi	zero,at,408
 80064e8:	08006604 	addi	zero,at,408
 80064ec:	08006604 	addi	zero,at,408
 80064f0:	08006604 	addi	zero,at,408
 80064f4:	08006b68 	cmpgeui	zero,at,429
 80064f8:	08006af4 	orhi	zero,at,427
 80064fc:	08006604 	addi	zero,at,408
 8006500:	08006604 	addi	zero,at,408
 8006504:	08006604 	addi	zero,at,408
 8006508:	08006ae8 	cmpgeui	zero,at,427
 800650c:	08006af4 	orhi	zero,at,427
 8006510:	08006604 	addi	zero,at,408
 8006514:	08006604 	addi	zero,at,408
 8006518:	08006ad4 	ori	zero,at,427
 800651c:	08006604 	addi	zero,at,408
 8006520:	08006a94 	ori	zero,at,426
 8006524:	08006a54 	ori	zero,at,425
 8006528:	080067fc 	xorhi	zero,at,415
 800652c:	080067f0 	cmpltui	zero,at,415
 8006530:	08006604 	addi	zero,at,408
 8006534:	08006790 	cmplti	zero,at,414
 8006538:	08006604 	addi	zero,at,408
 800653c:	08006750 	cmplti	zero,at,413
 8006540:	08006604 	addi	zero,at,408
 8006544:	08006604 	addi	zero,at,408
 8006548:	08006708 	cmpgei	zero,at,412
 800654c:	8f27c83a 	sub	r19,r17,fp
 8006550:	983f9426 	beq	r19,zero,80063a4 <___svfiprintf_internal_r+0xe4>
 8006554:	003f8306 	br	8006364 <___svfiprintf_internal_r+0xa4>
 8006558:	d9800904 	addi	r6,sp,36
 800655c:	a00b883a 	mov	r5,r20
 8006560:	b009883a 	mov	r4,r22
 8006564:	80060fc0 	call	80060fc <__ssprint_r>
 8006568:	1000081e 	bne	r2,zero,800658c <___svfiprintf_internal_r+0x2cc>
 800656c:	9011883a 	mov	r8,r18
 8006570:	003f8706 	br	8006390 <___svfiprintf_internal_r+0xd0>
 8006574:	d8800b17 	ldw	r2,44(sp)
 8006578:	10000426 	beq	r2,zero,800658c <___svfiprintf_internal_r+0x2cc>
 800657c:	d9800904 	addi	r6,sp,36
 8006580:	a00b883a 	mov	r5,r20
 8006584:	b009883a 	mov	r4,r22
 8006588:	80060fc0 	call	80060fc <__ssprint_r>
 800658c:	a080030b 	ldhu	r2,12(r20)
 8006590:	1080100c 	andi	r2,r2,64
 8006594:	1003841e 	bne	r2,zero,80073a8 <___svfiprintf_internal_r+0x10e8>
 8006598:	d8800017 	ldw	r2,0(sp)
 800659c:	dfc02f17 	ldw	ra,188(sp)
 80065a0:	df002e17 	ldw	fp,184(sp)
 80065a4:	ddc02d17 	ldw	r23,180(sp)
 80065a8:	dd802c17 	ldw	r22,176(sp)
 80065ac:	dd402b17 	ldw	r21,172(sp)
 80065b0:	dd002a17 	ldw	r20,168(sp)
 80065b4:	dcc02917 	ldw	r19,164(sp)
 80065b8:	dc802817 	ldw	r18,160(sp)
 80065bc:	dc402717 	ldw	r17,156(sp)
 80065c0:	dc002617 	ldw	r16,152(sp)
 80065c4:	dec03004 	addi	sp,sp,192
 80065c8:	f800283a 	ret
 80065cc:	0021883a 	mov	r16,zero
 80065d0:	113ff404 	addi	r4,r2,-48
 80065d4:	800690ba 	slli	r3,r16,2
 80065d8:	e7000044 	addi	fp,fp,1
 80065dc:	e0bfffc7 	ldb	r2,-1(fp)
 80065e0:	1c21883a 	add	r16,r3,r16
 80065e4:	8421883a 	add	r16,r16,r16
 80065e8:	2421883a 	add	r16,r4,r16
 80065ec:	113ff404 	addi	r4,r2,-48
 80065f0:	20c002b0 	cmpltui	r3,r4,10
 80065f4:	183ff71e 	bne	r3,zero,80065d4 <___svfiprintf_internal_r+0x314>
 80065f8:	10fff804 	addi	r3,r2,-32
 80065fc:	19001668 	cmpgeui	r4,r3,89
 8006600:	203f7426 	beq	r4,zero,80063d4 <___svfiprintf_internal_r+0x114>
 8006604:	29403fcc 	andi	r5,r5,255
 8006608:	28034a1e 	bne	r5,zero,8007334 <___svfiprintf_internal_r+0x1074>
 800660c:	103fd926 	beq	r2,zero,8006574 <___svfiprintf_internal_r+0x2b4>
 8006610:	d8800c05 	stb	r2,48(sp)
 8006614:	d8000845 	stb	zero,33(sp)
 8006618:	04c00044 	movi	r19,1
 800661c:	05400044 	movi	r21,1
 8006620:	ddc00c04 	addi	r23,sp,48
 8006624:	00015906 	br	8006b8c <___svfiprintf_internal_r+0x8cc>
 8006628:	63002014 	ori	r12,r12,128
 800662c:	e0800007 	ldb	r2,0(fp)
 8006630:	003f6406 	br	80063c4 <___svfiprintf_internal_r+0x104>
 8006634:	e0800007 	ldb	r2,0(fp)
 8006638:	e0c00044 	addi	r3,fp,1
 800663c:	11000aa0 	cmpeqi	r4,r2,42
 8006640:	20035c1e 	bne	r4,zero,80073b4 <___svfiprintf_internal_r+0x10f4>
 8006644:	113ff404 	addi	r4,r2,-48
 8006648:	21c002b0 	cmpltui	r7,r4,10
 800664c:	1839883a 	mov	fp,r3
 8006650:	0015883a 	mov	r10,zero
 8006654:	383f5c26 	beq	r7,zero,80063c8 <___svfiprintf_internal_r+0x108>
 8006658:	500690ba 	slli	r3,r10,2
 800665c:	e7000044 	addi	fp,fp,1
 8006660:	e0bfffc7 	ldb	r2,-1(fp)
 8006664:	1a87883a 	add	r3,r3,r10
 8006668:	18c7883a 	add	r3,r3,r3
 800666c:	1915883a 	add	r10,r3,r4
 8006670:	113ff404 	addi	r4,r2,-48
 8006674:	20c002b0 	cmpltui	r3,r4,10
 8006678:	183ff71e 	bne	r3,zero,8006658 <___svfiprintf_internal_r+0x398>
 800667c:	003f5206 	br	80063c8 <___svfiprintf_internal_r+0x108>
 8006680:	e0800003 	ldbu	r2,0(fp)
 8006684:	10803fcc 	andi	r2,r2,255
 8006688:	1080201c 	xori	r2,r2,128
 800668c:	63000114 	ori	r12,r12,4
 8006690:	10bfe004 	addi	r2,r2,-128
 8006694:	003f4b06 	br	80063c4 <___svfiprintf_internal_r+0x104>
 8006698:	01400044 	movi	r5,1
 800669c:	01800ac4 	movi	r6,43
 80066a0:	e0800007 	ldb	r2,0(fp)
 80066a4:	003f4706 	br	80063c4 <___svfiprintf_internal_r+0x104>
 80066a8:	d8800317 	ldw	r2,12(sp)
 80066ac:	14000017 	ldw	r16,0(r2)
 80066b0:	15c00104 	addi	r23,r2,4
 80066b4:	e0800003 	ldbu	r2,0(fp)
 80066b8:	8002ee16 	blt	r16,zero,8007274 <___svfiprintf_internal_r+0xfb4>
 80066bc:	ddc00315 	stw	r23,12(sp)
 80066c0:	10803fcc 	andi	r2,r2,255
 80066c4:	1080201c 	xori	r2,r2,128
 80066c8:	10bfe004 	addi	r2,r2,-128
 80066cc:	003f3d06 	br	80063c4 <___svfiprintf_internal_r+0x104>
 80066d0:	63000054 	ori	r12,r12,1
 80066d4:	e0800007 	ldb	r2,0(fp)
 80066d8:	003f3a06 	br	80063c4 <___svfiprintf_internal_r+0x104>
 80066dc:	30c03fcc 	andi	r3,r6,255
 80066e0:	18c0201c 	xori	r3,r3,128
 80066e4:	18ffe004 	addi	r3,r3,-128
 80066e8:	e0800003 	ldbu	r2,0(fp)
 80066ec:	183ff41e 	bne	r3,zero,80066c0 <___svfiprintf_internal_r+0x400>
 80066f0:	10803fcc 	andi	r2,r2,255
 80066f4:	1080201c 	xori	r2,r2,128
 80066f8:	01400044 	movi	r5,1
 80066fc:	01800804 	movi	r6,32
 8006700:	10bfe004 	addi	r2,r2,-128
 8006704:	003f2f06 	br	80063c4 <___svfiprintf_internal_r+0x104>
 8006708:	29403fcc 	andi	r5,r5,255
 800670c:	28030f1e 	bne	r5,zero,800734c <___svfiprintf_internal_r+0x108c>
 8006710:	00c20074 	movhi	r3,2049
 8006714:	18f71104 	addi	r3,r3,-9148
 8006718:	d8c00415 	stw	r3,16(sp)
 800671c:	60c0080c 	andi	r3,r12,32
 8006720:	18012426 	beq	r3,zero,8006bb4 <___svfiprintf_internal_r+0x8f4>
 8006724:	d8c00317 	ldw	r3,12(sp)
 8006728:	1cc00017 	ldw	r19,0(r3)
 800672c:	1d400117 	ldw	r21,4(r3)
 8006730:	18c00204 	addi	r3,r3,8
 8006734:	d8c00315 	stw	r3,12(sp)
 8006738:	60c0004c 	andi	r3,r12,1
 800673c:	18000226 	beq	r3,zero,8006748 <___svfiprintf_internal_r+0x488>
 8006740:	9d46b03a 	or	r3,r19,r21
 8006744:	1802811e 	bne	r3,zero,800714c <___svfiprintf_internal_r+0xe8c>
 8006748:	00800084 	movi	r2,2
 800674c:	00003906 	br	8006834 <___svfiprintf_internal_r+0x574>
 8006750:	29403fcc 	andi	r5,r5,255
 8006754:	2803091e 	bne	r5,zero,800737c <___svfiprintf_internal_r+0x10bc>
 8006758:	6080080c 	andi	r2,r12,32
 800675c:	10017e1e 	bne	r2,zero,8006d58 <___svfiprintf_internal_r+0xa98>
 8006760:	d8800317 	ldw	r2,12(sp)
 8006764:	60c0040c 	andi	r3,r12,16
 8006768:	14c00017 	ldw	r19,0(r2)
 800676c:	10800104 	addi	r2,r2,4
 8006770:	1801221e 	bne	r3,zero,8006bfc <___svfiprintf_internal_r+0x93c>
 8006774:	60c0100c 	andi	r3,r12,64
 8006778:	1802e626 	beq	r3,zero,8007314 <___svfiprintf_internal_r+0x1054>
 800677c:	d8800315 	stw	r2,12(sp)
 8006780:	9cffffcc 	andi	r19,r19,65535
 8006784:	002b883a 	mov	r21,zero
 8006788:	00800044 	movi	r2,1
 800678c:	00002906 	br	8006834 <___svfiprintf_internal_r+0x574>
 8006790:	d8800317 	ldw	r2,12(sp)
 8006794:	d8000845 	stb	zero,33(sp)
 8006798:	15c00017 	ldw	r23,0(r2)
 800679c:	14400104 	addi	r17,r2,4
 80067a0:	b802cf26 	beq	r23,zero,80072e0 <___svfiprintf_internal_r+0x1020>
 80067a4:	50bfffe0 	cmpeqi	r2,r10,-1
 80067a8:	10026e1e 	bne	r2,zero,8007164 <___svfiprintf_internal_r+0xea4>
 80067ac:	500d883a 	mov	r6,r10
 80067b0:	000b883a 	mov	r5,zero
 80067b4:	b809883a 	mov	r4,r23
 80067b8:	da000315 	stw	r8,12(sp)
 80067bc:	db000215 	stw	r12,8(sp)
 80067c0:	da800115 	stw	r10,4(sp)
 80067c4:	8004f080 	call	8004f08 <memchr>
 80067c8:	da800117 	ldw	r10,4(sp)
 80067cc:	db000217 	ldw	r12,8(sp)
 80067d0:	da000317 	ldw	r8,12(sp)
 80067d4:	1002d926 	beq	r2,zero,800733c <___svfiprintf_internal_r+0x107c>
 80067d8:	15ebc83a 	sub	r21,r2,r23
 80067dc:	a827883a 	mov	r19,r21
 80067e0:	a800010e 	bge	r21,zero,80067e8 <___svfiprintf_internal_r+0x528>
 80067e4:	0027883a 	mov	r19,zero
 80067e8:	dc400315 	stw	r17,12(sp)
 80067ec:	0000e706 	br	8006b8c <___svfiprintf_internal_r+0x8cc>
 80067f0:	63000814 	ori	r12,r12,32
 80067f4:	e0800007 	ldb	r2,0(fp)
 80067f8:	003ef206 	br	80063c4 <___svfiprintf_internal_r+0x104>
 80067fc:	d8c00317 	ldw	r3,12(sp)
 8006800:	00800c04 	movi	r2,48
 8006804:	d8800885 	stb	r2,34(sp)
 8006808:	00801e04 	movi	r2,120
 800680c:	01020074 	movhi	r4,2049
 8006810:	d88008c5 	stb	r2,35(sp)
 8006814:	1cc00017 	ldw	r19,0(r3)
 8006818:	18800104 	addi	r2,r3,4
 800681c:	d8800315 	stw	r2,12(sp)
 8006820:	20b71104 	addi	r2,r4,-9148
 8006824:	d8800415 	stw	r2,16(sp)
 8006828:	002b883a 	mov	r21,zero
 800682c:	63000094 	ori	r12,r12,2
 8006830:	00800084 	movi	r2,2
 8006834:	d8000845 	stb	zero,33(sp)
 8006838:	50ffffe0 	cmpeqi	r3,r10,-1
 800683c:	001b883a 	mov	r13,zero
 8006840:	1801181e 	bne	r3,zero,8006ca4 <___svfiprintf_internal_r+0x9e4>
 8006844:	047fdfc4 	movi	r17,-129
 8006848:	9d46b03a 	or	r3,r19,r21
 800684c:	6462703a 	and	r17,r12,r17
 8006850:	1801d21e 	bne	r3,zero,8006f9c <___svfiprintf_internal_r+0xcdc>
 8006854:	50028a1e 	bne	r10,zero,8007280 <___svfiprintf_internal_r+0xfc0>
 8006858:	1000bf1e 	bne	r2,zero,8006b58 <___svfiprintf_internal_r+0x898>
 800685c:	6540004c 	andi	r21,r12,1
 8006860:	a8023126 	beq	r21,zero,8007128 <___svfiprintf_internal_r+0xe68>
 8006864:	00800c04 	movi	r2,48
 8006868:	d88015c5 	stb	r2,87(sp)
 800686c:	ddc015c4 	addi	r23,sp,87
 8006870:	5027883a 	mov	r19,r10
 8006874:	5540010e 	bge	r10,r21,800687c <___svfiprintf_internal_r+0x5bc>
 8006878:	a827883a 	mov	r19,r21
 800687c:	6b403fcc 	andi	r13,r13,255
 8006880:	6b40201c 	xori	r13,r13,128
 8006884:	6b7fe004 	addi	r13,r13,-128
 8006888:	68000126 	beq	r13,zero,8006890 <___svfiprintf_internal_r+0x5d0>
 800688c:	9cc00044 	addi	r19,r19,1
 8006890:	8b40008c 	andi	r13,r17,2
 8006894:	68000126 	beq	r13,zero,800689c <___svfiprintf_internal_r+0x5dc>
 8006898:	9cc00084 	addi	r19,r19,2
 800689c:	8b00210c 	andi	r12,r17,132
 80068a0:	d8800b17 	ldw	r2,44(sp)
 80068a4:	d9000a17 	ldw	r4,40(sp)
 80068a8:	6000021e 	bne	r12,zero,80068b4 <___svfiprintf_internal_r+0x5f4>
 80068ac:	84c7c83a 	sub	r3,r16,r19
 80068b0:	00c1bc16 	blt	zero,r3,8006fa4 <___svfiprintf_internal_r+0xce4>
 80068b4:	d8c00847 	ldb	r3,33(sp)
 80068b8:	21800044 	addi	r6,r4,1
 80068bc:	41400204 	addi	r5,r8,8
 80068c0:	18000f26 	beq	r3,zero,8006900 <___svfiprintf_internal_r+0x640>
 80068c4:	d8c00844 	addi	r3,sp,33
 80068c8:	10800044 	addi	r2,r2,1
 80068cc:	40c00015 	stw	r3,0(r8)
 80068d0:	00c00044 	movi	r3,1
 80068d4:	40c00115 	stw	r3,4(r8)
 80068d8:	d8800b15 	stw	r2,44(sp)
 80068dc:	d9800a15 	stw	r6,40(sp)
 80068e0:	30c00208 	cmpgei	r3,r6,8
 80068e4:	1801e11e 	bne	r3,zero,800706c <___svfiprintf_internal_r+0xdac>
 80068e8:	21c00084 	addi	r7,r4,2
 80068ec:	40c00404 	addi	r3,r8,16
 80068f0:	3009883a 	mov	r4,r6
 80068f4:	2811883a 	mov	r8,r5
 80068f8:	380d883a 	mov	r6,r7
 80068fc:	180b883a 	mov	r5,r3
 8006900:	68000d26 	beq	r13,zero,8006938 <___svfiprintf_internal_r+0x678>
 8006904:	d8c00884 	addi	r3,sp,34
 8006908:	10800084 	addi	r2,r2,2
 800690c:	40c00015 	stw	r3,0(r8)
 8006910:	00c00084 	movi	r3,2
 8006914:	40c00115 	stw	r3,4(r8)
 8006918:	d8800b15 	stw	r2,44(sp)
 800691c:	d9800a15 	stw	r6,40(sp)
 8006920:	30c00208 	cmpgei	r3,r6,8
 8006924:	1801e21e 	bne	r3,zero,80070b0 <___svfiprintf_internal_r+0xdf0>
 8006928:	3009883a 	mov	r4,r6
 800692c:	2811883a 	mov	r8,r5
 8006930:	31800044 	addi	r6,r6,1
 8006934:	29400204 	addi	r5,r5,8
 8006938:	63002018 	cmpnei	r12,r12,128
 800693c:	60011626 	beq	r12,zero,8006d98 <___svfiprintf_internal_r+0xad8>
 8006940:	5547c83a 	sub	r3,r10,r21
 8006944:	00c14816 	blt	zero,r3,8006e68 <___svfiprintf_internal_r+0xba8>
 8006948:	a885883a 	add	r2,r21,r2
 800694c:	d9800a15 	stw	r6,40(sp)
 8006950:	45c00015 	stw	r23,0(r8)
 8006954:	45400115 	stw	r21,4(r8)
 8006958:	d8800b15 	stw	r2,44(sp)
 800695c:	31800210 	cmplti	r6,r6,8
 8006960:	30017026 	beq	r6,zero,8006f24 <___svfiprintf_internal_r+0xc64>
 8006964:	8c40010c 	andi	r17,r17,4
 8006968:	88000226 	beq	r17,zero,8006974 <___svfiprintf_internal_r+0x6b4>
 800696c:	84e3c83a 	sub	r17,r16,r19
 8006970:	04400916 	blt	zero,r17,8006998 <___svfiprintf_internal_r+0x6d8>
 8006974:	84c0010e 	bge	r16,r19,800697c <___svfiprintf_internal_r+0x6bc>
 8006978:	9821883a 	mov	r16,r19
 800697c:	d8c00017 	ldw	r3,0(sp)
 8006980:	1c07883a 	add	r3,r3,r16
 8006984:	d8c00015 	stw	r3,0(sp)
 8006988:	10017e1e 	bne	r2,zero,8006f84 <___svfiprintf_internal_r+0xcc4>
 800698c:	d8000a15 	stw	zero,40(sp)
 8006990:	9011883a 	mov	r8,r18
 8006994:	003e6506 	br	800632c <___svfiprintf_internal_r+0x6c>
 8006998:	01c20074 	movhi	r7,2049
 800699c:	89000450 	cmplti	r4,r17,17
 80069a0:	39f77204 	addi	r7,r7,-8760
 80069a4:	d8c00a17 	ldw	r3,40(sp)
 80069a8:	05400404 	movi	r21,16
 80069ac:	20000526 	beq	r4,zero,80069c4 <___svfiprintf_internal_r+0x704>
 80069b0:	00001906 	br	8006a18 <___svfiprintf_internal_r+0x758>
 80069b4:	8c7ffc04 	addi	r17,r17,-16
 80069b8:	89000448 	cmpgei	r4,r17,17
 80069bc:	29400204 	addi	r5,r5,8
 80069c0:	20001526 	beq	r4,zero,8006a18 <___svfiprintf_internal_r+0x758>
 80069c4:	18c00044 	addi	r3,r3,1
 80069c8:	10800404 	addi	r2,r2,16
 80069cc:	29c00015 	stw	r7,0(r5)
 80069d0:	2d400115 	stw	r21,4(r5)
 80069d4:	d8800b15 	stw	r2,44(sp)
 80069d8:	d8c00a15 	stw	r3,40(sp)
 80069dc:	19000208 	cmpgei	r4,r3,8
 80069e0:	203ff426 	beq	r4,zero,80069b4 <___svfiprintf_internal_r+0x6f4>
 80069e4:	d9800904 	addi	r6,sp,36
 80069e8:	a00b883a 	mov	r5,r20
 80069ec:	b009883a 	mov	r4,r22
 80069f0:	d9c00115 	stw	r7,4(sp)
 80069f4:	80060fc0 	call	80060fc <__ssprint_r>
 80069f8:	103ee41e 	bne	r2,zero,800658c <___svfiprintf_internal_r+0x2cc>
 80069fc:	8c7ffc04 	addi	r17,r17,-16
 8006a00:	89000448 	cmpgei	r4,r17,17
 8006a04:	d8800b17 	ldw	r2,44(sp)
 8006a08:	d8c00a17 	ldw	r3,40(sp)
 8006a0c:	900b883a 	mov	r5,r18
 8006a10:	d9c00117 	ldw	r7,4(sp)
 8006a14:	203feb1e 	bne	r4,zero,80069c4 <___svfiprintf_internal_r+0x704>
 8006a18:	18c00044 	addi	r3,r3,1
 8006a1c:	1445883a 	add	r2,r2,r17
 8006a20:	d8c00a15 	stw	r3,40(sp)
 8006a24:	29c00015 	stw	r7,0(r5)
 8006a28:	2c400115 	stw	r17,4(r5)
 8006a2c:	d8800b15 	stw	r2,44(sp)
 8006a30:	18c00210 	cmplti	r3,r3,8
 8006a34:	183fcf1e 	bne	r3,zero,8006974 <___svfiprintf_internal_r+0x6b4>
 8006a38:	d9800904 	addi	r6,sp,36
 8006a3c:	a00b883a 	mov	r5,r20
 8006a40:	b009883a 	mov	r4,r22
 8006a44:	80060fc0 	call	80060fc <__ssprint_r>
 8006a48:	103ed01e 	bne	r2,zero,800658c <___svfiprintf_internal_r+0x2cc>
 8006a4c:	d8800b17 	ldw	r2,44(sp)
 8006a50:	003fc806 	br	8006974 <___svfiprintf_internal_r+0x6b4>
 8006a54:	29403fcc 	andi	r5,r5,255
 8006a58:	28024c1e 	bne	r5,zero,800738c <___svfiprintf_internal_r+0x10cc>
 8006a5c:	6080080c 	andi	r2,r12,32
 8006a60:	1000af1e 	bne	r2,zero,8006d20 <___svfiprintf_internal_r+0xa60>
 8006a64:	d8800317 	ldw	r2,12(sp)
 8006a68:	60c0040c 	andi	r3,r12,16
 8006a6c:	14c00017 	ldw	r19,0(r2)
 8006a70:	10800104 	addi	r2,r2,4
 8006a74:	18006e1e 	bne	r3,zero,8006c30 <___svfiprintf_internal_r+0x970>
 8006a78:	60c0100c 	andi	r3,r12,64
 8006a7c:	18022126 	beq	r3,zero,8007304 <___svfiprintf_internal_r+0x1044>
 8006a80:	d8800315 	stw	r2,12(sp)
 8006a84:	9cffffcc 	andi	r19,r19,65535
 8006a88:	002b883a 	mov	r21,zero
 8006a8c:	0005883a 	mov	r2,zero
 8006a90:	003f6806 	br	8006834 <___svfiprintf_internal_r+0x574>
 8006a94:	29403fcc 	andi	r5,r5,255
 8006a98:	28023a1e 	bne	r5,zero,8007384 <___svfiprintf_internal_r+0x10c4>
 8006a9c:	d9000317 	ldw	r4,12(sp)
 8006aa0:	6080080c 	andi	r2,r12,32
 8006aa4:	20c00104 	addi	r3,r4,4
 8006aa8:	1001a11e 	bne	r2,zero,8007130 <___svfiprintf_internal_r+0xe70>
 8006aac:	6080040c 	andi	r2,r12,16
 8006ab0:	1001be1e 	bne	r2,zero,80071ac <___svfiprintf_internal_r+0xeec>
 8006ab4:	6300100c 	andi	r12,r12,64
 8006ab8:	6001bc26 	beq	r12,zero,80071ac <___svfiprintf_internal_r+0xeec>
 8006abc:	d8800317 	ldw	r2,12(sp)
 8006ac0:	d8c00315 	stw	r3,12(sp)
 8006ac4:	d8c00017 	ldw	r3,0(sp)
 8006ac8:	10800017 	ldw	r2,0(r2)
 8006acc:	10c0000d 	sth	r3,0(r2)
 8006ad0:	003e1606 	br	800632c <___svfiprintf_internal_r+0x6c>
 8006ad4:	e0800007 	ldb	r2,0(fp)
 8006ad8:	10c01b18 	cmpnei	r3,r2,108
 8006adc:	1801ec26 	beq	r3,zero,8007290 <___svfiprintf_internal_r+0xfd0>
 8006ae0:	63000414 	ori	r12,r12,16
 8006ae4:	003e3706 	br	80063c4 <___svfiprintf_internal_r+0x104>
 8006ae8:	63001014 	ori	r12,r12,64
 8006aec:	e0800007 	ldb	r2,0(fp)
 8006af0:	003e3406 	br	80063c4 <___svfiprintf_internal_r+0x104>
 8006af4:	29403fcc 	andi	r5,r5,255
 8006af8:	28021e1e 	bne	r5,zero,8007374 <___svfiprintf_internal_r+0x10b4>
 8006afc:	6080080c 	andi	r2,r12,32
 8006b00:	10008e1e 	bne	r2,zero,8006d3c <___svfiprintf_internal_r+0xa7c>
 8006b04:	d8800317 	ldw	r2,12(sp)
 8006b08:	60c0040c 	andi	r3,r12,16
 8006b0c:	10800104 	addi	r2,r2,4
 8006b10:	1800541e 	bne	r3,zero,8006c64 <___svfiprintf_internal_r+0x9a4>
 8006b14:	60c0100c 	andi	r3,r12,64
 8006b18:	18005226 	beq	r3,zero,8006c64 <___svfiprintf_internal_r+0x9a4>
 8006b1c:	d8c00317 	ldw	r3,12(sp)
 8006b20:	d8800315 	stw	r2,12(sp)
 8006b24:	1cc0000f 	ldh	r19,0(r3)
 8006b28:	982bd7fa 	srai	r21,r19,31
 8006b2c:	a805883a 	mov	r2,r21
 8006b30:	10005216 	blt	r2,zero,8006c7c <___svfiprintf_internal_r+0x9bc>
 8006b34:	50bfffd8 	cmpnei	r2,r10,-1
 8006b38:	db400843 	ldbu	r13,33(sp)
 8006b3c:	10008d26 	beq	r2,zero,8006d74 <___svfiprintf_internal_r+0xab4>
 8006b40:	00ffdfc4 	movi	r3,-129
 8006b44:	9d44b03a 	or	r2,r19,r21
 8006b48:	60d8703a 	and	r12,r12,r3
 8006b4c:	1000891e 	bne	r2,zero,8006d74 <___svfiprintf_internal_r+0xab4>
 8006b50:	50008b1e 	bne	r10,zero,8006d80 <___svfiprintf_internal_r+0xac0>
 8006b54:	6023883a 	mov	r17,r12
 8006b58:	0015883a 	mov	r10,zero
 8006b5c:	002b883a 	mov	r21,zero
 8006b60:	902f883a 	mov	r23,r18
 8006b64:	003f4206 	br	8006870 <___svfiprintf_internal_r+0x5b0>
 8006b68:	d8c00317 	ldw	r3,12(sp)
 8006b6c:	d8000845 	stb	zero,33(sp)
 8006b70:	04c00044 	movi	r19,1
 8006b74:	18800017 	ldw	r2,0(r3)
 8006b78:	18c00104 	addi	r3,r3,4
 8006b7c:	d8c00315 	stw	r3,12(sp)
 8006b80:	d8800c05 	stb	r2,48(sp)
 8006b84:	05400044 	movi	r21,1
 8006b88:	ddc00c04 	addi	r23,sp,48
 8006b8c:	6023883a 	mov	r17,r12
 8006b90:	0015883a 	mov	r10,zero
 8006b94:	003f3e06 	br	8006890 <___svfiprintf_internal_r+0x5d0>
 8006b98:	29403fcc 	andi	r5,r5,255
 8006b9c:	2801ed1e 	bne	r5,zero,8007354 <___svfiprintf_internal_r+0x1094>
 8006ba0:	00c20074 	movhi	r3,2049
 8006ba4:	18f70c04 	addi	r3,r3,-9168
 8006ba8:	d8c00415 	stw	r3,16(sp)
 8006bac:	60c0080c 	andi	r3,r12,32
 8006bb0:	183edc1e 	bne	r3,zero,8006724 <___svfiprintf_internal_r+0x464>
 8006bb4:	d9000317 	ldw	r4,12(sp)
 8006bb8:	60c0040c 	andi	r3,r12,16
 8006bbc:	24c00017 	ldw	r19,0(r4)
 8006bc0:	21000104 	addi	r4,r4,4
 8006bc4:	d9000315 	stw	r4,12(sp)
 8006bc8:	1801481e 	bne	r3,zero,80070ec <___svfiprintf_internal_r+0xe2c>
 8006bcc:	60c0100c 	andi	r3,r12,64
 8006bd0:	18014626 	beq	r3,zero,80070ec <___svfiprintf_internal_r+0xe2c>
 8006bd4:	9cffffcc 	andi	r19,r19,65535
 8006bd8:	002b883a 	mov	r21,zero
 8006bdc:	003ed606 	br	8006738 <___svfiprintf_internal_r+0x478>
 8006be0:	29403fcc 	andi	r5,r5,255
 8006be4:	2801dd1e 	bne	r5,zero,800735c <___svfiprintf_internal_r+0x109c>
 8006be8:	6080080c 	andi	r2,r12,32
 8006bec:	63000414 	ori	r12,r12,16
 8006bf0:	1000591e 	bne	r2,zero,8006d58 <___svfiprintf_internal_r+0xa98>
 8006bf4:	d8800317 	ldw	r2,12(sp)
 8006bf8:	10800104 	addi	r2,r2,4
 8006bfc:	d8c00317 	ldw	r3,12(sp)
 8006c00:	002b883a 	mov	r21,zero
 8006c04:	d8800315 	stw	r2,12(sp)
 8006c08:	1cc00017 	ldw	r19,0(r3)
 8006c0c:	00800044 	movi	r2,1
 8006c10:	003f0806 	br	8006834 <___svfiprintf_internal_r+0x574>
 8006c14:	29403fcc 	andi	r5,r5,255
 8006c18:	2801d21e 	bne	r5,zero,8007364 <___svfiprintf_internal_r+0x10a4>
 8006c1c:	6080080c 	andi	r2,r12,32
 8006c20:	63000414 	ori	r12,r12,16
 8006c24:	10003e1e 	bne	r2,zero,8006d20 <___svfiprintf_internal_r+0xa60>
 8006c28:	d8800317 	ldw	r2,12(sp)
 8006c2c:	10800104 	addi	r2,r2,4
 8006c30:	d8c00317 	ldw	r3,12(sp)
 8006c34:	002b883a 	mov	r21,zero
 8006c38:	d8800315 	stw	r2,12(sp)
 8006c3c:	1cc00017 	ldw	r19,0(r3)
 8006c40:	0005883a 	mov	r2,zero
 8006c44:	003efb06 	br	8006834 <___svfiprintf_internal_r+0x574>
 8006c48:	29403fcc 	andi	r5,r5,255
 8006c4c:	2801c71e 	bne	r5,zero,800736c <___svfiprintf_internal_r+0x10ac>
 8006c50:	6080080c 	andi	r2,r12,32
 8006c54:	63000414 	ori	r12,r12,16
 8006c58:	1000381e 	bne	r2,zero,8006d3c <___svfiprintf_internal_r+0xa7c>
 8006c5c:	d8800317 	ldw	r2,12(sp)
 8006c60:	10800104 	addi	r2,r2,4
 8006c64:	d8c00317 	ldw	r3,12(sp)
 8006c68:	1cc00017 	ldw	r19,0(r3)
 8006c6c:	d8800315 	stw	r2,12(sp)
 8006c70:	982bd7fa 	srai	r21,r19,31
 8006c74:	a805883a 	mov	r2,r21
 8006c78:	103fae0e 	bge	r2,zero,8006b34 <___svfiprintf_internal_r+0x874>
 8006c7c:	04e7c83a 	sub	r19,zero,r19
 8006c80:	9804c03a 	cmpne	r2,r19,zero
 8006c84:	056bc83a 	sub	r21,zero,r21
 8006c88:	a8abc83a 	sub	r21,r21,r2
 8006c8c:	00800b44 	movi	r2,45
 8006c90:	d8800845 	stb	r2,33(sp)
 8006c94:	50ffffe0 	cmpeqi	r3,r10,-1
 8006c98:	03400b44 	movi	r13,45
 8006c9c:	00800044 	movi	r2,1
 8006ca0:	183ee826 	beq	r3,zero,8006844 <___svfiprintf_internal_r+0x584>
 8006ca4:	10c00060 	cmpeqi	r3,r2,1
 8006ca8:	1800321e 	bne	r3,zero,8006d74 <___svfiprintf_internal_r+0xab4>
 8006cac:	108000a0 	cmpeqi	r2,r2,2
 8006cb0:	1000a41e 	bne	r2,zero,8006f44 <___svfiprintf_internal_r+0xc84>
 8006cb4:	9007883a 	mov	r3,r18
 8006cb8:	00000106 	br	8006cc0 <___svfiprintf_internal_r+0xa00>
 8006cbc:	b807883a 	mov	r3,r23
 8006cc0:	9808d0fa 	srli	r4,r19,3
 8006cc4:	a80a977a 	slli	r5,r21,29
 8006cc8:	a82ad0fa 	srli	r21,r21,3
 8006ccc:	9cc001cc 	andi	r19,r19,7
 8006cd0:	98800c04 	addi	r2,r19,48
 8006cd4:	2926b03a 	or	r19,r5,r4
 8006cd8:	18bfffc5 	stb	r2,-1(r3)
 8006cdc:	9d48b03a 	or	r4,r19,r21
 8006ce0:	1dffffc4 	addi	r23,r3,-1
 8006ce4:	203ff51e 	bne	r4,zero,8006cbc <___svfiprintf_internal_r+0x9fc>
 8006ce8:	6100004c 	andi	r4,r12,1
 8006cec:	2000a226 	beq	r4,zero,8006f78 <___svfiprintf_internal_r+0xcb8>
 8006cf0:	10803fcc 	andi	r2,r2,255
 8006cf4:	1080201c 	xori	r2,r2,128
 8006cf8:	10bfe004 	addi	r2,r2,-128
 8006cfc:	10800c18 	cmpnei	r2,r2,48
 8006d00:	10009d26 	beq	r2,zero,8006f78 <___svfiprintf_internal_r+0xcb8>
 8006d04:	18ffff84 	addi	r3,r3,-2
 8006d08:	00800c04 	movi	r2,48
 8006d0c:	b8bfffc5 	stb	r2,-1(r23)
 8006d10:	90ebc83a 	sub	r21,r18,r3
 8006d14:	6023883a 	mov	r17,r12
 8006d18:	182f883a 	mov	r23,r3
 8006d1c:	003ed406 	br	8006870 <___svfiprintf_internal_r+0x5b0>
 8006d20:	d8c00317 	ldw	r3,12(sp)
 8006d24:	0005883a 	mov	r2,zero
 8006d28:	1cc00017 	ldw	r19,0(r3)
 8006d2c:	1d400117 	ldw	r21,4(r3)
 8006d30:	18c00204 	addi	r3,r3,8
 8006d34:	d8c00315 	stw	r3,12(sp)
 8006d38:	003ebe06 	br	8006834 <___svfiprintf_internal_r+0x574>
 8006d3c:	d8c00317 	ldw	r3,12(sp)
 8006d40:	18800117 	ldw	r2,4(r3)
 8006d44:	1cc00017 	ldw	r19,0(r3)
 8006d48:	18c00204 	addi	r3,r3,8
 8006d4c:	d8c00315 	stw	r3,12(sp)
 8006d50:	102b883a 	mov	r21,r2
 8006d54:	003f7606 	br	8006b30 <___svfiprintf_internal_r+0x870>
 8006d58:	d8c00317 	ldw	r3,12(sp)
 8006d5c:	00800044 	movi	r2,1
 8006d60:	1cc00017 	ldw	r19,0(r3)
 8006d64:	1d400117 	ldw	r21,4(r3)
 8006d68:	18c00204 	addi	r3,r3,8
 8006d6c:	d8c00315 	stw	r3,12(sp)
 8006d70:	003eb006 	br	8006834 <___svfiprintf_internal_r+0x574>
 8006d74:	a801131e 	bne	r21,zero,80071c4 <___svfiprintf_internal_r+0xf04>
 8006d78:	988002a8 	cmpgeui	r2,r19,10
 8006d7c:	1001111e 	bne	r2,zero,80071c4 <___svfiprintf_internal_r+0xf04>
 8006d80:	9cc00c04 	addi	r19,r19,48
 8006d84:	dcc015c5 	stb	r19,87(sp)
 8006d88:	6023883a 	mov	r17,r12
 8006d8c:	05400044 	movi	r21,1
 8006d90:	ddc015c4 	addi	r23,sp,87
 8006d94:	003eb606 	br	8006870 <___svfiprintf_internal_r+0x5b0>
 8006d98:	84c7c83a 	sub	r3,r16,r19
 8006d9c:	00fee80e 	bge	zero,r3,8006940 <___svfiprintf_internal_r+0x680>
 8006da0:	19c00450 	cmplti	r7,r3,17
 8006da4:	38017b1e 	bne	r7,zero,8007394 <___svfiprintf_internal_r+0x10d4>
 8006da8:	01c20074 	movhi	r7,2049
 8006dac:	39f76e04 	addi	r7,r7,-8776
 8006db0:	03000404 	movi	r12,16
 8006db4:	00000406 	br	8006dc8 <___svfiprintf_internal_r+0xb08>
 8006db8:	18fffc04 	addi	r3,r3,-16
 8006dbc:	19400448 	cmpgei	r5,r3,17
 8006dc0:	42000204 	addi	r8,r8,8
 8006dc4:	28001a26 	beq	r5,zero,8006e30 <___svfiprintf_internal_r+0xb70>
 8006dc8:	21000044 	addi	r4,r4,1
 8006dcc:	10800404 	addi	r2,r2,16
 8006dd0:	41c00015 	stw	r7,0(r8)
 8006dd4:	43000115 	stw	r12,4(r8)
 8006dd8:	d8800b15 	stw	r2,44(sp)
 8006ddc:	d9000a15 	stw	r4,40(sp)
 8006de0:	21400208 	cmpgei	r5,r4,8
 8006de4:	283ff426 	beq	r5,zero,8006db8 <___svfiprintf_internal_r+0xaf8>
 8006de8:	d9800904 	addi	r6,sp,36
 8006dec:	a00b883a 	mov	r5,r20
 8006df0:	b009883a 	mov	r4,r22
 8006df4:	d9c00515 	stw	r7,20(sp)
 8006df8:	d8c00215 	stw	r3,8(sp)
 8006dfc:	da800115 	stw	r10,4(sp)
 8006e00:	80060fc0 	call	80060fc <__ssprint_r>
 8006e04:	103de11e 	bne	r2,zero,800658c <___svfiprintf_internal_r+0x2cc>
 8006e08:	d8c00217 	ldw	r3,8(sp)
 8006e0c:	d8800b17 	ldw	r2,44(sp)
 8006e10:	d9000a17 	ldw	r4,40(sp)
 8006e14:	18fffc04 	addi	r3,r3,-16
 8006e18:	19400448 	cmpgei	r5,r3,17
 8006e1c:	9011883a 	mov	r8,r18
 8006e20:	d9c00517 	ldw	r7,20(sp)
 8006e24:	03000404 	movi	r12,16
 8006e28:	da800117 	ldw	r10,4(sp)
 8006e2c:	283fe61e 	bne	r5,zero,8006dc8 <___svfiprintf_internal_r+0xb08>
 8006e30:	21000044 	addi	r4,r4,1
 8006e34:	43000204 	addi	r12,r8,8
 8006e38:	10c5883a 	add	r2,r2,r3
 8006e3c:	40c00115 	stw	r3,4(r8)
 8006e40:	41c00015 	stw	r7,0(r8)
 8006e44:	d8800b15 	stw	r2,44(sp)
 8006e48:	d9000a15 	stw	r4,40(sp)
 8006e4c:	20c00208 	cmpgei	r3,r4,8
 8006e50:	1801161e 	bne	r3,zero,80072ac <___svfiprintf_internal_r+0xfec>
 8006e54:	5547c83a 	sub	r3,r10,r21
 8006e58:	21800044 	addi	r6,r4,1
 8006e5c:	61400204 	addi	r5,r12,8
 8006e60:	6011883a 	mov	r8,r12
 8006e64:	00feb80e 	bge	zero,r3,8006948 <___svfiprintf_internal_r+0x688>
 8006e68:	19c00450 	cmplti	r7,r3,17
 8006e6c:	38012d1e 	bne	r7,zero,8007324 <___svfiprintf_internal_r+0x1064>
 8006e70:	01c20074 	movhi	r7,2049
 8006e74:	39f76e04 	addi	r7,r7,-8776
 8006e78:	02800404 	movi	r10,16
 8006e7c:	00000406 	br	8006e90 <___svfiprintf_internal_r+0xbd0>
 8006e80:	18fffc04 	addi	r3,r3,-16
 8006e84:	19400448 	cmpgei	r5,r3,17
 8006e88:	42000204 	addi	r8,r8,8
 8006e8c:	28001826 	beq	r5,zero,8006ef0 <___svfiprintf_internal_r+0xc30>
 8006e90:	21000044 	addi	r4,r4,1
 8006e94:	10800404 	addi	r2,r2,16
 8006e98:	41c00015 	stw	r7,0(r8)
 8006e9c:	42800115 	stw	r10,4(r8)
 8006ea0:	d8800b15 	stw	r2,44(sp)
 8006ea4:	d9000a15 	stw	r4,40(sp)
 8006ea8:	21400208 	cmpgei	r5,r4,8
 8006eac:	283ff426 	beq	r5,zero,8006e80 <___svfiprintf_internal_r+0xbc0>
 8006eb0:	d9800904 	addi	r6,sp,36
 8006eb4:	a00b883a 	mov	r5,r20
 8006eb8:	b009883a 	mov	r4,r22
 8006ebc:	d9c00215 	stw	r7,8(sp)
 8006ec0:	d8c00115 	stw	r3,4(sp)
 8006ec4:	80060fc0 	call	80060fc <__ssprint_r>
 8006ec8:	103db01e 	bne	r2,zero,800658c <___svfiprintf_internal_r+0x2cc>
 8006ecc:	d8c00117 	ldw	r3,4(sp)
 8006ed0:	d8800b17 	ldw	r2,44(sp)
 8006ed4:	d9000a17 	ldw	r4,40(sp)
 8006ed8:	18fffc04 	addi	r3,r3,-16
 8006edc:	19400448 	cmpgei	r5,r3,17
 8006ee0:	9011883a 	mov	r8,r18
 8006ee4:	d9c00217 	ldw	r7,8(sp)
 8006ee8:	02800404 	movi	r10,16
 8006eec:	283fe81e 	bne	r5,zero,8006e90 <___svfiprintf_internal_r+0xbd0>
 8006ef0:	21800044 	addi	r6,r4,1
 8006ef4:	41000204 	addi	r4,r8,8
 8006ef8:	10c5883a 	add	r2,r2,r3
 8006efc:	40c00115 	stw	r3,4(r8)
 8006f00:	41c00015 	stw	r7,0(r8)
 8006f04:	d8800b15 	stw	r2,44(sp)
 8006f08:	d9800a15 	stw	r6,40(sp)
 8006f0c:	30c00208 	cmpgei	r3,r6,8
 8006f10:	1800781e 	bne	r3,zero,80070f4 <___svfiprintf_internal_r+0xe34>
 8006f14:	31800044 	addi	r6,r6,1
 8006f18:	21400204 	addi	r5,r4,8
 8006f1c:	2011883a 	mov	r8,r4
 8006f20:	003e8906 	br	8006948 <___svfiprintf_internal_r+0x688>
 8006f24:	d9800904 	addi	r6,sp,36
 8006f28:	a00b883a 	mov	r5,r20
 8006f2c:	b009883a 	mov	r4,r22
 8006f30:	80060fc0 	call	80060fc <__ssprint_r>
 8006f34:	103d951e 	bne	r2,zero,800658c <___svfiprintf_internal_r+0x2cc>
 8006f38:	d8800b17 	ldw	r2,44(sp)
 8006f3c:	900b883a 	mov	r5,r18
 8006f40:	003e8806 	br	8006964 <___svfiprintf_internal_r+0x6a4>
 8006f44:	902f883a 	mov	r23,r18
 8006f48:	d9000417 	ldw	r4,16(sp)
 8006f4c:	988003cc 	andi	r2,r19,15
 8006f50:	a806973a 	slli	r3,r21,28
 8006f54:	2085883a 	add	r2,r4,r2
 8006f58:	9826d13a 	srli	r19,r19,4
 8006f5c:	10800003 	ldbu	r2,0(r2)
 8006f60:	a82ad13a 	srli	r21,r21,4
 8006f64:	bdffffc4 	addi	r23,r23,-1
 8006f68:	1ce6b03a 	or	r19,r3,r19
 8006f6c:	b8800005 	stb	r2,0(r23)
 8006f70:	9d44b03a 	or	r2,r19,r21
 8006f74:	103ff41e 	bne	r2,zero,8006f48 <___svfiprintf_internal_r+0xc88>
 8006f78:	95ebc83a 	sub	r21,r18,r23
 8006f7c:	6023883a 	mov	r17,r12
 8006f80:	003e3b06 	br	8006870 <___svfiprintf_internal_r+0x5b0>
 8006f84:	d9800904 	addi	r6,sp,36
 8006f88:	a00b883a 	mov	r5,r20
 8006f8c:	b009883a 	mov	r4,r22
 8006f90:	80060fc0 	call	80060fc <__ssprint_r>
 8006f94:	103e7d26 	beq	r2,zero,800698c <___svfiprintf_internal_r+0x6cc>
 8006f98:	003d7c06 	br	800658c <___svfiprintf_internal_r+0x2cc>
 8006f9c:	8819883a 	mov	r12,r17
 8006fa0:	003f4006 	br	8006ca4 <___svfiprintf_internal_r+0x9e4>
 8006fa4:	01c20074 	movhi	r7,2049
 8006fa8:	19400450 	cmplti	r5,r3,17
 8006fac:	39f77204 	addi	r7,r7,-8760
 8006fb0:	03800404 	movi	r14,16
 8006fb4:	28000526 	beq	r5,zero,8006fcc <___svfiprintf_internal_r+0xd0c>
 8006fb8:	00002206 	br	8007044 <___svfiprintf_internal_r+0xd84>
 8006fbc:	18fffc04 	addi	r3,r3,-16
 8006fc0:	19400448 	cmpgei	r5,r3,17
 8006fc4:	42000204 	addi	r8,r8,8
 8006fc8:	28001e26 	beq	r5,zero,8007044 <___svfiprintf_internal_r+0xd84>
 8006fcc:	21000044 	addi	r4,r4,1
 8006fd0:	10800404 	addi	r2,r2,16
 8006fd4:	41c00015 	stw	r7,0(r8)
 8006fd8:	43800115 	stw	r14,4(r8)
 8006fdc:	d8800b15 	stw	r2,44(sp)
 8006fe0:	d9000a15 	stw	r4,40(sp)
 8006fe4:	21400208 	cmpgei	r5,r4,8
 8006fe8:	283ff426 	beq	r5,zero,8006fbc <___svfiprintf_internal_r+0xcfc>
 8006fec:	d9800904 	addi	r6,sp,36
 8006ff0:	a00b883a 	mov	r5,r20
 8006ff4:	b009883a 	mov	r4,r22
 8006ff8:	d9c00715 	stw	r7,28(sp)
 8006ffc:	d8c00615 	stw	r3,24(sp)
 8007000:	da800515 	stw	r10,20(sp)
 8007004:	db000215 	stw	r12,8(sp)
 8007008:	db400115 	stw	r13,4(sp)
 800700c:	80060fc0 	call	80060fc <__ssprint_r>
 8007010:	103d5e1e 	bne	r2,zero,800658c <___svfiprintf_internal_r+0x2cc>
 8007014:	d8c00617 	ldw	r3,24(sp)
 8007018:	d8800b17 	ldw	r2,44(sp)
 800701c:	d9000a17 	ldw	r4,40(sp)
 8007020:	18fffc04 	addi	r3,r3,-16
 8007024:	19400448 	cmpgei	r5,r3,17
 8007028:	9011883a 	mov	r8,r18
 800702c:	d9c00717 	ldw	r7,28(sp)
 8007030:	03800404 	movi	r14,16
 8007034:	da800517 	ldw	r10,20(sp)
 8007038:	db000217 	ldw	r12,8(sp)
 800703c:	db400117 	ldw	r13,4(sp)
 8007040:	283fe21e 	bne	r5,zero,8006fcc <___svfiprintf_internal_r+0xd0c>
 8007044:	21000044 	addi	r4,r4,1
 8007048:	10c5883a 	add	r2,r2,r3
 800704c:	40c00115 	stw	r3,4(r8)
 8007050:	41c00015 	stw	r7,0(r8)
 8007054:	d8800b15 	stw	r2,44(sp)
 8007058:	d9000a15 	stw	r4,40(sp)
 800705c:	20c00208 	cmpgei	r3,r4,8
 8007060:	1800751e 	bne	r3,zero,8007238 <___svfiprintf_internal_r+0xf78>
 8007064:	42000204 	addi	r8,r8,8
 8007068:	003e1206 	br	80068b4 <___svfiprintf_internal_r+0x5f4>
 800706c:	d9800904 	addi	r6,sp,36
 8007070:	a00b883a 	mov	r5,r20
 8007074:	b009883a 	mov	r4,r22
 8007078:	da800515 	stw	r10,20(sp)
 800707c:	db000215 	stw	r12,8(sp)
 8007080:	db400115 	stw	r13,4(sp)
 8007084:	80060fc0 	call	80060fc <__ssprint_r>
 8007088:	103d401e 	bne	r2,zero,800658c <___svfiprintf_internal_r+0x2cc>
 800708c:	d9000a17 	ldw	r4,40(sp)
 8007090:	d8800b17 	ldw	r2,44(sp)
 8007094:	d9401804 	addi	r5,sp,96
 8007098:	21800044 	addi	r6,r4,1
 800709c:	9011883a 	mov	r8,r18
 80070a0:	da800517 	ldw	r10,20(sp)
 80070a4:	db000217 	ldw	r12,8(sp)
 80070a8:	db400117 	ldw	r13,4(sp)
 80070ac:	003e1406 	br	8006900 <___svfiprintf_internal_r+0x640>
 80070b0:	d9800904 	addi	r6,sp,36
 80070b4:	a00b883a 	mov	r5,r20
 80070b8:	b009883a 	mov	r4,r22
 80070bc:	da800215 	stw	r10,8(sp)
 80070c0:	db000115 	stw	r12,4(sp)
 80070c4:	80060fc0 	call	80060fc <__ssprint_r>
 80070c8:	103d301e 	bne	r2,zero,800658c <___svfiprintf_internal_r+0x2cc>
 80070cc:	d9000a17 	ldw	r4,40(sp)
 80070d0:	d8800b17 	ldw	r2,44(sp)
 80070d4:	d9401804 	addi	r5,sp,96
 80070d8:	21800044 	addi	r6,r4,1
 80070dc:	9011883a 	mov	r8,r18
 80070e0:	da800217 	ldw	r10,8(sp)
 80070e4:	db000117 	ldw	r12,4(sp)
 80070e8:	003e1306 	br	8006938 <___svfiprintf_internal_r+0x678>
 80070ec:	002b883a 	mov	r21,zero
 80070f0:	003d9106 	br	8006738 <___svfiprintf_internal_r+0x478>
 80070f4:	d9800904 	addi	r6,sp,36
 80070f8:	a00b883a 	mov	r5,r20
 80070fc:	b009883a 	mov	r4,r22
 8007100:	80060fc0 	call	80060fc <__ssprint_r>
 8007104:	103d211e 	bne	r2,zero,800658c <___svfiprintf_internal_r+0x2cc>
 8007108:	d9800a17 	ldw	r6,40(sp)
 800710c:	d8800b17 	ldw	r2,44(sp)
 8007110:	d9401804 	addi	r5,sp,96
 8007114:	31800044 	addi	r6,r6,1
 8007118:	9011883a 	mov	r8,r18
 800711c:	003e0a06 	br	8006948 <___svfiprintf_internal_r+0x688>
 8007120:	e023883a 	mov	r17,fp
 8007124:	003c9f06 	br	80063a4 <___svfiprintf_internal_r+0xe4>
 8007128:	902f883a 	mov	r23,r18
 800712c:	003dd006 	br	8006870 <___svfiprintf_internal_r+0x5b0>
 8007130:	d9400017 	ldw	r5,0(sp)
 8007134:	20800017 	ldw	r2,0(r4)
 8007138:	d8c00315 	stw	r3,12(sp)
 800713c:	2809d7fa 	srai	r4,r5,31
 8007140:	11400015 	stw	r5,0(r2)
 8007144:	11000115 	stw	r4,4(r2)
 8007148:	003c7806 	br	800632c <___svfiprintf_internal_r+0x6c>
 800714c:	00c00c04 	movi	r3,48
 8007150:	d88008c5 	stb	r2,35(sp)
 8007154:	d8c00885 	stb	r3,34(sp)
 8007158:	63000094 	ori	r12,r12,2
 800715c:	00800084 	movi	r2,2
 8007160:	003db406 	br	8006834 <___svfiprintf_internal_r+0x574>
 8007164:	b809883a 	mov	r4,r23
 8007168:	da000215 	stw	r8,8(sp)
 800716c:	db000115 	stw	r12,4(sp)
 8007170:	8000c200 	call	8000c20 <strlen>
 8007174:	102b883a 	mov	r21,r2
 8007178:	1027883a 	mov	r19,r2
 800717c:	dc400315 	stw	r17,12(sp)
 8007180:	db000117 	ldw	r12,4(sp)
 8007184:	da000217 	ldw	r8,8(sp)
 8007188:	003e8006 	br	8006b8c <___svfiprintf_internal_r+0x8cc>
 800718c:	01401004 	movi	r5,64
 8007190:	80047140 	call	8004714 <_malloc_r>
 8007194:	a0800015 	stw	r2,0(r20)
 8007198:	a0800415 	stw	r2,16(r20)
 800719c:	10009126 	beq	r2,zero,80073e4 <___svfiprintf_internal_r+0x1124>
 80071a0:	00801004 	movi	r2,64
 80071a4:	a0800515 	stw	r2,20(r20)
 80071a8:	003c5906 	br	8006310 <___svfiprintf_internal_r+0x50>
 80071ac:	d8800317 	ldw	r2,12(sp)
 80071b0:	10800017 	ldw	r2,0(r2)
 80071b4:	d8c00315 	stw	r3,12(sp)
 80071b8:	d8c00017 	ldw	r3,0(sp)
 80071bc:	10c00015 	stw	r3,0(r2)
 80071c0:	003c5a06 	br	800632c <___svfiprintf_internal_r+0x6c>
 80071c4:	902f883a 	mov	r23,r18
 80071c8:	00000206 	br	80071d4 <___svfiprintf_internal_r+0xf14>
 80071cc:	1027883a 	mov	r19,r2
 80071d0:	182b883a 	mov	r21,r3
 80071d4:	9809883a 	mov	r4,r19
 80071d8:	a80b883a 	mov	r5,r21
 80071dc:	01800284 	movi	r6,10
 80071e0:	000f883a 	mov	r7,zero
 80071e4:	db400615 	stw	r13,24(sp)
 80071e8:	da000515 	stw	r8,20(sp)
 80071ec:	da800215 	stw	r10,8(sp)
 80071f0:	db000115 	stw	r12,4(sp)
 80071f4:	8008a3c0 	call	8008a3c <__umoddi3>
 80071f8:	10800c04 	addi	r2,r2,48
 80071fc:	bdffffc4 	addi	r23,r23,-1
 8007200:	9809883a 	mov	r4,r19
 8007204:	a80b883a 	mov	r5,r21
 8007208:	b8800005 	stb	r2,0(r23)
 800720c:	01800284 	movi	r6,10
 8007210:	000f883a 	mov	r7,zero
 8007214:	80084200 	call	8008420 <__udivdi3>
 8007218:	db000117 	ldw	r12,4(sp)
 800721c:	da800217 	ldw	r10,8(sp)
 8007220:	da000517 	ldw	r8,20(sp)
 8007224:	db400617 	ldw	r13,24(sp)
 8007228:	a83fe81e 	bne	r21,zero,80071cc <___svfiprintf_internal_r+0xf0c>
 800722c:	9cc002a8 	cmpgeui	r19,r19,10
 8007230:	983fe61e 	bne	r19,zero,80071cc <___svfiprintf_internal_r+0xf0c>
 8007234:	003f5006 	br	8006f78 <___svfiprintf_internal_r+0xcb8>
 8007238:	d9800904 	addi	r6,sp,36
 800723c:	a00b883a 	mov	r5,r20
 8007240:	b009883a 	mov	r4,r22
 8007244:	da800515 	stw	r10,20(sp)
 8007248:	db000215 	stw	r12,8(sp)
 800724c:	db400115 	stw	r13,4(sp)
 8007250:	80060fc0 	call	80060fc <__ssprint_r>
 8007254:	103ccd1e 	bne	r2,zero,800658c <___svfiprintf_internal_r+0x2cc>
 8007258:	d8800b17 	ldw	r2,44(sp)
 800725c:	d9000a17 	ldw	r4,40(sp)
 8007260:	9011883a 	mov	r8,r18
 8007264:	da800517 	ldw	r10,20(sp)
 8007268:	db000217 	ldw	r12,8(sp)
 800726c:	db400117 	ldw	r13,4(sp)
 8007270:	003d9006 	br	80068b4 <___svfiprintf_internal_r+0x5f4>
 8007274:	0421c83a 	sub	r16,zero,r16
 8007278:	ddc00315 	stw	r23,12(sp)
 800727c:	003d0106 	br	8006684 <___svfiprintf_internal_r+0x3c4>
 8007280:	10c00060 	cmpeqi	r3,r2,1
 8007284:	8819883a 	mov	r12,r17
 8007288:	183e8826 	beq	r3,zero,8006cac <___svfiprintf_internal_r+0x9ec>
 800728c:	003ebc06 	br	8006d80 <___svfiprintf_internal_r+0xac0>
 8007290:	e0800043 	ldbu	r2,1(fp)
 8007294:	63000814 	ori	r12,r12,32
 8007298:	e7000044 	addi	fp,fp,1
 800729c:	10803fcc 	andi	r2,r2,255
 80072a0:	1080201c 	xori	r2,r2,128
 80072a4:	10bfe004 	addi	r2,r2,-128
 80072a8:	003c4606 	br	80063c4 <___svfiprintf_internal_r+0x104>
 80072ac:	d9800904 	addi	r6,sp,36
 80072b0:	a00b883a 	mov	r5,r20
 80072b4:	b009883a 	mov	r4,r22
 80072b8:	da800115 	stw	r10,4(sp)
 80072bc:	80060fc0 	call	80060fc <__ssprint_r>
 80072c0:	103cb21e 	bne	r2,zero,800658c <___svfiprintf_internal_r+0x2cc>
 80072c4:	d9000a17 	ldw	r4,40(sp)
 80072c8:	d8800b17 	ldw	r2,44(sp)
 80072cc:	d9401804 	addi	r5,sp,96
 80072d0:	21800044 	addi	r6,r4,1
 80072d4:	9011883a 	mov	r8,r18
 80072d8:	da800117 	ldw	r10,4(sp)
 80072dc:	003d9806 	br	8006940 <___svfiprintf_internal_r+0x680>
 80072e0:	508001f0 	cmpltui	r2,r10,7
 80072e4:	502b883a 	mov	r21,r10
 80072e8:	1000011e 	bne	r2,zero,80072f0 <___svfiprintf_internal_r+0x1030>
 80072ec:	05400184 	movi	r21,6
 80072f0:	05c20074 	movhi	r23,2049
 80072f4:	a827883a 	mov	r19,r21
 80072f8:	dc400315 	stw	r17,12(sp)
 80072fc:	bdf71604 	addi	r23,r23,-9128
 8007300:	003e2206 	br	8006b8c <___svfiprintf_internal_r+0x8cc>
 8007304:	d8800315 	stw	r2,12(sp)
 8007308:	002b883a 	mov	r21,zero
 800730c:	0005883a 	mov	r2,zero
 8007310:	003d4806 	br	8006834 <___svfiprintf_internal_r+0x574>
 8007314:	d8800315 	stw	r2,12(sp)
 8007318:	002b883a 	mov	r21,zero
 800731c:	00800044 	movi	r2,1
 8007320:	003d4406 	br	8006834 <___svfiprintf_internal_r+0x574>
 8007324:	01c20074 	movhi	r7,2049
 8007328:	2809883a 	mov	r4,r5
 800732c:	39f76e04 	addi	r7,r7,-8776
 8007330:	003ef106 	br	8006ef8 <___svfiprintf_internal_r+0xc38>
 8007334:	d9800845 	stb	r6,33(sp)
 8007338:	003cb406 	br	800660c <___svfiprintf_internal_r+0x34c>
 800733c:	5027883a 	mov	r19,r10
 8007340:	dc400315 	stw	r17,12(sp)
 8007344:	502b883a 	mov	r21,r10
 8007348:	003e1006 	br	8006b8c <___svfiprintf_internal_r+0x8cc>
 800734c:	d9800845 	stb	r6,33(sp)
 8007350:	003cef06 	br	8006710 <___svfiprintf_internal_r+0x450>
 8007354:	d9800845 	stb	r6,33(sp)
 8007358:	003e1106 	br	8006ba0 <___svfiprintf_internal_r+0x8e0>
 800735c:	d9800845 	stb	r6,33(sp)
 8007360:	003e2106 	br	8006be8 <___svfiprintf_internal_r+0x928>
 8007364:	d9800845 	stb	r6,33(sp)
 8007368:	003e2c06 	br	8006c1c <___svfiprintf_internal_r+0x95c>
 800736c:	d9800845 	stb	r6,33(sp)
 8007370:	003e3706 	br	8006c50 <___svfiprintf_internal_r+0x990>
 8007374:	d9800845 	stb	r6,33(sp)
 8007378:	003de006 	br	8006afc <___svfiprintf_internal_r+0x83c>
 800737c:	d9800845 	stb	r6,33(sp)
 8007380:	003cf506 	br	8006758 <___svfiprintf_internal_r+0x498>
 8007384:	d9800845 	stb	r6,33(sp)
 8007388:	003dc406 	br	8006a9c <___svfiprintf_internal_r+0x7dc>
 800738c:	d9800845 	stb	r6,33(sp)
 8007390:	003db206 	br	8006a5c <___svfiprintf_internal_r+0x79c>
 8007394:	01c20074 	movhi	r7,2049
 8007398:	2819883a 	mov	r12,r5
 800739c:	3009883a 	mov	r4,r6
 80073a0:	39f76e04 	addi	r7,r7,-8776
 80073a4:	003ea406 	br	8006e38 <___svfiprintf_internal_r+0xb78>
 80073a8:	00bfffc4 	movi	r2,-1
 80073ac:	d8800015 	stw	r2,0(sp)
 80073b0:	003c7906 	br	8006598 <___svfiprintf_internal_r+0x2d8>
 80073b4:	d8800317 	ldw	r2,12(sp)
 80073b8:	12800017 	ldw	r10,0(r2)
 80073bc:	15c00104 	addi	r23,r2,4
 80073c0:	5000010e 	bge	r10,zero,80073c8 <___svfiprintf_internal_r+0x1108>
 80073c4:	02bfffc4 	movi	r10,-1
 80073c8:	e0800043 	ldbu	r2,1(fp)
 80073cc:	ddc00315 	stw	r23,12(sp)
 80073d0:	1839883a 	mov	fp,r3
 80073d4:	10803fcc 	andi	r2,r2,255
 80073d8:	1080201c 	xori	r2,r2,128
 80073dc:	10bfe004 	addi	r2,r2,-128
 80073e0:	003bf806 	br	80063c4 <___svfiprintf_internal_r+0x104>
 80073e4:	00800304 	movi	r2,12
 80073e8:	b0800015 	stw	r2,0(r22)
 80073ec:	00bfffc4 	movi	r2,-1
 80073f0:	d8800015 	stw	r2,0(sp)
 80073f4:	003c6806 	br	8006598 <___svfiprintf_internal_r+0x2d8>

080073f8 <_calloc_r>:
 80073f8:	defffe04 	addi	sp,sp,-8
 80073fc:	2805883a 	mov	r2,r5
 8007400:	dc000015 	stw	r16,0(sp)
 8007404:	300b883a 	mov	r5,r6
 8007408:	2021883a 	mov	r16,r4
 800740c:	1009883a 	mov	r4,r2
 8007410:	dfc00115 	stw	ra,4(sp)
 8007414:	8000acc0 	call	8000acc <__mulsi3>
 8007418:	100b883a 	mov	r5,r2
 800741c:	8009883a 	mov	r4,r16
 8007420:	80047140 	call	8004714 <_malloc_r>
 8007424:	1007883a 	mov	r3,r2
 8007428:	10000c26 	beq	r2,zero,800745c <_calloc_r+0x64>
 800742c:	11bfff17 	ldw	r6,-4(r2)
 8007430:	00bfff04 	movi	r2,-4
 8007434:	308c703a 	and	r6,r6,r2
 8007438:	31bfff04 	addi	r6,r6,-4
 800743c:	30800968 	cmpgeui	r2,r6,37
 8007440:	1000151e 	bne	r2,zero,8007498 <_calloc_r+0xa0>
 8007444:	30800530 	cmpltui	r2,r6,20
 8007448:	10000926 	beq	r2,zero,8007470 <_calloc_r+0x78>
 800744c:	1805883a 	mov	r2,r3
 8007450:	10000015 	stw	zero,0(r2)
 8007454:	10000115 	stw	zero,4(r2)
 8007458:	10000215 	stw	zero,8(r2)
 800745c:	1805883a 	mov	r2,r3
 8007460:	dfc00117 	ldw	ra,4(sp)
 8007464:	dc000017 	ldw	r16,0(sp)
 8007468:	dec00204 	addi	sp,sp,8
 800746c:	f800283a 	ret
 8007470:	18000015 	stw	zero,0(r3)
 8007474:	18000115 	stw	zero,4(r3)
 8007478:	30800728 	cmpgeui	r2,r6,28
 800747c:	10000b26 	beq	r2,zero,80074ac <_calloc_r+0xb4>
 8007480:	18000215 	stw	zero,8(r3)
 8007484:	18000315 	stw	zero,12(r3)
 8007488:	31800920 	cmpeqi	r6,r6,36
 800748c:	3000091e 	bne	r6,zero,80074b4 <_calloc_r+0xbc>
 8007490:	18800404 	addi	r2,r3,16
 8007494:	003fee06 	br	8007450 <_calloc_r+0x58>
 8007498:	1809883a 	mov	r4,r3
 800749c:	000b883a 	mov	r5,zero
 80074a0:	8007ae80 	call	8007ae8 <memset>
 80074a4:	1007883a 	mov	r3,r2
 80074a8:	003fec06 	br	800745c <_calloc_r+0x64>
 80074ac:	18800204 	addi	r2,r3,8
 80074b0:	003fe706 	br	8007450 <_calloc_r+0x58>
 80074b4:	18000415 	stw	zero,16(r3)
 80074b8:	18800604 	addi	r2,r3,24
 80074bc:	18000515 	stw	zero,20(r3)
 80074c0:	003fe306 	br	8007450 <_calloc_r+0x58>

080074c4 <_malloc_trim_r>:
 80074c4:	defffb04 	addi	sp,sp,-20
 80074c8:	dcc00315 	stw	r19,12(sp)
 80074cc:	04c20074 	movhi	r19,2049
 80074d0:	dc800215 	stw	r18,8(sp)
 80074d4:	dc400115 	stw	r17,4(sp)
 80074d8:	dc000015 	stw	r16,0(sp)
 80074dc:	dfc00415 	stw	ra,16(sp)
 80074e0:	2821883a 	mov	r16,r5
 80074e4:	9cfa8504 	addi	r19,r19,-5612
 80074e8:	2025883a 	mov	r18,r4
 80074ec:	800baa80 	call	800baa8 <__malloc_lock>
 80074f0:	98800217 	ldw	r2,8(r19)
 80074f4:	14400117 	ldw	r17,4(r2)
 80074f8:	00bfff04 	movi	r2,-4
 80074fc:	88a2703a 	and	r17,r17,r2
 8007500:	8c21c83a 	sub	r16,r17,r16
 8007504:	8403fbc4 	addi	r16,r16,4079
 8007508:	8020d33a 	srli	r16,r16,12
 800750c:	843fffc4 	addi	r16,r16,-1
 8007510:	8020933a 	slli	r16,r16,12
 8007514:	80840008 	cmpgei	r2,r16,4096
 8007518:	10000626 	beq	r2,zero,8007534 <_malloc_trim_r+0x70>
 800751c:	000b883a 	mov	r5,zero
 8007520:	9009883a 	mov	r4,r18
 8007524:	80060a40 	call	80060a4 <_sbrk_r>
 8007528:	98c00217 	ldw	r3,8(r19)
 800752c:	1c47883a 	add	r3,r3,r17
 8007530:	10c00a26 	beq	r2,r3,800755c <_malloc_trim_r+0x98>
 8007534:	9009883a 	mov	r4,r18
 8007538:	800bacc0 	call	800bacc <__malloc_unlock>
 800753c:	0005883a 	mov	r2,zero
 8007540:	dfc00417 	ldw	ra,16(sp)
 8007544:	dcc00317 	ldw	r19,12(sp)
 8007548:	dc800217 	ldw	r18,8(sp)
 800754c:	dc400117 	ldw	r17,4(sp)
 8007550:	dc000017 	ldw	r16,0(sp)
 8007554:	dec00504 	addi	sp,sp,20
 8007558:	f800283a 	ret
 800755c:	040bc83a 	sub	r5,zero,r16
 8007560:	9009883a 	mov	r4,r18
 8007564:	80060a40 	call	80060a4 <_sbrk_r>
 8007568:	10bfffd8 	cmpnei	r2,r2,-1
 800756c:	10000d26 	beq	r2,zero,80075a4 <_malloc_trim_r+0xe0>
 8007570:	00820074 	movhi	r2,2049
 8007574:	10888e17 	ldw	r2,8760(r2)
 8007578:	98c00217 	ldw	r3,8(r19)
 800757c:	8c23c83a 	sub	r17,r17,r16
 8007580:	8c400054 	ori	r17,r17,1
 8007584:	1421c83a 	sub	r16,r2,r16
 8007588:	1c400115 	stw	r17,4(r3)
 800758c:	00820074 	movhi	r2,2049
 8007590:	9009883a 	mov	r4,r18
 8007594:	14088e15 	stw	r16,8760(r2)
 8007598:	800bacc0 	call	800bacc <__malloc_unlock>
 800759c:	00800044 	movi	r2,1
 80075a0:	003fe706 	br	8007540 <_malloc_trim_r+0x7c>
 80075a4:	000b883a 	mov	r5,zero
 80075a8:	9009883a 	mov	r4,r18
 80075ac:	80060a40 	call	80060a4 <_sbrk_r>
 80075b0:	99000217 	ldw	r4,8(r19)
 80075b4:	1107c83a 	sub	r3,r2,r4
 80075b8:	19400410 	cmplti	r5,r3,16
 80075bc:	283fdd1e 	bne	r5,zero,8007534 <_malloc_trim_r+0x70>
 80075c0:	01420074 	movhi	r5,2049
 80075c4:	29406917 	ldw	r5,420(r5)
 80075c8:	18c00054 	ori	r3,r3,1
 80075cc:	20c00115 	stw	r3,4(r4)
 80075d0:	1145c83a 	sub	r2,r2,r5
 80075d4:	01420074 	movhi	r5,2049
 80075d8:	28888e15 	stw	r2,8760(r5)
 80075dc:	003fd506 	br	8007534 <_malloc_trim_r+0x70>

080075e0 <_free_r>:
 80075e0:	28004f26 	beq	r5,zero,8007720 <_free_r+0x140>
 80075e4:	defffd04 	addi	sp,sp,-12
 80075e8:	dc400115 	stw	r17,4(sp)
 80075ec:	dc000015 	stw	r16,0(sp)
 80075f0:	2023883a 	mov	r17,r4
 80075f4:	2821883a 	mov	r16,r5
 80075f8:	dfc00215 	stw	ra,8(sp)
 80075fc:	800baa80 	call	800baa8 <__malloc_lock>
 8007600:	81ffff17 	ldw	r7,-4(r16)
 8007604:	00bfff84 	movi	r2,-2
 8007608:	80fffe04 	addi	r3,r16,-8
 800760c:	3884703a 	and	r2,r7,r2
 8007610:	01820074 	movhi	r6,2049
 8007614:	1889883a 	add	r4,r3,r2
 8007618:	31ba8504 	addi	r6,r6,-5612
 800761c:	21400117 	ldw	r5,4(r4)
 8007620:	32000217 	ldw	r8,8(r6)
 8007624:	027fff04 	movi	r9,-4
 8007628:	2a4a703a 	and	r5,r5,r9
 800762c:	41006426 	beq	r8,r4,80077c0 <_free_r+0x1e0>
 8007630:	21400115 	stw	r5,4(r4)
 8007634:	39c0004c 	andi	r7,r7,1
 8007638:	2151883a 	add	r8,r4,r5
 800763c:	3800281e 	bne	r7,zero,80076e0 <_free_r+0x100>
 8007640:	82bffe17 	ldw	r10,-8(r16)
 8007644:	42000117 	ldw	r8,4(r8)
 8007648:	01c20074 	movhi	r7,2049
 800764c:	1a87c83a 	sub	r3,r3,r10
 8007650:	1a400217 	ldw	r9,8(r3)
 8007654:	39fa8704 	addi	r7,r7,-5604
 8007658:	1285883a 	add	r2,r2,r10
 800765c:	4200004c 	andi	r8,r8,1
 8007660:	49c04c26 	beq	r9,r7,8007794 <_free_r+0x1b4>
 8007664:	1a800317 	ldw	r10,12(r3)
 8007668:	4a800315 	stw	r10,12(r9)
 800766c:	52400215 	stw	r9,8(r10)
 8007670:	40007126 	beq	r8,zero,8007838 <_free_r+0x258>
 8007674:	11400054 	ori	r5,r2,1
 8007678:	19400115 	stw	r5,4(r3)
 800767c:	20800015 	stw	r2,0(r4)
 8007680:	11008028 	cmpgeui	r4,r2,512
 8007684:	20002c1e 	bne	r4,zero,8007738 <_free_r+0x158>
 8007688:	1008d0fa 	srli	r4,r2,3
 800768c:	31c00117 	ldw	r7,4(r6)
 8007690:	20800044 	addi	r2,r4,1
 8007694:	200bd0ba 	srai	r5,r4,2
 8007698:	100490fa 	slli	r2,r2,3
 800769c:	01000044 	movi	r4,1
 80076a0:	2148983a 	sll	r4,r4,r5
 80076a4:	3085883a 	add	r2,r6,r2
 80076a8:	11400017 	ldw	r5,0(r2)
 80076ac:	21c8b03a 	or	r4,r4,r7
 80076b0:	11fffe04 	addi	r7,r2,-8
 80076b4:	19c00315 	stw	r7,12(r3)
 80076b8:	19400215 	stw	r5,8(r3)
 80076bc:	31000115 	stw	r4,4(r6)
 80076c0:	10c00015 	stw	r3,0(r2)
 80076c4:	28c00315 	stw	r3,12(r5)
 80076c8:	8809883a 	mov	r4,r17
 80076cc:	dfc00217 	ldw	ra,8(sp)
 80076d0:	dc400117 	ldw	r17,4(sp)
 80076d4:	dc000017 	ldw	r16,0(sp)
 80076d8:	dec00304 	addi	sp,sp,12
 80076dc:	800bacc1 	jmpi	800bacc <__malloc_unlock>
 80076e0:	41c00117 	ldw	r7,4(r8)
 80076e4:	39c0004c 	andi	r7,r7,1
 80076e8:	38000e1e 	bne	r7,zero,8007724 <_free_r+0x144>
 80076ec:	01c20074 	movhi	r7,2049
 80076f0:	1145883a 	add	r2,r2,r5
 80076f4:	39fa8704 	addi	r7,r7,-5604
 80076f8:	21400217 	ldw	r5,8(r4)
 80076fc:	12400054 	ori	r9,r2,1
 8007700:	1891883a 	add	r8,r3,r2
 8007704:	29c05226 	beq	r5,r7,8007850 <_free_r+0x270>
 8007708:	21000317 	ldw	r4,12(r4)
 800770c:	29000315 	stw	r4,12(r5)
 8007710:	21400215 	stw	r5,8(r4)
 8007714:	1a400115 	stw	r9,4(r3)
 8007718:	40800015 	stw	r2,0(r8)
 800771c:	003fd806 	br	8007680 <_free_r+0xa0>
 8007720:	f800283a 	ret
 8007724:	11400054 	ori	r5,r2,1
 8007728:	817fff15 	stw	r5,-4(r16)
 800772c:	20800015 	stw	r2,0(r4)
 8007730:	11008028 	cmpgeui	r4,r2,512
 8007734:	203fd426 	beq	r4,zero,8007688 <_free_r+0xa8>
 8007738:	1008d27a 	srli	r4,r2,9
 800773c:	21400168 	cmpgeui	r5,r4,5
 8007740:	2800341e 	bne	r5,zero,8007814 <_free_r+0x234>
 8007744:	1008d1ba 	srli	r4,r2,6
 8007748:	21c00e44 	addi	r7,r4,57
 800774c:	380e90fa 	slli	r7,r7,3
 8007750:	21400e04 	addi	r5,r4,56
 8007754:	31cf883a 	add	r7,r6,r7
 8007758:	39000017 	ldw	r4,0(r7)
 800775c:	39fffe04 	addi	r7,r7,-8
 8007760:	39004226 	beq	r7,r4,800786c <_free_r+0x28c>
 8007764:	01bfff04 	movi	r6,-4
 8007768:	21400117 	ldw	r5,4(r4)
 800776c:	298a703a 	and	r5,r5,r6
 8007770:	1140022e 	bgeu	r2,r5,800777c <_free_r+0x19c>
 8007774:	21000217 	ldw	r4,8(r4)
 8007778:	393ffb1e 	bne	r7,r4,8007768 <_free_r+0x188>
 800777c:	21c00317 	ldw	r7,12(r4)
 8007780:	19c00315 	stw	r7,12(r3)
 8007784:	19000215 	stw	r4,8(r3)
 8007788:	38c00215 	stw	r3,8(r7)
 800778c:	20c00315 	stw	r3,12(r4)
 8007790:	003fcd06 	br	80076c8 <_free_r+0xe8>
 8007794:	40004d1e 	bne	r8,zero,80078cc <_free_r+0x2ec>
 8007798:	21800317 	ldw	r6,12(r4)
 800779c:	21000217 	ldw	r4,8(r4)
 80077a0:	2885883a 	add	r2,r5,r2
 80077a4:	11400054 	ori	r5,r2,1
 80077a8:	21800315 	stw	r6,12(r4)
 80077ac:	31000215 	stw	r4,8(r6)
 80077b0:	19400115 	stw	r5,4(r3)
 80077b4:	1887883a 	add	r3,r3,r2
 80077b8:	18800015 	stw	r2,0(r3)
 80077bc:	003fc206 	br	80076c8 <_free_r+0xe8>
 80077c0:	39c0004c 	andi	r7,r7,1
 80077c4:	1145883a 	add	r2,r2,r5
 80077c8:	3800071e 	bne	r7,zero,80077e8 <_free_r+0x208>
 80077cc:	81fffe17 	ldw	r7,-8(r16)
 80077d0:	19c7c83a 	sub	r3,r3,r7
 80077d4:	19000317 	ldw	r4,12(r3)
 80077d8:	19400217 	ldw	r5,8(r3)
 80077dc:	11c5883a 	add	r2,r2,r7
 80077e0:	29000315 	stw	r4,12(r5)
 80077e4:	21400215 	stw	r5,8(r4)
 80077e8:	01020074 	movhi	r4,2049
 80077ec:	11400054 	ori	r5,r2,1
 80077f0:	21006a17 	ldw	r4,424(r4)
 80077f4:	19400115 	stw	r5,4(r3)
 80077f8:	30c00215 	stw	r3,8(r6)
 80077fc:	113fb236 	bltu	r2,r4,80076c8 <_free_r+0xe8>
 8007800:	00820074 	movhi	r2,2049
 8007804:	11488417 	ldw	r5,8720(r2)
 8007808:	8809883a 	mov	r4,r17
 800780c:	80074c40 	call	80074c4 <_malloc_trim_r>
 8007810:	003fad06 	br	80076c8 <_free_r+0xe8>
 8007814:	21400568 	cmpgeui	r5,r4,21
 8007818:	28000926 	beq	r5,zero,8007840 <_free_r+0x260>
 800781c:	21401568 	cmpgeui	r5,r4,85
 8007820:	2800191e 	bne	r5,zero,8007888 <_free_r+0x2a8>
 8007824:	1008d33a 	srli	r4,r2,12
 8007828:	21c01bc4 	addi	r7,r4,111
 800782c:	21401b84 	addi	r5,r4,110
 8007830:	380e90fa 	slli	r7,r7,3
 8007834:	003fc706 	br	8007754 <_free_r+0x174>
 8007838:	1145883a 	add	r2,r2,r5
 800783c:	003fae06 	br	80076f8 <_free_r+0x118>
 8007840:	21c01704 	addi	r7,r4,92
 8007844:	214016c4 	addi	r5,r4,91
 8007848:	380e90fa 	slli	r7,r7,3
 800784c:	003fc106 	br	8007754 <_free_r+0x174>
 8007850:	30c00515 	stw	r3,20(r6)
 8007854:	30c00415 	stw	r3,16(r6)
 8007858:	19c00315 	stw	r7,12(r3)
 800785c:	19c00215 	stw	r7,8(r3)
 8007860:	1a400115 	stw	r9,4(r3)
 8007864:	40800015 	stw	r2,0(r8)
 8007868:	003f9706 	br	80076c8 <_free_r+0xe8>
 800786c:	280bd0ba 	srai	r5,r5,2
 8007870:	00800044 	movi	r2,1
 8007874:	32000117 	ldw	r8,4(r6)
 8007878:	114a983a 	sll	r5,r2,r5
 800787c:	2a0ab03a 	or	r5,r5,r8
 8007880:	31400115 	stw	r5,4(r6)
 8007884:	003fbe06 	br	8007780 <_free_r+0x1a0>
 8007888:	21405568 	cmpgeui	r5,r4,341
 800788c:	2800051e 	bne	r5,zero,80078a4 <_free_r+0x2c4>
 8007890:	1008d3fa 	srli	r4,r2,15
 8007894:	21c01e04 	addi	r7,r4,120
 8007898:	21401dc4 	addi	r5,r4,119
 800789c:	380e90fa 	slli	r7,r7,3
 80078a0:	003fac06 	br	8007754 <_free_r+0x174>
 80078a4:	21015568 	cmpgeui	r4,r4,1365
 80078a8:	2000051e 	bne	r4,zero,80078c0 <_free_r+0x2e0>
 80078ac:	1008d4ba 	srli	r4,r2,18
 80078b0:	21c01f44 	addi	r7,r4,125
 80078b4:	21401f04 	addi	r5,r4,124
 80078b8:	380e90fa 	slli	r7,r7,3
 80078bc:	003fa506 	br	8007754 <_free_r+0x174>
 80078c0:	01c0fe04 	movi	r7,1016
 80078c4:	01401f84 	movi	r5,126
 80078c8:	003fa206 	br	8007754 <_free_r+0x174>
 80078cc:	11400054 	ori	r5,r2,1
 80078d0:	19400115 	stw	r5,4(r3)
 80078d4:	20800015 	stw	r2,0(r4)
 80078d8:	003f7b06 	br	80076c8 <_free_r+0xe8>

080078dc <_setlocale_r>:
 80078dc:	30001826 	beq	r6,zero,8007940 <_setlocale_r+0x64>
 80078e0:	01420074 	movhi	r5,2049
 80078e4:	defffe04 	addi	sp,sp,-8
 80078e8:	29777704 	addi	r5,r5,-8740
 80078ec:	3009883a 	mov	r4,r6
 80078f0:	dc000015 	stw	r16,0(sp)
 80078f4:	dfc00115 	stw	ra,4(sp)
 80078f8:	3021883a 	mov	r16,r6
 80078fc:	80082040 	call	8008204 <strcmp>
 8007900:	1000061e 	bne	r2,zero,800791c <_setlocale_r+0x40>
 8007904:	00820074 	movhi	r2,2049
 8007908:	10b77604 	addi	r2,r2,-8744
 800790c:	dfc00117 	ldw	ra,4(sp)
 8007910:	dc000017 	ldw	r16,0(sp)
 8007914:	dec00204 	addi	sp,sp,8
 8007918:	f800283a 	ret
 800791c:	01420074 	movhi	r5,2049
 8007920:	29777604 	addi	r5,r5,-8744
 8007924:	8009883a 	mov	r4,r16
 8007928:	80082040 	call	8008204 <strcmp>
 800792c:	103ff526 	beq	r2,zero,8007904 <_setlocale_r+0x28>
 8007930:	80800003 	ldbu	r2,0(r16)
 8007934:	103ff326 	beq	r2,zero,8007904 <_setlocale_r+0x28>
 8007938:	0005883a 	mov	r2,zero
 800793c:	003ff306 	br	800790c <_setlocale_r+0x30>
 8007940:	00820074 	movhi	r2,2049
 8007944:	10b77604 	addi	r2,r2,-8744
 8007948:	f800283a 	ret

0800794c <__locale_mb_cur_max>:
 800794c:	00820074 	movhi	r2,2049
 8007950:	10bbd107 	ldb	r2,-4284(r2)
 8007954:	f800283a 	ret

08007958 <setlocale>:
 8007958:	00820074 	movhi	r2,2049
 800795c:	280d883a 	mov	r6,r5
 8007960:	200b883a 	mov	r5,r4
 8007964:	11006817 	ldw	r4,416(r2)
 8007968:	80078dc1 	jmpi	80078dc <_setlocale_r>

0800796c <_mbtowc_r>:
 800796c:	00820074 	movhi	r2,2049
 8007970:	10bbc017 	ldw	r2,-4352(r2)
 8007974:	1000683a 	jmp	r2

08007978 <__ascii_mbtowc>:
 8007978:	deffff04 	addi	sp,sp,-4
 800797c:	28000826 	beq	r5,zero,80079a0 <__ascii_mbtowc+0x28>
 8007980:	30000926 	beq	r6,zero,80079a8 <__ascii_mbtowc+0x30>
 8007984:	38000b26 	beq	r7,zero,80079b4 <__ascii_mbtowc+0x3c>
 8007988:	30800003 	ldbu	r2,0(r6)
 800798c:	28800015 	stw	r2,0(r5)
 8007990:	30800003 	ldbu	r2,0(r6)
 8007994:	1004c03a 	cmpne	r2,r2,zero
 8007998:	dec00104 	addi	sp,sp,4
 800799c:	f800283a 	ret
 80079a0:	d80b883a 	mov	r5,sp
 80079a4:	303ff71e 	bne	r6,zero,8007984 <__ascii_mbtowc+0xc>
 80079a8:	0005883a 	mov	r2,zero
 80079ac:	dec00104 	addi	sp,sp,4
 80079b0:	f800283a 	ret
 80079b4:	00bfff84 	movi	r2,-2
 80079b8:	003ff706 	br	8007998 <__ascii_mbtowc+0x20>

080079bc <memmove>:
 80079bc:	2005883a 	mov	r2,r4
 80079c0:	29000a2e 	bgeu	r5,r4,80079ec <memmove+0x30>
 80079c4:	2989883a 	add	r4,r5,r6
 80079c8:	1100082e 	bgeu	r2,r4,80079ec <memmove+0x30>
 80079cc:	1187883a 	add	r3,r2,r6
 80079d0:	30003e26 	beq	r6,zero,8007acc <memmove+0x110>
 80079d4:	213fffc4 	addi	r4,r4,-1
 80079d8:	21400003 	ldbu	r5,0(r4)
 80079dc:	18ffffc4 	addi	r3,r3,-1
 80079e0:	19400005 	stb	r5,0(r3)
 80079e4:	10fffb1e 	bne	r2,r3,80079d4 <memmove+0x18>
 80079e8:	f800283a 	ret
 80079ec:	30c00430 	cmpltui	r3,r6,16
 80079f0:	18000b26 	beq	r3,zero,8007a20 <memmove+0x64>
 80079f4:	1007883a 	mov	r3,r2
 80079f8:	31ffffc4 	addi	r7,r6,-1
 80079fc:	30003726 	beq	r6,zero,8007adc <memmove+0x120>
 8007a00:	39c00044 	addi	r7,r7,1
 8007a04:	29cf883a 	add	r7,r5,r7
 8007a08:	29400044 	addi	r5,r5,1
 8007a0c:	29bfffc3 	ldbu	r6,-1(r5)
 8007a10:	18c00044 	addi	r3,r3,1
 8007a14:	19bfffc5 	stb	r6,-1(r3)
 8007a18:	29fffb1e 	bne	r5,r7,8007a08 <memmove+0x4c>
 8007a1c:	f800283a 	ret
 8007a20:	2886b03a 	or	r3,r5,r2
 8007a24:	18c000cc 	andi	r3,r3,3
 8007a28:	1800291e 	bne	r3,zero,8007ad0 <memmove+0x114>
 8007a2c:	327ffc04 	addi	r9,r6,-16
 8007a30:	4812d13a 	srli	r9,r9,4
 8007a34:	280f883a 	mov	r7,r5
 8007a38:	1007883a 	mov	r3,r2
 8007a3c:	4a400044 	addi	r9,r9,1
 8007a40:	4812913a 	slli	r9,r9,4
 8007a44:	1251883a 	add	r8,r2,r9
 8007a48:	39000017 	ldw	r4,0(r7)
 8007a4c:	18c00404 	addi	r3,r3,16
 8007a50:	39c00404 	addi	r7,r7,16
 8007a54:	193ffc15 	stw	r4,-16(r3)
 8007a58:	393ffd17 	ldw	r4,-12(r7)
 8007a5c:	193ffd15 	stw	r4,-12(r3)
 8007a60:	393ffe17 	ldw	r4,-8(r7)
 8007a64:	193ffe15 	stw	r4,-8(r3)
 8007a68:	393fff17 	ldw	r4,-4(r7)
 8007a6c:	193fff15 	stw	r4,-4(r3)
 8007a70:	40fff51e 	bne	r8,r3,8007a48 <memmove+0x8c>
 8007a74:	3100030c 	andi	r4,r6,12
 8007a78:	2a4b883a 	add	r5,r5,r9
 8007a7c:	320003cc 	andi	r8,r6,15
 8007a80:	20001726 	beq	r4,zero,8007ae0 <memmove+0x124>
 8007a84:	2813883a 	mov	r9,r5
 8007a88:	180f883a 	mov	r7,r3
 8007a8c:	4a400104 	addi	r9,r9,4
 8007a90:	39c00104 	addi	r7,r7,4
 8007a94:	4abfff17 	ldw	r10,-4(r9)
 8007a98:	41c9c83a 	sub	r4,r8,r7
 8007a9c:	1909883a 	add	r4,r3,r4
 8007aa0:	3abfff15 	stw	r10,-4(r7)
 8007aa4:	21000128 	cmpgeui	r4,r4,4
 8007aa8:	203ff81e 	bne	r4,zero,8007a8c <memmove+0xd0>
 8007aac:	413fff04 	addi	r4,r8,-4
 8007ab0:	2008d0ba 	srli	r4,r4,2
 8007ab4:	318000cc 	andi	r6,r6,3
 8007ab8:	21000044 	addi	r4,r4,1
 8007abc:	200890ba 	slli	r4,r4,2
 8007ac0:	1907883a 	add	r3,r3,r4
 8007ac4:	290b883a 	add	r5,r5,r4
 8007ac8:	003fcb06 	br	80079f8 <memmove+0x3c>
 8007acc:	f800283a 	ret
 8007ad0:	31ffffc4 	addi	r7,r6,-1
 8007ad4:	1007883a 	mov	r3,r2
 8007ad8:	003fc906 	br	8007a00 <memmove+0x44>
 8007adc:	f800283a 	ret
 8007ae0:	400d883a 	mov	r6,r8
 8007ae4:	003fc406 	br	80079f8 <memmove+0x3c>

08007ae8 <memset>:
 8007ae8:	20c000cc 	andi	r3,r4,3
 8007aec:	2005883a 	mov	r2,r4
 8007af0:	18003626 	beq	r3,zero,8007bcc <memset+0xe4>
 8007af4:	31ffffc4 	addi	r7,r6,-1
 8007af8:	30003326 	beq	r6,zero,8007bc8 <memset+0xe0>
 8007afc:	2811883a 	mov	r8,r5
 8007b00:	2007883a 	mov	r3,r4
 8007b04:	00000306 	br	8007b14 <memset+0x2c>
 8007b08:	39ffffc4 	addi	r7,r7,-1
 8007b0c:	39bfffe0 	cmpeqi	r6,r7,-1
 8007b10:	30002d1e 	bne	r6,zero,8007bc8 <memset+0xe0>
 8007b14:	18c00044 	addi	r3,r3,1
 8007b18:	1a3fffc5 	stb	r8,-1(r3)
 8007b1c:	198000cc 	andi	r6,r3,3
 8007b20:	303ff91e 	bne	r6,zero,8007b08 <memset+0x20>
 8007b24:	39000130 	cmpltui	r4,r7,4
 8007b28:	2000221e 	bne	r4,zero,8007bb4 <memset+0xcc>
 8007b2c:	29003fcc 	andi	r4,r5,255
 8007b30:	200c923a 	slli	r6,r4,8
 8007b34:	3a000430 	cmpltui	r8,r7,16
 8007b38:	3108b03a 	or	r4,r6,r4
 8007b3c:	200c943a 	slli	r6,r4,16
 8007b40:	310cb03a 	or	r6,r6,r4
 8007b44:	40000e1e 	bne	r8,zero,8007b80 <memset+0x98>
 8007b48:	3a3ffc04 	addi	r8,r7,-16
 8007b4c:	4010d13a 	srli	r8,r8,4
 8007b50:	42000044 	addi	r8,r8,1
 8007b54:	4010913a 	slli	r8,r8,4
 8007b58:	1a11883a 	add	r8,r3,r8
 8007b5c:	19800015 	stw	r6,0(r3)
 8007b60:	19800115 	stw	r6,4(r3)
 8007b64:	19800215 	stw	r6,8(r3)
 8007b68:	18c00404 	addi	r3,r3,16
 8007b6c:	19bfff15 	stw	r6,-4(r3)
 8007b70:	40fffa1e 	bne	r8,r3,8007b5c <memset+0x74>
 8007b74:	3900030c 	andi	r4,r7,12
 8007b78:	39c003cc 	andi	r7,r7,15
 8007b7c:	20000d26 	beq	r4,zero,8007bb4 <memset+0xcc>
 8007b80:	1809883a 	mov	r4,r3
 8007b84:	21000104 	addi	r4,r4,4
 8007b88:	3911c83a 	sub	r8,r7,r4
 8007b8c:	1a11883a 	add	r8,r3,r8
 8007b90:	21bfff15 	stw	r6,-4(r4)
 8007b94:	42000128 	cmpgeui	r8,r8,4
 8007b98:	403ffa1e 	bne	r8,zero,8007b84 <memset+0x9c>
 8007b9c:	393fff04 	addi	r4,r7,-4
 8007ba0:	2008d0ba 	srli	r4,r4,2
 8007ba4:	39c000cc 	andi	r7,r7,3
 8007ba8:	21000044 	addi	r4,r4,1
 8007bac:	200890ba 	slli	r4,r4,2
 8007bb0:	1907883a 	add	r3,r3,r4
 8007bb4:	38000426 	beq	r7,zero,8007bc8 <memset+0xe0>
 8007bb8:	19cf883a 	add	r7,r3,r7
 8007bbc:	18c00044 	addi	r3,r3,1
 8007bc0:	197fffc5 	stb	r5,-1(r3)
 8007bc4:	38fffd1e 	bne	r7,r3,8007bbc <memset+0xd4>
 8007bc8:	f800283a 	ret
 8007bcc:	2007883a 	mov	r3,r4
 8007bd0:	300f883a 	mov	r7,r6
 8007bd4:	003fd306 	br	8007b24 <memset+0x3c>

08007bd8 <_realloc_r>:
 8007bd8:	defff504 	addi	sp,sp,-44
 8007bdc:	dcc00415 	stw	r19,16(sp)
 8007be0:	dfc00a15 	stw	ra,40(sp)
 8007be4:	df000915 	stw	fp,36(sp)
 8007be8:	ddc00815 	stw	r23,32(sp)
 8007bec:	dd800715 	stw	r22,28(sp)
 8007bf0:	dd400615 	stw	r21,24(sp)
 8007bf4:	dd000515 	stw	r20,20(sp)
 8007bf8:	dc800315 	stw	r18,12(sp)
 8007bfc:	dc400215 	stw	r17,8(sp)
 8007c00:	dc000115 	stw	r16,4(sp)
 8007c04:	3027883a 	mov	r19,r6
 8007c08:	28008b26 	beq	r5,zero,8007e38 <_realloc_r+0x260>
 8007c0c:	282d883a 	mov	r22,r5
 8007c10:	202b883a 	mov	r21,r4
 8007c14:	9c0002c4 	addi	r16,r19,11
 8007c18:	800baa80 	call	800baa8 <__malloc_lock>
 8007c1c:	808005f0 	cmpltui	r2,r16,23
 8007c20:	1000521e 	bne	r2,zero,8007d6c <_realloc_r+0x194>
 8007c24:	017ffe04 	movi	r5,-8
 8007c28:	8160703a 	and	r16,r16,r5
 8007c2c:	8007883a 	mov	r3,r16
 8007c30:	80005116 	blt	r16,zero,8007d78 <_realloc_r+0x1a0>
 8007c34:	84c05036 	bltu	r16,r19,8007d78 <_realloc_r+0x1a0>
 8007c38:	b0bfff17 	ldw	r2,-4(r22)
 8007c3c:	017fff04 	movi	r5,-4
 8007c40:	b4bffe04 	addi	r18,r22,-8
 8007c44:	1162703a 	and	r17,r2,r5
 8007c48:	9469883a 	add	r20,r18,r17
 8007c4c:	88c0390e 	bge	r17,r3,8007d34 <_realloc_r+0x15c>
 8007c50:	07020074 	movhi	fp,2049
 8007c54:	e73a8504 	addi	fp,fp,-5612
 8007c58:	e2000217 	ldw	r8,8(fp)
 8007c5c:	a1000117 	ldw	r4,4(r20)
 8007c60:	45008e26 	beq	r8,r20,8007e9c <_realloc_r+0x2c4>
 8007c64:	01bfff84 	movi	r6,-2
 8007c68:	218c703a 	and	r6,r4,r6
 8007c6c:	a18d883a 	add	r6,r20,r6
 8007c70:	31800117 	ldw	r6,4(r6)
 8007c74:	3180004c 	andi	r6,r6,1
 8007c78:	30004f1e 	bne	r6,zero,8007db8 <_realloc_r+0x1e0>
 8007c7c:	2148703a 	and	r4,r4,r5
 8007c80:	890b883a 	add	r5,r17,r4
 8007c84:	28c0cb0e 	bge	r5,r3,8007fb4 <_realloc_r+0x3dc>
 8007c88:	1080004c 	andi	r2,r2,1
 8007c8c:	10004c1e 	bne	r2,zero,8007dc0 <_realloc_r+0x1e8>
 8007c90:	b1fffe17 	ldw	r7,-8(r22)
 8007c94:	00bfff04 	movi	r2,-4
 8007c98:	91cfc83a 	sub	r7,r18,r7
 8007c9c:	39400117 	ldw	r5,4(r7)
 8007ca0:	288a703a 	and	r5,r5,r2
 8007ca4:	a0000426 	beq	r20,zero,8007cb8 <_realloc_r+0xe0>
 8007ca8:	896f883a 	add	r23,r17,r5
 8007cac:	b92f883a 	add	r23,r23,r4
 8007cb0:	4500cb26 	beq	r8,r20,8007fe0 <_realloc_r+0x408>
 8007cb4:	b8c0930e 	bge	r23,r3,8007f04 <_realloc_r+0x32c>
 8007cb8:	38004126 	beq	r7,zero,8007dc0 <_realloc_r+0x1e8>
 8007cbc:	896f883a 	add	r23,r17,r5
 8007cc0:	b8c03f16 	blt	r23,r3,8007dc0 <_realloc_r+0x1e8>
 8007cc4:	38c00217 	ldw	r3,8(r7)
 8007cc8:	38800317 	ldw	r2,12(r7)
 8007ccc:	89bfff04 	addi	r6,r17,-4
 8007cd0:	31000968 	cmpgeui	r4,r6,37
 8007cd4:	18800315 	stw	r2,12(r3)
 8007cd8:	10c00215 	stw	r3,8(r2)
 8007cdc:	3de9883a 	add	r20,r7,r23
 8007ce0:	38c00204 	addi	r3,r7,8
 8007ce4:	2000f81e 	bne	r4,zero,80080c8 <_realloc_r+0x4f0>
 8007ce8:	30800530 	cmpltui	r2,r6,20
 8007cec:	b1000017 	ldw	r4,0(r22)
 8007cf0:	1000eb1e 	bne	r2,zero,80080a0 <_realloc_r+0x4c8>
 8007cf4:	39000215 	stw	r4,8(r7)
 8007cf8:	b1000117 	ldw	r4,4(r22)
 8007cfc:	30800728 	cmpgeui	r2,r6,28
 8007d00:	39000315 	stw	r4,12(r7)
 8007d04:	1001041e 	bne	r2,zero,8008118 <_realloc_r+0x540>
 8007d08:	b1000217 	ldw	r4,8(r22)
 8007d0c:	38800404 	addi	r2,r7,16
 8007d10:	b5800204 	addi	r22,r22,8
 8007d14:	11000015 	stw	r4,0(r2)
 8007d18:	b1000117 	ldw	r4,4(r22)
 8007d1c:	b823883a 	mov	r17,r23
 8007d20:	3825883a 	mov	r18,r7
 8007d24:	11000115 	stw	r4,4(r2)
 8007d28:	b1000217 	ldw	r4,8(r22)
 8007d2c:	182d883a 	mov	r22,r3
 8007d30:	11000215 	stw	r4,8(r2)
 8007d34:	91800117 	ldw	r6,4(r18)
 8007d38:	8c05c83a 	sub	r2,r17,r16
 8007d3c:	10c00430 	cmpltui	r3,r2,16
 8007d40:	3180004c 	andi	r6,r6,1
 8007d44:	18004926 	beq	r3,zero,8007e6c <_realloc_r+0x294>
 8007d48:	898cb03a 	or	r6,r17,r6
 8007d4c:	91800115 	stw	r6,4(r18)
 8007d50:	a0800117 	ldw	r2,4(r20)
 8007d54:	10800054 	ori	r2,r2,1
 8007d58:	a0800115 	stw	r2,4(r20)
 8007d5c:	a809883a 	mov	r4,r21
 8007d60:	800bacc0 	call	800bacc <__malloc_unlock>
 8007d64:	b027883a 	mov	r19,r22
 8007d68:	00000606 	br	8007d84 <_realloc_r+0x1ac>
 8007d6c:	04000404 	movi	r16,16
 8007d70:	00c00404 	movi	r3,16
 8007d74:	84ffb02e 	bgeu	r16,r19,8007c38 <_realloc_r+0x60>
 8007d78:	00800304 	movi	r2,12
 8007d7c:	a8800015 	stw	r2,0(r21)
 8007d80:	0027883a 	mov	r19,zero
 8007d84:	9805883a 	mov	r2,r19
 8007d88:	dfc00a17 	ldw	ra,40(sp)
 8007d8c:	df000917 	ldw	fp,36(sp)
 8007d90:	ddc00817 	ldw	r23,32(sp)
 8007d94:	dd800717 	ldw	r22,28(sp)
 8007d98:	dd400617 	ldw	r21,24(sp)
 8007d9c:	dd000517 	ldw	r20,20(sp)
 8007da0:	dcc00417 	ldw	r19,16(sp)
 8007da4:	dc800317 	ldw	r18,12(sp)
 8007da8:	dc400217 	ldw	r17,8(sp)
 8007dac:	dc000117 	ldw	r16,4(sp)
 8007db0:	dec00b04 	addi	sp,sp,44
 8007db4:	f800283a 	ret
 8007db8:	1080004c 	andi	r2,r2,1
 8007dbc:	10007826 	beq	r2,zero,8007fa0 <_realloc_r+0x3c8>
 8007dc0:	980b883a 	mov	r5,r19
 8007dc4:	a809883a 	mov	r4,r21
 8007dc8:	80047140 	call	8004714 <_malloc_r>
 8007dcc:	1027883a 	mov	r19,r2
 8007dd0:	10001626 	beq	r2,zero,8007e2c <_realloc_r+0x254>
 8007dd4:	b0bfff17 	ldw	r2,-4(r22)
 8007dd8:	013fff84 	movi	r4,-2
 8007ddc:	98fffe04 	addi	r3,r19,-8
 8007de0:	1104703a 	and	r2,r2,r4
 8007de4:	9085883a 	add	r2,r18,r2
 8007de8:	10c06726 	beq	r2,r3,8007f88 <_realloc_r+0x3b0>
 8007dec:	89bfff04 	addi	r6,r17,-4
 8007df0:	30800968 	cmpgeui	r2,r6,37
 8007df4:	1000761e 	bne	r2,zero,8007fd0 <_realloc_r+0x3f8>
 8007df8:	30800530 	cmpltui	r2,r6,20
 8007dfc:	b1000017 	ldw	r4,0(r22)
 8007e00:	10003726 	beq	r2,zero,8007ee0 <_realloc_r+0x308>
 8007e04:	9805883a 	mov	r2,r19
 8007e08:	b007883a 	mov	r3,r22
 8007e0c:	11000015 	stw	r4,0(r2)
 8007e10:	19000117 	ldw	r4,4(r3)
 8007e14:	11000115 	stw	r4,4(r2)
 8007e18:	18c00217 	ldw	r3,8(r3)
 8007e1c:	10c00215 	stw	r3,8(r2)
 8007e20:	b00b883a 	mov	r5,r22
 8007e24:	a809883a 	mov	r4,r21
 8007e28:	80075e00 	call	80075e0 <_free_r>
 8007e2c:	a809883a 	mov	r4,r21
 8007e30:	800bacc0 	call	800bacc <__malloc_unlock>
 8007e34:	003fd306 	br	8007d84 <_realloc_r+0x1ac>
 8007e38:	300b883a 	mov	r5,r6
 8007e3c:	dfc00a17 	ldw	ra,40(sp)
 8007e40:	df000917 	ldw	fp,36(sp)
 8007e44:	ddc00817 	ldw	r23,32(sp)
 8007e48:	dd800717 	ldw	r22,28(sp)
 8007e4c:	dd400617 	ldw	r21,24(sp)
 8007e50:	dd000517 	ldw	r20,20(sp)
 8007e54:	dcc00417 	ldw	r19,16(sp)
 8007e58:	dc800317 	ldw	r18,12(sp)
 8007e5c:	dc400217 	ldw	r17,8(sp)
 8007e60:	dc000117 	ldw	r16,4(sp)
 8007e64:	dec00b04 	addi	sp,sp,44
 8007e68:	80047141 	jmpi	8004714 <_malloc_r>
 8007e6c:	340cb03a 	or	r6,r6,r16
 8007e70:	91800115 	stw	r6,4(r18)
 8007e74:	940b883a 	add	r5,r18,r16
 8007e78:	10800054 	ori	r2,r2,1
 8007e7c:	28800115 	stw	r2,4(r5)
 8007e80:	a0800117 	ldw	r2,4(r20)
 8007e84:	29400204 	addi	r5,r5,8
 8007e88:	a809883a 	mov	r4,r21
 8007e8c:	10800054 	ori	r2,r2,1
 8007e90:	a0800115 	stw	r2,4(r20)
 8007e94:	80075e00 	call	80075e0 <_free_r>
 8007e98:	003fb006 	br	8007d5c <_realloc_r+0x184>
 8007e9c:	2148703a 	and	r4,r4,r5
 8007ea0:	890b883a 	add	r5,r17,r4
 8007ea4:	81800404 	addi	r6,r16,16
 8007ea8:	29bf7716 	blt	r5,r6,8007c88 <_realloc_r+0xb0>
 8007eac:	9425883a 	add	r18,r18,r16
 8007eb0:	2c05c83a 	sub	r2,r5,r16
 8007eb4:	e4800215 	stw	r18,8(fp)
 8007eb8:	10800054 	ori	r2,r2,1
 8007ebc:	90800115 	stw	r2,4(r18)
 8007ec0:	b0bfff17 	ldw	r2,-4(r22)
 8007ec4:	a809883a 	mov	r4,r21
 8007ec8:	b027883a 	mov	r19,r22
 8007ecc:	1080004c 	andi	r2,r2,1
 8007ed0:	1420b03a 	or	r16,r2,r16
 8007ed4:	b43fff15 	stw	r16,-4(r22)
 8007ed8:	800bacc0 	call	800bacc <__malloc_unlock>
 8007edc:	003fa906 	br	8007d84 <_realloc_r+0x1ac>
 8007ee0:	99000015 	stw	r4,0(r19)
 8007ee4:	b0c00117 	ldw	r3,4(r22)
 8007ee8:	30800728 	cmpgeui	r2,r6,28
 8007eec:	98c00115 	stw	r3,4(r19)
 8007ef0:	1000611e 	bne	r2,zero,8008078 <_realloc_r+0x4a0>
 8007ef4:	b0c00204 	addi	r3,r22,8
 8007ef8:	98800204 	addi	r2,r19,8
 8007efc:	b1000217 	ldw	r4,8(r22)
 8007f00:	003fc206 	br	8007e0c <_realloc_r+0x234>
 8007f04:	a0800317 	ldw	r2,12(r20)
 8007f08:	a0c00217 	ldw	r3,8(r20)
 8007f0c:	89bfff04 	addi	r6,r17,-4
 8007f10:	31000968 	cmpgeui	r4,r6,37
 8007f14:	18800315 	stw	r2,12(r3)
 8007f18:	10c00215 	stw	r3,8(r2)
 8007f1c:	38c00217 	ldw	r3,8(r7)
 8007f20:	38800317 	ldw	r2,12(r7)
 8007f24:	3a000204 	addi	r8,r7,8
 8007f28:	3de9883a 	add	r20,r7,r23
 8007f2c:	18800315 	stw	r2,12(r3)
 8007f30:	10c00215 	stw	r3,8(r2)
 8007f34:	20006f1e 	bne	r4,zero,80080f4 <_realloc_r+0x51c>
 8007f38:	30800530 	cmpltui	r2,r6,20
 8007f3c:	b0c00017 	ldw	r3,0(r22)
 8007f40:	10006a1e 	bne	r2,zero,80080ec <_realloc_r+0x514>
 8007f44:	38c00215 	stw	r3,8(r7)
 8007f48:	b0c00117 	ldw	r3,4(r22)
 8007f4c:	30800728 	cmpgeui	r2,r6,28
 8007f50:	38c00315 	stw	r3,12(r7)
 8007f54:	10007a1e 	bne	r2,zero,8008140 <_realloc_r+0x568>
 8007f58:	b0c00217 	ldw	r3,8(r22)
 8007f5c:	38800404 	addi	r2,r7,16
 8007f60:	b5800204 	addi	r22,r22,8
 8007f64:	10c00015 	stw	r3,0(r2)
 8007f68:	b0c00117 	ldw	r3,4(r22)
 8007f6c:	b823883a 	mov	r17,r23
 8007f70:	3825883a 	mov	r18,r7
 8007f74:	10c00115 	stw	r3,4(r2)
 8007f78:	b0c00217 	ldw	r3,8(r22)
 8007f7c:	402d883a 	mov	r22,r8
 8007f80:	10c00215 	stw	r3,8(r2)
 8007f84:	003f6b06 	br	8007d34 <_realloc_r+0x15c>
 8007f88:	98bfff17 	ldw	r2,-4(r19)
 8007f8c:	00ffff04 	movi	r3,-4
 8007f90:	10c4703a 	and	r2,r2,r3
 8007f94:	88a3883a 	add	r17,r17,r2
 8007f98:	9469883a 	add	r20,r18,r17
 8007f9c:	003f6506 	br	8007d34 <_realloc_r+0x15c>
 8007fa0:	b1fffe17 	ldw	r7,-8(r22)
 8007fa4:	91cfc83a 	sub	r7,r18,r7
 8007fa8:	39000117 	ldw	r4,4(r7)
 8007fac:	214a703a 	and	r5,r4,r5
 8007fb0:	003f4106 	br	8007cb8 <_realloc_r+0xe0>
 8007fb4:	a0800317 	ldw	r2,12(r20)
 8007fb8:	a0c00217 	ldw	r3,8(r20)
 8007fbc:	2823883a 	mov	r17,r5
 8007fc0:	9169883a 	add	r20,r18,r5
 8007fc4:	18800315 	stw	r2,12(r3)
 8007fc8:	10c00215 	stw	r3,8(r2)
 8007fcc:	003f5906 	br	8007d34 <_realloc_r+0x15c>
 8007fd0:	b00b883a 	mov	r5,r22
 8007fd4:	9809883a 	mov	r4,r19
 8007fd8:	80079bc0 	call	80079bc <memmove>
 8007fdc:	003f9006 	br	8007e20 <_realloc_r+0x248>
 8007fe0:	80800404 	addi	r2,r16,16
 8007fe4:	b8bf3416 	blt	r23,r2,8007cb8 <_realloc_r+0xe0>
 8007fe8:	38800317 	ldw	r2,12(r7)
 8007fec:	38c00217 	ldw	r3,8(r7)
 8007ff0:	89bfff04 	addi	r6,r17,-4
 8007ff4:	31000968 	cmpgeui	r4,r6,37
 8007ff8:	18800315 	stw	r2,12(r3)
 8007ffc:	10c00215 	stw	r3,8(r2)
 8008000:	3cc00204 	addi	r19,r7,8
 8008004:	20005a1e 	bne	r4,zero,8008170 <_realloc_r+0x598>
 8008008:	30800530 	cmpltui	r2,r6,20
 800800c:	b0c00017 	ldw	r3,0(r22)
 8008010:	1000551e 	bne	r2,zero,8008168 <_realloc_r+0x590>
 8008014:	38c00215 	stw	r3,8(r7)
 8008018:	b0c00117 	ldw	r3,4(r22)
 800801c:	30800728 	cmpgeui	r2,r6,28
 8008020:	38c00315 	stw	r3,12(r7)
 8008024:	1000661e 	bne	r2,zero,80081c0 <_realloc_r+0x5e8>
 8008028:	b0c00217 	ldw	r3,8(r22)
 800802c:	38800404 	addi	r2,r7,16
 8008030:	b5800204 	addi	r22,r22,8
 8008034:	10c00015 	stw	r3,0(r2)
 8008038:	b0c00117 	ldw	r3,4(r22)
 800803c:	10c00115 	stw	r3,4(r2)
 8008040:	b0c00217 	ldw	r3,8(r22)
 8008044:	10c00215 	stw	r3,8(r2)
 8008048:	3c07883a 	add	r3,r7,r16
 800804c:	bc05c83a 	sub	r2,r23,r16
 8008050:	e0c00215 	stw	r3,8(fp)
 8008054:	10800054 	ori	r2,r2,1
 8008058:	18800115 	stw	r2,4(r3)
 800805c:	38800117 	ldw	r2,4(r7)
 8008060:	a809883a 	mov	r4,r21
 8008064:	1080004c 	andi	r2,r2,1
 8008068:	1420b03a 	or	r16,r2,r16
 800806c:	3c000115 	stw	r16,4(r7)
 8008070:	800bacc0 	call	800bacc <__malloc_unlock>
 8008074:	003f4306 	br	8007d84 <_realloc_r+0x1ac>
 8008078:	b0800217 	ldw	r2,8(r22)
 800807c:	31800920 	cmpeqi	r6,r6,36
 8008080:	98800215 	stw	r2,8(r19)
 8008084:	b0800317 	ldw	r2,12(r22)
 8008088:	98800315 	stw	r2,12(r19)
 800808c:	3000061e 	bne	r6,zero,80080a8 <_realloc_r+0x4d0>
 8008090:	b0c00404 	addi	r3,r22,16
 8008094:	98800404 	addi	r2,r19,16
 8008098:	b1000417 	ldw	r4,16(r22)
 800809c:	003f5b06 	br	8007e0c <_realloc_r+0x234>
 80080a0:	1805883a 	mov	r2,r3
 80080a4:	003f1b06 	br	8007d14 <_realloc_r+0x13c>
 80080a8:	b1000417 	ldw	r4,16(r22)
 80080ac:	b0c00604 	addi	r3,r22,24
 80080b0:	98800604 	addi	r2,r19,24
 80080b4:	99000415 	stw	r4,16(r19)
 80080b8:	b1000517 	ldw	r4,20(r22)
 80080bc:	99000515 	stw	r4,20(r19)
 80080c0:	b1000617 	ldw	r4,24(r22)
 80080c4:	003f5106 	br	8007e0c <_realloc_r+0x234>
 80080c8:	b00b883a 	mov	r5,r22
 80080cc:	1809883a 	mov	r4,r3
 80080d0:	d9c00015 	stw	r7,0(sp)
 80080d4:	80079bc0 	call	80079bc <memmove>
 80080d8:	d9c00017 	ldw	r7,0(sp)
 80080dc:	102d883a 	mov	r22,r2
 80080e0:	b823883a 	mov	r17,r23
 80080e4:	3825883a 	mov	r18,r7
 80080e8:	003f1206 	br	8007d34 <_realloc_r+0x15c>
 80080ec:	4005883a 	mov	r2,r8
 80080f0:	003f9c06 	br	8007f64 <_realloc_r+0x38c>
 80080f4:	b00b883a 	mov	r5,r22
 80080f8:	4009883a 	mov	r4,r8
 80080fc:	d9c00015 	stw	r7,0(sp)
 8008100:	80079bc0 	call	80079bc <memmove>
 8008104:	d9c00017 	ldw	r7,0(sp)
 8008108:	102d883a 	mov	r22,r2
 800810c:	b823883a 	mov	r17,r23
 8008110:	3825883a 	mov	r18,r7
 8008114:	003f0706 	br	8007d34 <_realloc_r+0x15c>
 8008118:	b0800217 	ldw	r2,8(r22)
 800811c:	31800920 	cmpeqi	r6,r6,36
 8008120:	38800415 	stw	r2,16(r7)
 8008124:	b0800317 	ldw	r2,12(r22)
 8008128:	38800515 	stw	r2,20(r7)
 800812c:	b1000417 	ldw	r4,16(r22)
 8008130:	3000151e 	bne	r6,zero,8008188 <_realloc_r+0x5b0>
 8008134:	38800604 	addi	r2,r7,24
 8008138:	b5800404 	addi	r22,r22,16
 800813c:	003ef506 	br	8007d14 <_realloc_r+0x13c>
 8008140:	b0800217 	ldw	r2,8(r22)
 8008144:	31800920 	cmpeqi	r6,r6,36
 8008148:	38800415 	stw	r2,16(r7)
 800814c:	b0800317 	ldw	r2,12(r22)
 8008150:	38800515 	stw	r2,20(r7)
 8008154:	b0c00417 	ldw	r3,16(r22)
 8008158:	3000121e 	bne	r6,zero,80081a4 <_realloc_r+0x5cc>
 800815c:	38800604 	addi	r2,r7,24
 8008160:	b5800404 	addi	r22,r22,16
 8008164:	003f7f06 	br	8007f64 <_realloc_r+0x38c>
 8008168:	9805883a 	mov	r2,r19
 800816c:	003fb106 	br	8008034 <_realloc_r+0x45c>
 8008170:	b00b883a 	mov	r5,r22
 8008174:	9809883a 	mov	r4,r19
 8008178:	d9c00015 	stw	r7,0(sp)
 800817c:	80079bc0 	call	80079bc <memmove>
 8008180:	d9c00017 	ldw	r7,0(sp)
 8008184:	003fb006 	br	8008048 <_realloc_r+0x470>
 8008188:	b5800604 	addi	r22,r22,24
 800818c:	39000615 	stw	r4,24(r7)
 8008190:	b13fff17 	ldw	r4,-4(r22)
 8008194:	38800804 	addi	r2,r7,32
 8008198:	39000715 	stw	r4,28(r7)
 800819c:	b1000017 	ldw	r4,0(r22)
 80081a0:	003edc06 	br	8007d14 <_realloc_r+0x13c>
 80081a4:	b5800604 	addi	r22,r22,24
 80081a8:	38c00615 	stw	r3,24(r7)
 80081ac:	b0ffff17 	ldw	r3,-4(r22)
 80081b0:	38800804 	addi	r2,r7,32
 80081b4:	38c00715 	stw	r3,28(r7)
 80081b8:	b0c00017 	ldw	r3,0(r22)
 80081bc:	003f6906 	br	8007f64 <_realloc_r+0x38c>
 80081c0:	b0800217 	ldw	r2,8(r22)
 80081c4:	31800920 	cmpeqi	r6,r6,36
 80081c8:	38800415 	stw	r2,16(r7)
 80081cc:	b0800317 	ldw	r2,12(r22)
 80081d0:	38800515 	stw	r2,20(r7)
 80081d4:	b0c00417 	ldw	r3,16(r22)
 80081d8:	3000031e 	bne	r6,zero,80081e8 <_realloc_r+0x610>
 80081dc:	38800604 	addi	r2,r7,24
 80081e0:	b5800404 	addi	r22,r22,16
 80081e4:	003f9306 	br	8008034 <_realloc_r+0x45c>
 80081e8:	b5800604 	addi	r22,r22,24
 80081ec:	38c00615 	stw	r3,24(r7)
 80081f0:	b0ffff17 	ldw	r3,-4(r22)
 80081f4:	38800804 	addi	r2,r7,32
 80081f8:	38c00715 	stw	r3,28(r7)
 80081fc:	b0c00017 	ldw	r3,0(r22)
 8008200:	003f8c06 	br	8008034 <_realloc_r+0x45c>

08008204 <strcmp>:
 8008204:	2144b03a 	or	r2,r4,r5
 8008208:	108000cc 	andi	r2,r2,3
 800820c:	1000171e 	bne	r2,zero,800826c <strcmp+0x68>
 8008210:	20800017 	ldw	r2,0(r4)
 8008214:	28c00017 	ldw	r3,0(r5)
 8008218:	10c0141e 	bne	r2,r3,800826c <strcmp+0x68>
 800821c:	027fbff4 	movhi	r9,65279
 8008220:	4a7fbfc4 	addi	r9,r9,-257
 8008224:	1247883a 	add	r3,r2,r9
 8008228:	02202074 	movhi	r8,32897
 800822c:	0084303a 	nor	r2,zero,r2
 8008230:	1884703a 	and	r2,r3,r2
 8008234:	42202004 	addi	r8,r8,-32640
 8008238:	1204703a 	and	r2,r2,r8
 800823c:	10000226 	beq	r2,zero,8008248 <strcmp+0x44>
 8008240:	00002406 	br	80082d4 <strcmp+0xd0>
 8008244:	1000231e 	bne	r2,zero,80082d4 <strcmp+0xd0>
 8008248:	21000104 	addi	r4,r4,4
 800824c:	20c00017 	ldw	r3,0(r4)
 8008250:	29400104 	addi	r5,r5,4
 8008254:	29800017 	ldw	r6,0(r5)
 8008258:	1a45883a 	add	r2,r3,r9
 800825c:	00ce303a 	nor	r7,zero,r3
 8008260:	11c4703a 	and	r2,r2,r7
 8008264:	1204703a 	and	r2,r2,r8
 8008268:	19bff626 	beq	r3,r6,8008244 <strcmp+0x40>
 800826c:	20800003 	ldbu	r2,0(r4)
 8008270:	10c03fcc 	andi	r3,r2,255
 8008274:	18c0201c 	xori	r3,r3,128
 8008278:	18ffe004 	addi	r3,r3,-128
 800827c:	18000d26 	beq	r3,zero,80082b4 <strcmp+0xb0>
 8008280:	29800007 	ldb	r6,0(r5)
 8008284:	10803fcc 	andi	r2,r2,255
 8008288:	19800326 	beq	r3,r6,8008298 <strcmp+0x94>
 800828c:	00000a06 	br	80082b8 <strcmp+0xb4>
 8008290:	29800007 	ldb	r6,0(r5)
 8008294:	11800b1e 	bne	r2,r6,80082c4 <strcmp+0xc0>
 8008298:	21000044 	addi	r4,r4,1
 800829c:	20c00003 	ldbu	r3,0(r4)
 80082a0:	29400044 	addi	r5,r5,1
 80082a4:	18803fcc 	andi	r2,r3,255
 80082a8:	1080201c 	xori	r2,r2,128
 80082ac:	10bfe004 	addi	r2,r2,-128
 80082b0:	103ff71e 	bne	r2,zero,8008290 <strcmp+0x8c>
 80082b4:	0005883a 	mov	r2,zero
 80082b8:	28c00003 	ldbu	r3,0(r5)
 80082bc:	10c5c83a 	sub	r2,r2,r3
 80082c0:	f800283a 	ret
 80082c4:	18803fcc 	andi	r2,r3,255
 80082c8:	28c00003 	ldbu	r3,0(r5)
 80082cc:	10c5c83a 	sub	r2,r2,r3
 80082d0:	f800283a 	ret
 80082d4:	0005883a 	mov	r2,zero
 80082d8:	f800283a 	ret

080082dc <_wctomb_r>:
 80082dc:	00820074 	movhi	r2,2049
 80082e0:	10bbbf17 	ldw	r2,-4356(r2)
 80082e4:	1000683a 	jmp	r2

080082e8 <__ascii_wctomb>:
 80082e8:	28000926 	beq	r5,zero,8008310 <__ascii_wctomb+0x28>
 80082ec:	30804030 	cmpltui	r2,r6,256
 80082f0:	10000326 	beq	r2,zero,8008300 <__ascii_wctomb+0x18>
 80082f4:	29800005 	stb	r6,0(r5)
 80082f8:	00800044 	movi	r2,1
 80082fc:	f800283a 	ret
 8008300:	00802284 	movi	r2,138
 8008304:	20800015 	stw	r2,0(r4)
 8008308:	00bfffc4 	movi	r2,-1
 800830c:	f800283a 	ret
 8008310:	0005883a 	mov	r2,zero
 8008314:	f800283a 	ret

08008318 <__muldi3>:
 8008318:	defff604 	addi	sp,sp,-40
 800831c:	dd800615 	stw	r22,24(sp)
 8008320:	dd400515 	stw	r21,20(sp)
 8008324:	dc400115 	stw	r17,4(sp)
 8008328:	202ad43a 	srli	r21,r4,16
 800832c:	347fffcc 	andi	r17,r6,65535
 8008330:	25bfffcc 	andi	r22,r4,65535
 8008334:	dd000415 	stw	r20,16(sp)
 8008338:	dc800215 	stw	r18,8(sp)
 800833c:	2029883a 	mov	r20,r4
 8008340:	2825883a 	mov	r18,r5
 8008344:	b009883a 	mov	r4,r22
 8008348:	880b883a 	mov	r5,r17
 800834c:	dfc00915 	stw	ra,36(sp)
 8008350:	df000815 	stw	fp,32(sp)
 8008354:	ddc00715 	stw	r23,28(sp)
 8008358:	3839883a 	mov	fp,r7
 800835c:	302ed43a 	srli	r23,r6,16
 8008360:	dcc00315 	stw	r19,12(sp)
 8008364:	dc000015 	stw	r16,0(sp)
 8008368:	3027883a 	mov	r19,r6
 800836c:	8000acc0 	call	8000acc <__mulsi3>
 8008370:	880b883a 	mov	r5,r17
 8008374:	a809883a 	mov	r4,r21
 8008378:	1021883a 	mov	r16,r2
 800837c:	8000acc0 	call	8000acc <__mulsi3>
 8008380:	a809883a 	mov	r4,r21
 8008384:	b80b883a 	mov	r5,r23
 8008388:	1023883a 	mov	r17,r2
 800838c:	8000acc0 	call	8000acc <__mulsi3>
 8008390:	b80b883a 	mov	r5,r23
 8008394:	b009883a 	mov	r4,r22
 8008398:	102b883a 	mov	r21,r2
 800839c:	8000acc0 	call	8000acc <__mulsi3>
 80083a0:	8006d43a 	srli	r3,r16,16
 80083a4:	1445883a 	add	r2,r2,r17
 80083a8:	1885883a 	add	r2,r3,r2
 80083ac:	1440022e 	bgeu	r2,r17,80083b8 <__muldi3+0xa0>
 80083b0:	00c00074 	movhi	r3,1
 80083b4:	a8eb883a 	add	r21,r21,r3
 80083b8:	1022d43a 	srli	r17,r2,16
 80083bc:	1004943a 	slli	r2,r2,16
 80083c0:	e00b883a 	mov	r5,fp
 80083c4:	a009883a 	mov	r4,r20
 80083c8:	843fffcc 	andi	r16,r16,65535
 80083cc:	1421883a 	add	r16,r2,r16
 80083d0:	8000acc0 	call	8000acc <__mulsi3>
 80083d4:	8d63883a 	add	r17,r17,r21
 80083d8:	900b883a 	mov	r5,r18
 80083dc:	9809883a 	mov	r4,r19
 80083e0:	1463883a 	add	r17,r2,r17
 80083e4:	8000acc0 	call	8000acc <__mulsi3>
 80083e8:	8887883a 	add	r3,r17,r2
 80083ec:	8005883a 	mov	r2,r16
 80083f0:	dfc00917 	ldw	ra,36(sp)
 80083f4:	df000817 	ldw	fp,32(sp)
 80083f8:	ddc00717 	ldw	r23,28(sp)
 80083fc:	dd800617 	ldw	r22,24(sp)
 8008400:	dd400517 	ldw	r21,20(sp)
 8008404:	dd000417 	ldw	r20,16(sp)
 8008408:	dcc00317 	ldw	r19,12(sp)
 800840c:	dc800217 	ldw	r18,8(sp)
 8008410:	dc400117 	ldw	r17,4(sp)
 8008414:	dc000017 	ldw	r16,0(sp)
 8008418:	dec00a04 	addi	sp,sp,40
 800841c:	f800283a 	ret

08008420 <__udivdi3>:
 8008420:	defff504 	addi	sp,sp,-44
 8008424:	dd000515 	stw	r20,20(sp)
 8008428:	dc000115 	stw	r16,4(sp)
 800842c:	dfc00a15 	stw	ra,40(sp)
 8008430:	df000915 	stw	fp,36(sp)
 8008434:	ddc00815 	stw	r23,32(sp)
 8008438:	dd800715 	stw	r22,28(sp)
 800843c:	dd400615 	stw	r21,24(sp)
 8008440:	dcc00415 	stw	r19,16(sp)
 8008444:	dc800315 	stw	r18,12(sp)
 8008448:	dc400215 	stw	r17,8(sp)
 800844c:	2029883a 	mov	r20,r4
 8008450:	2821883a 	mov	r16,r5
 8008454:	38008c1e 	bne	r7,zero,8008688 <__udivdi3+0x268>
 8008458:	3827883a 	mov	r19,r7
 800845c:	3023883a 	mov	r17,r6
 8008460:	2025883a 	mov	r18,r4
 8008464:	2980422e 	bgeu	r5,r6,8008570 <__udivdi3+0x150>
 8008468:	00bfffd4 	movui	r2,65535
 800846c:	282f883a 	mov	r23,r5
 8008470:	1180af2e 	bgeu	r2,r6,8008730 <__udivdi3+0x310>
 8008474:	00804034 	movhi	r2,256
 8008478:	30815936 	bltu	r6,r2,80089e0 <__udivdi3+0x5c0>
 800847c:	3006d63a 	srli	r3,r6,24
 8008480:	04c00604 	movi	r19,24
 8008484:	00820074 	movhi	r2,2049
 8008488:	1885883a 	add	r2,r3,r2
 800848c:	10b81a43 	ldbu	r2,-8087(r2)
 8008490:	14e7883a 	add	r19,r2,r19
 8008494:	00800804 	movi	r2,32
 8008498:	14c5c83a 	sub	r2,r2,r19
 800849c:	10000526 	beq	r2,zero,80084b4 <__udivdi3+0x94>
 80084a0:	80a0983a 	sll	r16,r16,r2
 80084a4:	a4e6d83a 	srl	r19,r20,r19
 80084a8:	30a2983a 	sll	r17,r6,r2
 80084ac:	a0a4983a 	sll	r18,r20,r2
 80084b0:	9c2eb03a 	or	r23,r19,r16
 80084b4:	882ad43a 	srli	r21,r17,16
 80084b8:	b809883a 	mov	r4,r23
 80084bc:	8dbfffcc 	andi	r22,r17,65535
 80084c0:	a80b883a 	mov	r5,r21
 80084c4:	8000a700 	call	8000a70 <__umodsi3>
 80084c8:	a80b883a 	mov	r5,r21
 80084cc:	b809883a 	mov	r4,r23
 80084d0:	1029883a 	mov	r20,r2
 80084d4:	8000a0c0 	call	8000a0c <__udivsi3>
 80084d8:	100b883a 	mov	r5,r2
 80084dc:	b009883a 	mov	r4,r22
 80084e0:	1021883a 	mov	r16,r2
 80084e4:	8000acc0 	call	8000acc <__mulsi3>
 80084e8:	a028943a 	slli	r20,r20,16
 80084ec:	9006d43a 	srli	r3,r18,16
 80084f0:	a0c6b03a 	or	r3,r20,r3
 80084f4:	1880052e 	bgeu	r3,r2,800850c <__udivdi3+0xec>
 80084f8:	1c47883a 	add	r3,r3,r17
 80084fc:	813fffc4 	addi	r4,r16,-1
 8008500:	1c400136 	bltu	r3,r17,8008508 <__udivdi3+0xe8>
 8008504:	18814736 	bltu	r3,r2,8008a24 <__udivdi3+0x604>
 8008508:	2021883a 	mov	r16,r4
 800850c:	18a7c83a 	sub	r19,r3,r2
 8008510:	9809883a 	mov	r4,r19
 8008514:	a80b883a 	mov	r5,r21
 8008518:	8000a700 	call	8000a70 <__umodsi3>
 800851c:	1029883a 	mov	r20,r2
 8008520:	9809883a 	mov	r4,r19
 8008524:	a80b883a 	mov	r5,r21
 8008528:	a028943a 	slli	r20,r20,16
 800852c:	8000a0c0 	call	8000a0c <__udivsi3>
 8008530:	100b883a 	mov	r5,r2
 8008534:	b009883a 	mov	r4,r22
 8008538:	94bfffcc 	andi	r18,r18,65535
 800853c:	1027883a 	mov	r19,r2
 8008540:	a4a4b03a 	or	r18,r20,r18
 8008544:	8000acc0 	call	8000acc <__mulsi3>
 8008548:	9080052e 	bgeu	r18,r2,8008560 <__udivdi3+0x140>
 800854c:	8ca5883a 	add	r18,r17,r18
 8008550:	98ffffc4 	addi	r3,r19,-1
 8008554:	94400136 	bltu	r18,r17,800855c <__udivdi3+0x13c>
 8008558:	90813036 	bltu	r18,r2,8008a1c <__udivdi3+0x5fc>
 800855c:	1827883a 	mov	r19,r3
 8008560:	8004943a 	slli	r2,r16,16
 8008564:	0007883a 	mov	r3,zero
 8008568:	14c4b03a 	or	r2,r2,r19
 800856c:	00005a06 	br	80086d8 <__udivdi3+0x2b8>
 8008570:	3000041e 	bne	r6,zero,8008584 <__udivdi3+0x164>
 8008574:	000b883a 	mov	r5,zero
 8008578:	01000044 	movi	r4,1
 800857c:	8000a0c0 	call	8000a0c <__udivsi3>
 8008580:	1023883a 	mov	r17,r2
 8008584:	00bfffd4 	movui	r2,65535
 8008588:	1440642e 	bgeu	r2,r17,800871c <__udivdi3+0x2fc>
 800858c:	00804034 	movhi	r2,256
 8008590:	88811036 	bltu	r17,r2,80089d4 <__udivdi3+0x5b4>
 8008594:	8806d63a 	srli	r3,r17,24
 8008598:	04c00604 	movi	r19,24
 800859c:	00820074 	movhi	r2,2049
 80085a0:	1885883a 	add	r2,r3,r2
 80085a4:	10b81a43 	ldbu	r2,-8087(r2)
 80085a8:	00c00804 	movi	r3,32
 80085ac:	14e7883a 	add	r19,r2,r19
 80085b0:	1cc7c83a 	sub	r3,r3,r19
 80085b4:	1800631e 	bne	r3,zero,8008744 <__udivdi3+0x324>
 80085b8:	882ad43a 	srli	r21,r17,16
 80085bc:	8461c83a 	sub	r16,r16,r17
 80085c0:	8dbfffcc 	andi	r22,r17,65535
 80085c4:	00c00044 	movi	r3,1
 80085c8:	8009883a 	mov	r4,r16
 80085cc:	a80b883a 	mov	r5,r21
 80085d0:	d8c00015 	stw	r3,0(sp)
 80085d4:	8000a700 	call	8000a70 <__umodsi3>
 80085d8:	8009883a 	mov	r4,r16
 80085dc:	a80b883a 	mov	r5,r21
 80085e0:	1029883a 	mov	r20,r2
 80085e4:	8000a0c0 	call	8000a0c <__udivsi3>
 80085e8:	1009883a 	mov	r4,r2
 80085ec:	b00b883a 	mov	r5,r22
 80085f0:	1021883a 	mov	r16,r2
 80085f4:	8000acc0 	call	8000acc <__mulsi3>
 80085f8:	a028943a 	slli	r20,r20,16
 80085fc:	9008d43a 	srli	r4,r18,16
 8008600:	d8c00017 	ldw	r3,0(sp)
 8008604:	a108b03a 	or	r4,r20,r4
 8008608:	2080052e 	bgeu	r4,r2,8008620 <__udivdi3+0x200>
 800860c:	2449883a 	add	r4,r4,r17
 8008610:	817fffc4 	addi	r5,r16,-1
 8008614:	24400136 	bltu	r4,r17,800861c <__udivdi3+0x1fc>
 8008618:	20810536 	bltu	r4,r2,8008a30 <__udivdi3+0x610>
 800861c:	2821883a 	mov	r16,r5
 8008620:	20a7c83a 	sub	r19,r4,r2
 8008624:	9809883a 	mov	r4,r19
 8008628:	a80b883a 	mov	r5,r21
 800862c:	d8c00015 	stw	r3,0(sp)
 8008630:	8000a700 	call	8000a70 <__umodsi3>
 8008634:	1029883a 	mov	r20,r2
 8008638:	9809883a 	mov	r4,r19
 800863c:	a80b883a 	mov	r5,r21
 8008640:	a028943a 	slli	r20,r20,16
 8008644:	8000a0c0 	call	8000a0c <__udivsi3>
 8008648:	b00b883a 	mov	r5,r22
 800864c:	1009883a 	mov	r4,r2
 8008650:	94bfffcc 	andi	r18,r18,65535
 8008654:	1027883a 	mov	r19,r2
 8008658:	a4a4b03a 	or	r18,r20,r18
 800865c:	8000acc0 	call	8000acc <__mulsi3>
 8008660:	d8c00017 	ldw	r3,0(sp)
 8008664:	9080052e 	bgeu	r18,r2,800867c <__udivdi3+0x25c>
 8008668:	8ca5883a 	add	r18,r17,r18
 800866c:	993fffc4 	addi	r4,r19,-1
 8008670:	94400136 	bltu	r18,r17,8008678 <__udivdi3+0x258>
 8008674:	9080e736 	bltu	r18,r2,8008a14 <__udivdi3+0x5f4>
 8008678:	2027883a 	mov	r19,r4
 800867c:	8004943a 	slli	r2,r16,16
 8008680:	14c4b03a 	or	r2,r2,r19
 8008684:	00001406 	br	80086d8 <__udivdi3+0x2b8>
 8008688:	29c01136 	bltu	r5,r7,80086d0 <__udivdi3+0x2b0>
 800868c:	00bfffd4 	movui	r2,65535
 8008690:	11c01d2e 	bgeu	r2,r7,8008708 <__udivdi3+0x2e8>
 8008694:	00804034 	movhi	r2,256
 8008698:	3880c336 	bltu	r7,r2,80089a8 <__udivdi3+0x588>
 800869c:	3808d63a 	srli	r4,r7,24
 80086a0:	00c00604 	movi	r3,24
 80086a4:	00820074 	movhi	r2,2049
 80086a8:	2085883a 	add	r2,r4,r2
 80086ac:	11381a43 	ldbu	r4,-8087(r2)
 80086b0:	20c9883a 	add	r4,r4,r3
 80086b4:	00c00804 	movi	r3,32
 80086b8:	192fc83a 	sub	r23,r3,r4
 80086bc:	b800581e 	bne	r23,zero,8008820 <__udivdi3+0x400>
 80086c0:	3c00bc36 	bltu	r7,r16,80089b4 <__udivdi3+0x594>
 80086c4:	a185403a 	cmpgeu	r2,r20,r6
 80086c8:	0007883a 	mov	r3,zero
 80086cc:	00000206 	br	80086d8 <__udivdi3+0x2b8>
 80086d0:	0007883a 	mov	r3,zero
 80086d4:	0005883a 	mov	r2,zero
 80086d8:	dfc00a17 	ldw	ra,40(sp)
 80086dc:	df000917 	ldw	fp,36(sp)
 80086e0:	ddc00817 	ldw	r23,32(sp)
 80086e4:	dd800717 	ldw	r22,28(sp)
 80086e8:	dd400617 	ldw	r21,24(sp)
 80086ec:	dd000517 	ldw	r20,20(sp)
 80086f0:	dcc00417 	ldw	r19,16(sp)
 80086f4:	dc800317 	ldw	r18,12(sp)
 80086f8:	dc400217 	ldw	r17,8(sp)
 80086fc:	dc000117 	ldw	r16,4(sp)
 8008700:	dec00b04 	addi	sp,sp,44
 8008704:	f800283a 	ret
 8008708:	38804030 	cmpltui	r2,r7,256
 800870c:	1000ac1e 	bne	r2,zero,80089c0 <__udivdi3+0x5a0>
 8008710:	3808d23a 	srli	r4,r7,8
 8008714:	00c00204 	movi	r3,8
 8008718:	003fe206 	br	80086a4 <__udivdi3+0x284>
 800871c:	88804030 	cmpltui	r2,r17,256
 8008720:	1000b21e 	bne	r2,zero,80089ec <__udivdi3+0x5cc>
 8008724:	8806d23a 	srli	r3,r17,8
 8008728:	04c00204 	movi	r19,8
 800872c:	003f9b06 	br	800859c <__udivdi3+0x17c>
 8008730:	30804030 	cmpltui	r2,r6,256
 8008734:	1000a51e 	bne	r2,zero,80089cc <__udivdi3+0x5ac>
 8008738:	3006d23a 	srli	r3,r6,8
 800873c:	04c00204 	movi	r19,8
 8008740:	003f5006 	br	8008484 <__udivdi3+0x64>
 8008744:	88e2983a 	sll	r17,r17,r3
 8008748:	84eed83a 	srl	r23,r16,r19
 800874c:	a0e4983a 	sll	r18,r20,r3
 8008750:	882ad43a 	srli	r21,r17,16
 8008754:	b809883a 	mov	r4,r23
 8008758:	80e0983a 	sll	r16,r16,r3
 800875c:	a80b883a 	mov	r5,r21
 8008760:	8000a700 	call	8000a70 <__umodsi3>
 8008764:	b809883a 	mov	r4,r23
 8008768:	a4e6d83a 	srl	r19,r20,r19
 800876c:	a80b883a 	mov	r5,r21
 8008770:	1029883a 	mov	r20,r2
 8008774:	8dbfffcc 	andi	r22,r17,65535
 8008778:	8000a0c0 	call	8000a0c <__udivsi3>
 800877c:	b009883a 	mov	r4,r22
 8008780:	100b883a 	mov	r5,r2
 8008784:	9c26b03a 	or	r19,r19,r16
 8008788:	102f883a 	mov	r23,r2
 800878c:	8000acc0 	call	8000acc <__mulsi3>
 8008790:	a028943a 	slli	r20,r20,16
 8008794:	9808d43a 	srli	r4,r19,16
 8008798:	a108b03a 	or	r4,r20,r4
 800879c:	2080062e 	bgeu	r4,r2,80087b8 <__udivdi3+0x398>
 80087a0:	2449883a 	add	r4,r4,r17
 80087a4:	b8ffffc4 	addi	r3,r23,-1
 80087a8:	24409836 	bltu	r4,r17,8008a0c <__udivdi3+0x5ec>
 80087ac:	2080972e 	bgeu	r4,r2,8008a0c <__udivdi3+0x5ec>
 80087b0:	bdffff84 	addi	r23,r23,-2
 80087b4:	2449883a 	add	r4,r4,r17
 80087b8:	20a1c83a 	sub	r16,r4,r2
 80087bc:	8009883a 	mov	r4,r16
 80087c0:	a80b883a 	mov	r5,r21
 80087c4:	8000a700 	call	8000a70 <__umodsi3>
 80087c8:	1029883a 	mov	r20,r2
 80087cc:	8009883a 	mov	r4,r16
 80087d0:	a80b883a 	mov	r5,r21
 80087d4:	a020943a 	slli	r16,r20,16
 80087d8:	8000a0c0 	call	8000a0c <__udivsi3>
 80087dc:	100b883a 	mov	r5,r2
 80087e0:	b009883a 	mov	r4,r22
 80087e4:	9cffffcc 	andi	r19,r19,65535
 80087e8:	1039883a 	mov	fp,r2
 80087ec:	84e0b03a 	or	r16,r16,r19
 80087f0:	8000acc0 	call	8000acc <__mulsi3>
 80087f4:	8080062e 	bgeu	r16,r2,8008810 <__udivdi3+0x3f0>
 80087f8:	8461883a 	add	r16,r16,r17
 80087fc:	e0ffffc4 	addi	r3,fp,-1
 8008800:	84407e36 	bltu	r16,r17,80089fc <__udivdi3+0x5dc>
 8008804:	80807d2e 	bgeu	r16,r2,80089fc <__udivdi3+0x5dc>
 8008808:	e73fff84 	addi	fp,fp,-2
 800880c:	8461883a 	add	r16,r16,r17
 8008810:	b806943a 	slli	r3,r23,16
 8008814:	80a1c83a 	sub	r16,r16,r2
 8008818:	1f06b03a 	or	r3,r3,fp
 800881c:	003f6a06 	br	80085c8 <__udivdi3+0x1a8>
 8008820:	3106d83a 	srl	r3,r6,r4
 8008824:	3dce983a 	sll	r7,r7,r23
 8008828:	8122d83a 	srl	r17,r16,r4
 800882c:	a104d83a 	srl	r2,r20,r4
 8008830:	19ecb03a 	or	r22,r3,r7
 8008834:	b024d43a 	srli	r18,r22,16
 8008838:	85e0983a 	sll	r16,r16,r23
 800883c:	8809883a 	mov	r4,r17
 8008840:	900b883a 	mov	r5,r18
 8008844:	1420b03a 	or	r16,r2,r16
 8008848:	b0bfffcc 	andi	r2,r22,65535
 800884c:	35ea983a 	sll	r21,r6,r23
 8008850:	d8800015 	stw	r2,0(sp)
 8008854:	8000a700 	call	8000a70 <__umodsi3>
 8008858:	900b883a 	mov	r5,r18
 800885c:	8809883a 	mov	r4,r17
 8008860:	1027883a 	mov	r19,r2
 8008864:	8000a0c0 	call	8000a0c <__udivsi3>
 8008868:	b13fffcc 	andi	r4,r22,65535
 800886c:	100b883a 	mov	r5,r2
 8008870:	1039883a 	mov	fp,r2
 8008874:	8000acc0 	call	8000acc <__mulsi3>
 8008878:	9826943a 	slli	r19,r19,16
 800887c:	8008d43a 	srli	r4,r16,16
 8008880:	9908b03a 	or	r4,r19,r4
 8008884:	2080062e 	bgeu	r4,r2,80088a0 <__udivdi3+0x480>
 8008888:	2589883a 	add	r4,r4,r22
 800888c:	e0ffffc4 	addi	r3,fp,-1
 8008890:	25805c36 	bltu	r4,r22,8008a04 <__udivdi3+0x5e4>
 8008894:	20805b2e 	bgeu	r4,r2,8008a04 <__udivdi3+0x5e4>
 8008898:	e73fff84 	addi	fp,fp,-2
 800889c:	2589883a 	add	r4,r4,r22
 80088a0:	20a3c83a 	sub	r17,r4,r2
 80088a4:	8809883a 	mov	r4,r17
 80088a8:	900b883a 	mov	r5,r18
 80088ac:	8000a700 	call	8000a70 <__umodsi3>
 80088b0:	1027883a 	mov	r19,r2
 80088b4:	8809883a 	mov	r4,r17
 80088b8:	900b883a 	mov	r5,r18
 80088bc:	9826943a 	slli	r19,r19,16
 80088c0:	8000a0c0 	call	8000a0c <__udivsi3>
 80088c4:	100b883a 	mov	r5,r2
 80088c8:	b13fffcc 	andi	r4,r22,65535
 80088cc:	843fffcc 	andi	r16,r16,65535
 80088d0:	1023883a 	mov	r17,r2
 80088d4:	9c20b03a 	or	r16,r19,r16
 80088d8:	8000acc0 	call	8000acc <__mulsi3>
 80088dc:	8080062e 	bgeu	r16,r2,80088f8 <__udivdi3+0x4d8>
 80088e0:	85a1883a 	add	r16,r16,r22
 80088e4:	88ffffc4 	addi	r3,r17,-1
 80088e8:	85804236 	bltu	r16,r22,80089f4 <__udivdi3+0x5d4>
 80088ec:	8080412e 	bgeu	r16,r2,80089f4 <__udivdi3+0x5d4>
 80088f0:	8c7fff84 	addi	r17,r17,-2
 80088f4:	85a1883a 	add	r16,r16,r22
 80088f8:	e038943a 	slli	fp,fp,16
 80088fc:	adbfffcc 	andi	r22,r21,65535
 8008900:	b00b883a 	mov	r5,r22
 8008904:	e478b03a 	or	fp,fp,r17
 8008908:	e024d43a 	srli	r18,fp,16
 800890c:	e4ffffcc 	andi	r19,fp,65535
 8008910:	9809883a 	mov	r4,r19
 8008914:	a82ad43a 	srli	r21,r21,16
 8008918:	80a1c83a 	sub	r16,r16,r2
 800891c:	8000acc0 	call	8000acc <__mulsi3>
 8008920:	9009883a 	mov	r4,r18
 8008924:	b00b883a 	mov	r5,r22
 8008928:	d8800015 	stw	r2,0(sp)
 800892c:	8000acc0 	call	8000acc <__mulsi3>
 8008930:	9009883a 	mov	r4,r18
 8008934:	a80b883a 	mov	r5,r21
 8008938:	1023883a 	mov	r17,r2
 800893c:	8000acc0 	call	8000acc <__mulsi3>
 8008940:	a80b883a 	mov	r5,r21
 8008944:	9809883a 	mov	r4,r19
 8008948:	1025883a 	mov	r18,r2
 800894c:	8000acc0 	call	8000acc <__mulsi3>
 8008950:	d9800017 	ldw	r6,0(sp)
 8008954:	1445883a 	add	r2,r2,r17
 8008958:	3006d43a 	srli	r3,r6,16
 800895c:	1885883a 	add	r2,r3,r2
 8008960:	1440022e 	bgeu	r2,r17,800896c <__udivdi3+0x54c>
 8008964:	00c00074 	movhi	r3,1
 8008968:	90e5883a 	add	r18,r18,r3
 800896c:	1006d43a 	srli	r3,r2,16
 8008970:	1c87883a 	add	r3,r3,r18
 8008974:	80c00936 	bltu	r16,r3,800899c <__udivdi3+0x57c>
 8008978:	80c00326 	beq	r16,r3,8008988 <__udivdi3+0x568>
 800897c:	e005883a 	mov	r2,fp
 8008980:	0007883a 	mov	r3,zero
 8008984:	003f5406 	br	80086d8 <__udivdi3+0x2b8>
 8008988:	1004943a 	slli	r2,r2,16
 800898c:	a5c6983a 	sll	r3,r20,r23
 8008990:	31bfffcc 	andi	r6,r6,65535
 8008994:	1185883a 	add	r2,r2,r6
 8008998:	18bff82e 	bgeu	r3,r2,800897c <__udivdi3+0x55c>
 800899c:	e0bfffc4 	addi	r2,fp,-1
 80089a0:	0007883a 	mov	r3,zero
 80089a4:	003f4c06 	br	80086d8 <__udivdi3+0x2b8>
 80089a8:	3808d43a 	srli	r4,r7,16
 80089ac:	00c00404 	movi	r3,16
 80089b0:	003f3c06 	br	80086a4 <__udivdi3+0x284>
 80089b4:	0007883a 	mov	r3,zero
 80089b8:	00800044 	movi	r2,1
 80089bc:	003f4606 	br	80086d8 <__udivdi3+0x2b8>
 80089c0:	3809883a 	mov	r4,r7
 80089c4:	0007883a 	mov	r3,zero
 80089c8:	003f3606 	br	80086a4 <__udivdi3+0x284>
 80089cc:	3007883a 	mov	r3,r6
 80089d0:	003eac06 	br	8008484 <__udivdi3+0x64>
 80089d4:	8806d43a 	srli	r3,r17,16
 80089d8:	04c00404 	movi	r19,16
 80089dc:	003eef06 	br	800859c <__udivdi3+0x17c>
 80089e0:	3006d43a 	srli	r3,r6,16
 80089e4:	04c00404 	movi	r19,16
 80089e8:	003ea606 	br	8008484 <__udivdi3+0x64>
 80089ec:	8807883a 	mov	r3,r17
 80089f0:	003eea06 	br	800859c <__udivdi3+0x17c>
 80089f4:	1823883a 	mov	r17,r3
 80089f8:	003fbf06 	br	80088f8 <__udivdi3+0x4d8>
 80089fc:	1839883a 	mov	fp,r3
 8008a00:	003f8306 	br	8008810 <__udivdi3+0x3f0>
 8008a04:	1839883a 	mov	fp,r3
 8008a08:	003fa506 	br	80088a0 <__udivdi3+0x480>
 8008a0c:	182f883a 	mov	r23,r3
 8008a10:	003f6906 	br	80087b8 <__udivdi3+0x398>
 8008a14:	9cffff84 	addi	r19,r19,-2
 8008a18:	003f1806 	br	800867c <__udivdi3+0x25c>
 8008a1c:	9cffff84 	addi	r19,r19,-2
 8008a20:	003ecf06 	br	8008560 <__udivdi3+0x140>
 8008a24:	843fff84 	addi	r16,r16,-2
 8008a28:	1c47883a 	add	r3,r3,r17
 8008a2c:	003eb706 	br	800850c <__udivdi3+0xec>
 8008a30:	843fff84 	addi	r16,r16,-2
 8008a34:	2449883a 	add	r4,r4,r17
 8008a38:	003ef906 	br	8008620 <__udivdi3+0x200>

08008a3c <__umoddi3>:
 8008a3c:	defff304 	addi	sp,sp,-52
 8008a40:	dc400415 	stw	r17,16(sp)
 8008a44:	dc000315 	stw	r16,12(sp)
 8008a48:	dfc00c15 	stw	ra,48(sp)
 8008a4c:	df000b15 	stw	fp,44(sp)
 8008a50:	ddc00a15 	stw	r23,40(sp)
 8008a54:	dd800915 	stw	r22,36(sp)
 8008a58:	dd400815 	stw	r21,32(sp)
 8008a5c:	dd000715 	stw	r20,28(sp)
 8008a60:	dcc00615 	stw	r19,24(sp)
 8008a64:	dc800515 	stw	r18,20(sp)
 8008a68:	2823883a 	mov	r17,r5
 8008a6c:	2021883a 	mov	r16,r4
 8008a70:	3800781e 	bne	r7,zero,8008c54 <__umoddi3+0x218>
 8008a74:	3825883a 	mov	r18,r7
 8008a78:	3027883a 	mov	r19,r6
 8008a7c:	2029883a 	mov	r20,r4
 8008a80:	29803d2e 	bgeu	r5,r6,8008b78 <__umoddi3+0x13c>
 8008a84:	00bfffd4 	movui	r2,65535
 8008a88:	2839883a 	mov	fp,r5
 8008a8c:	11809f36 	bltu	r2,r6,8008d0c <__umoddi3+0x2d0>
 8008a90:	30804030 	cmpltui	r2,r6,256
 8008a94:	1001451e 	bne	r2,zero,8008fac <__umoddi3+0x570>
 8008a98:	3006d23a 	srli	r3,r6,8
 8008a9c:	04800204 	movi	r18,8
 8008aa0:	00820074 	movhi	r2,2049
 8008aa4:	1885883a 	add	r2,r3,r2
 8008aa8:	11381a43 	ldbu	r4,-8087(r2)
 8008aac:	00800804 	movi	r2,32
 8008ab0:	2489883a 	add	r4,r4,r18
 8008ab4:	1125c83a 	sub	r18,r2,r4
 8008ab8:	90000526 	beq	r18,zero,8008ad0 <__umoddi3+0x94>
 8008abc:	8ca2983a 	sll	r17,r17,r18
 8008ac0:	8108d83a 	srl	r4,r16,r4
 8008ac4:	34a6983a 	sll	r19,r6,r18
 8008ac8:	84a8983a 	sll	r20,r16,r18
 8008acc:	2478b03a 	or	fp,r4,r17
 8008ad0:	982cd43a 	srli	r22,r19,16
 8008ad4:	e009883a 	mov	r4,fp
 8008ad8:	9dffffcc 	andi	r23,r19,65535
 8008adc:	b00b883a 	mov	r5,r22
 8008ae0:	8000a700 	call	8000a70 <__umodsi3>
 8008ae4:	b00b883a 	mov	r5,r22
 8008ae8:	e009883a 	mov	r4,fp
 8008aec:	102b883a 	mov	r21,r2
 8008af0:	8000a0c0 	call	8000a0c <__udivsi3>
 8008af4:	100b883a 	mov	r5,r2
 8008af8:	b809883a 	mov	r4,r23
 8008afc:	8000acc0 	call	8000acc <__mulsi3>
 8008b00:	a82a943a 	slli	r21,r21,16
 8008b04:	a006d43a 	srli	r3,r20,16
 8008b08:	a8c6b03a 	or	r3,r21,r3
 8008b0c:	1880032e 	bgeu	r3,r2,8008b1c <__umoddi3+0xe0>
 8008b10:	1cc7883a 	add	r3,r3,r19
 8008b14:	1cc00136 	bltu	r3,r19,8008b1c <__umoddi3+0xe0>
 8008b18:	18813836 	bltu	r3,r2,8008ffc <__umoddi3+0x5c0>
 8008b1c:	18a1c83a 	sub	r16,r3,r2
 8008b20:	b00b883a 	mov	r5,r22
 8008b24:	8009883a 	mov	r4,r16
 8008b28:	8000a700 	call	8000a70 <__umodsi3>
 8008b2c:	b00b883a 	mov	r5,r22
 8008b30:	8009883a 	mov	r4,r16
 8008b34:	1023883a 	mov	r17,r2
 8008b38:	8000a0c0 	call	8000a0c <__udivsi3>
 8008b3c:	100b883a 	mov	r5,r2
 8008b40:	b809883a 	mov	r4,r23
 8008b44:	8822943a 	slli	r17,r17,16
 8008b48:	8000acc0 	call	8000acc <__mulsi3>
 8008b4c:	a0ffffcc 	andi	r3,r20,65535
 8008b50:	88c6b03a 	or	r3,r17,r3
 8008b54:	1880042e 	bgeu	r3,r2,8008b68 <__umoddi3+0x12c>
 8008b58:	1cc7883a 	add	r3,r3,r19
 8008b5c:	1cc00236 	bltu	r3,r19,8008b68 <__umoddi3+0x12c>
 8008b60:	1880012e 	bgeu	r3,r2,8008b68 <__umoddi3+0x12c>
 8008b64:	1cc7883a 	add	r3,r3,r19
 8008b68:	1885c83a 	sub	r2,r3,r2
 8008b6c:	1484d83a 	srl	r2,r2,r18
 8008b70:	0007883a 	mov	r3,zero
 8008b74:	00003a06 	br	8008c60 <__umoddi3+0x224>
 8008b78:	3000041e 	bne	r6,zero,8008b8c <__umoddi3+0x150>
 8008b7c:	000b883a 	mov	r5,zero
 8008b80:	01000044 	movi	r4,1
 8008b84:	8000a0c0 	call	8000a0c <__udivsi3>
 8008b88:	1027883a 	mov	r19,r2
 8008b8c:	00bfffd4 	movui	r2,65535
 8008b90:	14c0592e 	bgeu	r2,r19,8008cf8 <__umoddi3+0x2bc>
 8008b94:	00804034 	movhi	r2,256
 8008b98:	98810c36 	bltu	r19,r2,8008fcc <__umoddi3+0x590>
 8008b9c:	9806d63a 	srli	r3,r19,24
 8008ba0:	04800604 	movi	r18,24
 8008ba4:	00820074 	movhi	r2,2049
 8008ba8:	1885883a 	add	r2,r3,r2
 8008bac:	10f81a43 	ldbu	r3,-8087(r2)
 8008bb0:	00800804 	movi	r2,32
 8008bb4:	1c87883a 	add	r3,r3,r18
 8008bb8:	10e5c83a 	sub	r18,r2,r3
 8008bbc:	9000c51e 	bne	r18,zero,8008ed4 <__umoddi3+0x498>
 8008bc0:	982ad43a 	srli	r21,r19,16
 8008bc4:	8ce3c83a 	sub	r17,r17,r19
 8008bc8:	9dbfffcc 	andi	r22,r19,65535
 8008bcc:	a80b883a 	mov	r5,r21
 8008bd0:	8809883a 	mov	r4,r17
 8008bd4:	8000a700 	call	8000a70 <__umodsi3>
 8008bd8:	a80b883a 	mov	r5,r21
 8008bdc:	8809883a 	mov	r4,r17
 8008be0:	102f883a 	mov	r23,r2
 8008be4:	8000a0c0 	call	8000a0c <__udivsi3>
 8008be8:	b00b883a 	mov	r5,r22
 8008bec:	1009883a 	mov	r4,r2
 8008bf0:	8000acc0 	call	8000acc <__mulsi3>
 8008bf4:	b82e943a 	slli	r23,r23,16
 8008bf8:	a006d43a 	srli	r3,r20,16
 8008bfc:	b8c6b03a 	or	r3,r23,r3
 8008c00:	1880042e 	bgeu	r3,r2,8008c14 <__umoddi3+0x1d8>
 8008c04:	1cc7883a 	add	r3,r3,r19
 8008c08:	1cc00236 	bltu	r3,r19,8008c14 <__umoddi3+0x1d8>
 8008c0c:	1880012e 	bgeu	r3,r2,8008c14 <__umoddi3+0x1d8>
 8008c10:	1cc7883a 	add	r3,r3,r19
 8008c14:	18a1c83a 	sub	r16,r3,r2
 8008c18:	a80b883a 	mov	r5,r21
 8008c1c:	8009883a 	mov	r4,r16
 8008c20:	8000a700 	call	8000a70 <__umodsi3>
 8008c24:	1023883a 	mov	r17,r2
 8008c28:	a80b883a 	mov	r5,r21
 8008c2c:	8009883a 	mov	r4,r16
 8008c30:	8000a0c0 	call	8000a0c <__udivsi3>
 8008c34:	8822943a 	slli	r17,r17,16
 8008c38:	b00b883a 	mov	r5,r22
 8008c3c:	1009883a 	mov	r4,r2
 8008c40:	8000acc0 	call	8000acc <__mulsi3>
 8008c44:	a53fffcc 	andi	r20,r20,65535
 8008c48:	8d06b03a 	or	r3,r17,r20
 8008c4c:	18bfc62e 	bgeu	r3,r2,8008b68 <__umoddi3+0x12c>
 8008c50:	003fc106 	br	8008b58 <__umoddi3+0x11c>
 8008c54:	2005883a 	mov	r2,r4
 8008c58:	29c00d2e 	bgeu	r5,r7,8008c90 <__umoddi3+0x254>
 8008c5c:	2807883a 	mov	r3,r5
 8008c60:	dfc00c17 	ldw	ra,48(sp)
 8008c64:	df000b17 	ldw	fp,44(sp)
 8008c68:	ddc00a17 	ldw	r23,40(sp)
 8008c6c:	dd800917 	ldw	r22,36(sp)
 8008c70:	dd400817 	ldw	r21,32(sp)
 8008c74:	dd000717 	ldw	r20,28(sp)
 8008c78:	dcc00617 	ldw	r19,24(sp)
 8008c7c:	dc800517 	ldw	r18,20(sp)
 8008c80:	dc400417 	ldw	r17,16(sp)
 8008c84:	dc000317 	ldw	r16,12(sp)
 8008c88:	dec00d04 	addi	sp,sp,52
 8008c8c:	f800283a 	ret
 8008c90:	013fffd4 	movui	r4,65535
 8008c94:	2807883a 	mov	r3,r5
 8008c98:	21c0122e 	bgeu	r4,r7,8008ce4 <__umoddi3+0x2a8>
 8008c9c:	01004034 	movhi	r4,256
 8008ca0:	3900c736 	bltu	r7,r4,8008fc0 <__umoddi3+0x584>
 8008ca4:	3810d63a 	srli	r8,r7,24
 8008ca8:	01400604 	movi	r5,24
 8008cac:	01020074 	movhi	r4,2049
 8008cb0:	4109883a 	add	r4,r8,r4
 8008cb4:	25381a43 	ldbu	r20,-8087(r4)
 8008cb8:	05400804 	movi	r21,32
 8008cbc:	a169883a 	add	r20,r20,r5
 8008cc0:	ad2bc83a 	sub	r21,r21,r20
 8008cc4:	a800161e 	bne	r21,zero,8008d20 <__umoddi3+0x2e4>
 8008cc8:	3c400136 	bltu	r7,r17,8008cd0 <__umoddi3+0x294>
 8008ccc:	81bfe436 	bltu	r16,r6,8008c60 <__umoddi3+0x224>
 8008cd0:	8185c83a 	sub	r2,r16,r6
 8008cd4:	89cfc83a 	sub	r7,r17,r7
 8008cd8:	8087803a 	cmpltu	r3,r16,r2
 8008cdc:	38c7c83a 	sub	r3,r7,r3
 8008ce0:	003fdf06 	br	8008c60 <__umoddi3+0x224>
 8008ce4:	39004030 	cmpltui	r4,r7,256
 8008ce8:	2000b21e 	bne	r4,zero,8008fb4 <__umoddi3+0x578>
 8008cec:	3810d23a 	srli	r8,r7,8
 8008cf0:	01400204 	movi	r5,8
 8008cf4:	003fed06 	br	8008cac <__umoddi3+0x270>
 8008cf8:	98804030 	cmpltui	r2,r19,256
 8008cfc:	1000b61e 	bne	r2,zero,8008fd8 <__umoddi3+0x59c>
 8008d00:	9806d23a 	srli	r3,r19,8
 8008d04:	04800204 	movi	r18,8
 8008d08:	003fa606 	br	8008ba4 <__umoddi3+0x168>
 8008d0c:	00804034 	movhi	r2,256
 8008d10:	3080b336 	bltu	r6,r2,8008fe0 <__umoddi3+0x5a4>
 8008d14:	3006d63a 	srli	r3,r6,24
 8008d18:	04800604 	movi	r18,24
 8008d1c:	003f6006 	br	8008aa0 <__umoddi3+0x64>
 8008d20:	3508d83a 	srl	r4,r6,r20
 8008d24:	3d4e983a 	sll	r7,r7,r21
 8008d28:	8d38d83a 	srl	fp,r17,r20
 8008d2c:	8504d83a 	srl	r2,r16,r20
 8008d30:	21e4b03a 	or	r18,r4,r7
 8008d34:	902cd43a 	srli	r22,r18,16
 8008d38:	8d62983a 	sll	r17,r17,r21
 8008d3c:	e009883a 	mov	r4,fp
 8008d40:	b00b883a 	mov	r5,r22
 8008d44:	3566983a 	sll	r19,r6,r21
 8008d48:	1462b03a 	or	r17,r2,r17
 8008d4c:	8000a700 	call	8000a70 <__umodsi3>
 8008d50:	e009883a 	mov	r4,fp
 8008d54:	b00b883a 	mov	r5,r22
 8008d58:	95ffffcc 	andi	r23,r18,65535
 8008d5c:	d8800015 	stw	r2,0(sp)
 8008d60:	8000a0c0 	call	8000a0c <__udivsi3>
 8008d64:	100b883a 	mov	r5,r2
 8008d68:	b809883a 	mov	r4,r23
 8008d6c:	1039883a 	mov	fp,r2
 8008d70:	8000acc0 	call	8000acc <__mulsi3>
 8008d74:	d9800017 	ldw	r6,0(sp)
 8008d78:	8806d43a 	srli	r3,r17,16
 8008d7c:	8560983a 	sll	r16,r16,r21
 8008d80:	300c943a 	slli	r6,r6,16
 8008d84:	30c6b03a 	or	r3,r6,r3
 8008d88:	1880062e 	bgeu	r3,r2,8008da4 <__umoddi3+0x368>
 8008d8c:	1c87883a 	add	r3,r3,r18
 8008d90:	e13fffc4 	addi	r4,fp,-1
 8008d94:	1c809736 	bltu	r3,r18,8008ff4 <__umoddi3+0x5b8>
 8008d98:	1880962e 	bgeu	r3,r2,8008ff4 <__umoddi3+0x5b8>
 8008d9c:	e73fff84 	addi	fp,fp,-2
 8008da0:	1c87883a 	add	r3,r3,r18
 8008da4:	1887c83a 	sub	r3,r3,r2
 8008da8:	b00b883a 	mov	r5,r22
 8008dac:	1809883a 	mov	r4,r3
 8008db0:	d8c00115 	stw	r3,4(sp)
 8008db4:	8000a700 	call	8000a70 <__umodsi3>
 8008db8:	d8c00117 	ldw	r3,4(sp)
 8008dbc:	b00b883a 	mov	r5,r22
 8008dc0:	d8800015 	stw	r2,0(sp)
 8008dc4:	1809883a 	mov	r4,r3
 8008dc8:	8000a0c0 	call	8000a0c <__udivsi3>
 8008dcc:	100b883a 	mov	r5,r2
 8008dd0:	b809883a 	mov	r4,r23
 8008dd4:	102d883a 	mov	r22,r2
 8008dd8:	8000acc0 	call	8000acc <__mulsi3>
 8008ddc:	d9800017 	ldw	r6,0(sp)
 8008de0:	8c7fffcc 	andi	r17,r17,65535
 8008de4:	300c943a 	slli	r6,r6,16
 8008de8:	3462b03a 	or	r17,r6,r17
 8008dec:	8880062e 	bgeu	r17,r2,8008e08 <__umoddi3+0x3cc>
 8008df0:	8ca3883a 	add	r17,r17,r18
 8008df4:	b0ffffc4 	addi	r3,r22,-1
 8008df8:	8c807c36 	bltu	r17,r18,8008fec <__umoddi3+0x5b0>
 8008dfc:	88807b2e 	bgeu	r17,r2,8008fec <__umoddi3+0x5b0>
 8008e00:	b5bfff84 	addi	r22,r22,-2
 8008e04:	8ca3883a 	add	r17,r17,r18
 8008e08:	e038943a 	slli	fp,fp,16
 8008e0c:	980cd43a 	srli	r6,r19,16
 8008e10:	98ffffcc 	andi	r3,r19,65535
 8008e14:	e5b8b03a 	or	fp,fp,r22
 8008e18:	e02cd43a 	srli	r22,fp,16
 8008e1c:	e73fffcc 	andi	fp,fp,65535
 8008e20:	180b883a 	mov	r5,r3
 8008e24:	e009883a 	mov	r4,fp
 8008e28:	d9800215 	stw	r6,8(sp)
 8008e2c:	d8c00015 	stw	r3,0(sp)
 8008e30:	88a3c83a 	sub	r17,r17,r2
 8008e34:	8000acc0 	call	8000acc <__mulsi3>
 8008e38:	d8c00017 	ldw	r3,0(sp)
 8008e3c:	b009883a 	mov	r4,r22
 8008e40:	102f883a 	mov	r23,r2
 8008e44:	180b883a 	mov	r5,r3
 8008e48:	8000acc0 	call	8000acc <__mulsi3>
 8008e4c:	d9800217 	ldw	r6,8(sp)
 8008e50:	b009883a 	mov	r4,r22
 8008e54:	d8800115 	stw	r2,4(sp)
 8008e58:	300b883a 	mov	r5,r6
 8008e5c:	d9800015 	stw	r6,0(sp)
 8008e60:	8000acc0 	call	8000acc <__mulsi3>
 8008e64:	d9800017 	ldw	r6,0(sp)
 8008e68:	e009883a 	mov	r4,fp
 8008e6c:	102d883a 	mov	r22,r2
 8008e70:	300b883a 	mov	r5,r6
 8008e74:	8000acc0 	call	8000acc <__mulsi3>
 8008e78:	d9c00117 	ldw	r7,4(sp)
 8008e7c:	b808d43a 	srli	r4,r23,16
 8008e80:	11c5883a 	add	r2,r2,r7
 8008e84:	2085883a 	add	r2,r4,r2
 8008e88:	11c0022e 	bgeu	r2,r7,8008e94 <__umoddi3+0x458>
 8008e8c:	00c00074 	movhi	r3,1
 8008e90:	b0ed883a 	add	r22,r22,r3
 8008e94:	1006d43a 	srli	r3,r2,16
 8008e98:	1004943a 	slli	r2,r2,16
 8008e9c:	bdffffcc 	andi	r23,r23,65535
 8008ea0:	1d87883a 	add	r3,r3,r22
 8008ea4:	15c5883a 	add	r2,r2,r23
 8008ea8:	88c03a36 	bltu	r17,r3,8008f94 <__umoddi3+0x558>
 8008eac:	88c03826 	beq	r17,r3,8008f90 <__umoddi3+0x554>
 8008eb0:	8085c83a 	sub	r2,r16,r2
 8008eb4:	80a1803a 	cmpltu	r16,r16,r2
 8008eb8:	88c7c83a 	sub	r3,r17,r3
 8008ebc:	1c07c83a 	sub	r3,r3,r16
 8008ec0:	1d20983a 	sll	r16,r3,r20
 8008ec4:	1544d83a 	srl	r2,r2,r21
 8008ec8:	1d46d83a 	srl	r3,r3,r21
 8008ecc:	8084b03a 	or	r2,r16,r2
 8008ed0:	003f6306 	br	8008c60 <__umoddi3+0x224>
 8008ed4:	9ca6983a 	sll	r19,r19,r18
 8008ed8:	88f8d83a 	srl	fp,r17,r3
 8008edc:	80c6d83a 	srl	r3,r16,r3
 8008ee0:	982ad43a 	srli	r21,r19,16
 8008ee4:	8ca2983a 	sll	r17,r17,r18
 8008ee8:	e009883a 	mov	r4,fp
 8008eec:	a80b883a 	mov	r5,r21
 8008ef0:	1c6eb03a 	or	r23,r3,r17
 8008ef4:	8000a700 	call	8000a70 <__umodsi3>
 8008ef8:	a80b883a 	mov	r5,r21
 8008efc:	e009883a 	mov	r4,fp
 8008f00:	1029883a 	mov	r20,r2
 8008f04:	9dbfffcc 	andi	r22,r19,65535
 8008f08:	8000a0c0 	call	8000a0c <__udivsi3>
 8008f0c:	b009883a 	mov	r4,r22
 8008f10:	100b883a 	mov	r5,r2
 8008f14:	8000acc0 	call	8000acc <__mulsi3>
 8008f18:	a006943a 	slli	r3,r20,16
 8008f1c:	b808d43a 	srli	r4,r23,16
 8008f20:	84a8983a 	sll	r20,r16,r18
 8008f24:	1906b03a 	or	r3,r3,r4
 8008f28:	1880042e 	bgeu	r3,r2,8008f3c <__umoddi3+0x500>
 8008f2c:	1cc7883a 	add	r3,r3,r19
 8008f30:	1cc00236 	bltu	r3,r19,8008f3c <__umoddi3+0x500>
 8008f34:	1880012e 	bgeu	r3,r2,8008f3c <__umoddi3+0x500>
 8008f38:	1cc7883a 	add	r3,r3,r19
 8008f3c:	18a3c83a 	sub	r17,r3,r2
 8008f40:	8809883a 	mov	r4,r17
 8008f44:	a80b883a 	mov	r5,r21
 8008f48:	8000a700 	call	8000a70 <__umodsi3>
 8008f4c:	1021883a 	mov	r16,r2
 8008f50:	8809883a 	mov	r4,r17
 8008f54:	a80b883a 	mov	r5,r21
 8008f58:	8022943a 	slli	r17,r16,16
 8008f5c:	8000a0c0 	call	8000a0c <__udivsi3>
 8008f60:	100b883a 	mov	r5,r2
 8008f64:	b009883a 	mov	r4,r22
 8008f68:	bdffffcc 	andi	r23,r23,65535
 8008f6c:	8000acc0 	call	8000acc <__mulsi3>
 8008f70:	8de2b03a 	or	r17,r17,r23
 8008f74:	8880042e 	bgeu	r17,r2,8008f88 <__umoddi3+0x54c>
 8008f78:	8ce3883a 	add	r17,r17,r19
 8008f7c:	8cc00236 	bltu	r17,r19,8008f88 <__umoddi3+0x54c>
 8008f80:	8880012e 	bgeu	r17,r2,8008f88 <__umoddi3+0x54c>
 8008f84:	8ce3883a 	add	r17,r17,r19
 8008f88:	88a3c83a 	sub	r17,r17,r2
 8008f8c:	003f0f06 	br	8008bcc <__umoddi3+0x190>
 8008f90:	80bfc72e 	bgeu	r16,r2,8008eb0 <__umoddi3+0x474>
 8008f94:	14e7c83a 	sub	r19,r2,r19
 8008f98:	14c5803a 	cmpltu	r2,r2,r19
 8008f9c:	1489883a 	add	r4,r2,r18
 8008fa0:	1907c83a 	sub	r3,r3,r4
 8008fa4:	9805883a 	mov	r2,r19
 8008fa8:	003fc106 	br	8008eb0 <__umoddi3+0x474>
 8008fac:	3007883a 	mov	r3,r6
 8008fb0:	003ebb06 	br	8008aa0 <__umoddi3+0x64>
 8008fb4:	3811883a 	mov	r8,r7
 8008fb8:	000b883a 	mov	r5,zero
 8008fbc:	003f3b06 	br	8008cac <__umoddi3+0x270>
 8008fc0:	3810d43a 	srli	r8,r7,16
 8008fc4:	01400404 	movi	r5,16
 8008fc8:	003f3806 	br	8008cac <__umoddi3+0x270>
 8008fcc:	9806d43a 	srli	r3,r19,16
 8008fd0:	04800404 	movi	r18,16
 8008fd4:	003ef306 	br	8008ba4 <__umoddi3+0x168>
 8008fd8:	9807883a 	mov	r3,r19
 8008fdc:	003ef106 	br	8008ba4 <__umoddi3+0x168>
 8008fe0:	3006d43a 	srli	r3,r6,16
 8008fe4:	04800404 	movi	r18,16
 8008fe8:	003ead06 	br	8008aa0 <__umoddi3+0x64>
 8008fec:	182d883a 	mov	r22,r3
 8008ff0:	003f8506 	br	8008e08 <__umoddi3+0x3cc>
 8008ff4:	2039883a 	mov	fp,r4
 8008ff8:	003f6a06 	br	8008da4 <__umoddi3+0x368>
 8008ffc:	1cc7883a 	add	r3,r3,r19
 8009000:	003ec606 	br	8008b1c <__umoddi3+0xe0>

08009004 <__adddf3>:
 8009004:	02000434 	movhi	r8,16
 8009008:	defffb04 	addi	sp,sp,-20
 800900c:	423fffc4 	addi	r8,r8,-1
 8009010:	2a12703a 	and	r9,r5,r8
 8009014:	3a06703a 	and	r3,r7,r8
 8009018:	3804d53a 	srli	r2,r7,20
 800901c:	dc000015 	stw	r16,0(sp)
 8009020:	2820d53a 	srli	r16,r5,20
 8009024:	2016d77a 	srli	r11,r4,29
 8009028:	3014d77a 	srli	r10,r6,29
 800902c:	280ad7fa 	srli	r5,r5,31
 8009030:	481290fa 	slli	r9,r9,3
 8009034:	180690fa 	slli	r3,r3,3
 8009038:	380ed7fa 	srli	r7,r7,31
 800903c:	dc400115 	stw	r17,4(sp)
 8009040:	8401ffcc 	andi	r16,r16,2047
 8009044:	1081ffcc 	andi	r2,r2,2047
 8009048:	dfc00415 	stw	ra,16(sp)
 800904c:	dcc00315 	stw	r19,12(sp)
 8009050:	dc800215 	stw	r18,8(sp)
 8009054:	5a52b03a 	or	r9,r11,r9
 8009058:	50c6b03a 	or	r3,r10,r3
 800905c:	2823883a 	mov	r17,r5
 8009060:	201890fa 	slli	r12,r4,3
 8009064:	301690fa 	slli	r11,r6,3
 8009068:	8095c83a 	sub	r10,r16,r2
 800906c:	29c06a26 	beq	r5,r7,8009218 <__adddf3+0x214>
 8009070:	0280590e 	bge	zero,r10,80091d8 <__adddf3+0x1d4>
 8009074:	10007c26 	beq	r2,zero,8009268 <__adddf3+0x264>
 8009078:	8081ffd8 	cmpnei	r2,r16,2047
 800907c:	10010726 	beq	r2,zero,800949c <__adddf3+0x498>
 8009080:	18c02034 	orhi	r3,r3,128
 8009084:	50800e48 	cmpgei	r2,r10,57
 8009088:	1000ed1e 	bne	r2,zero,8009440 <__adddf3+0x43c>
 800908c:	50800808 	cmpgei	r2,r10,32
 8009090:	1001541e 	bne	r2,zero,80095e4 <__adddf3+0x5e0>
 8009094:	01000804 	movi	r4,32
 8009098:	2289c83a 	sub	r4,r4,r10
 800909c:	1926983a 	sll	r19,r3,r4
 80090a0:	5a84d83a 	srl	r2,r11,r10
 80090a4:	5908983a 	sll	r4,r11,r4
 80090a8:	1a86d83a 	srl	r3,r3,r10
 80090ac:	98a6b03a 	or	r19,r19,r2
 80090b0:	2016c03a 	cmpne	r11,r4,zero
 80090b4:	9ae6b03a 	or	r19,r19,r11
 80090b8:	48d3c83a 	sub	r9,r9,r3
 80090bc:	64e7c83a 	sub	r19,r12,r19
 80090c0:	64c9803a 	cmpltu	r4,r12,r19
 80090c4:	4909c83a 	sub	r4,r9,r4
 80090c8:	2080202c 	andhi	r2,r4,128
 80090cc:	10008726 	beq	r2,zero,80092ec <__adddf3+0x2e8>
 80090d0:	02402034 	movhi	r9,128
 80090d4:	4a7fffc4 	addi	r9,r9,-1
 80090d8:	2264703a 	and	r18,r4,r9
 80090dc:	9000cf26 	beq	r18,zero,800941c <__adddf3+0x418>
 80090e0:	9009883a 	mov	r4,r18
 80090e4:	800b8ec0 	call	800b8ec <__clzsi2>
 80090e8:	10fffe04 	addi	r3,r2,-8
 80090ec:	01000804 	movi	r4,32
 80090f0:	20c9c83a 	sub	r4,r4,r3
 80090f4:	990ad83a 	srl	r5,r19,r4
 80090f8:	90c8983a 	sll	r4,r18,r3
 80090fc:	98e6983a 	sll	r19,r19,r3
 8009100:	2908b03a 	or	r4,r5,r4
 8009104:	1c00be16 	blt	r3,r16,8009400 <__adddf3+0x3fc>
 8009108:	1c21c83a 	sub	r16,r3,r16
 800910c:	81400044 	addi	r5,r16,1
 8009110:	28800808 	cmpgei	r2,r5,32
 8009114:	10011b1e 	bne	r2,zero,8009584 <__adddf3+0x580>
 8009118:	00800804 	movi	r2,32
 800911c:	1145c83a 	sub	r2,r2,r5
 8009120:	9946d83a 	srl	r3,r19,r5
 8009124:	98a6983a 	sll	r19,r19,r2
 8009128:	2084983a 	sll	r2,r4,r2
 800912c:	2148d83a 	srl	r4,r4,r5
 8009130:	9826c03a 	cmpne	r19,r19,zero
 8009134:	10c4b03a 	or	r2,r2,r3
 8009138:	14e6b03a 	or	r19,r2,r19
 800913c:	0021883a 	mov	r16,zero
 8009140:	988001cc 	andi	r2,r19,7
 8009144:	10000726 	beq	r2,zero,8009164 <__adddf3+0x160>
 8009148:	988003cc 	andi	r2,r19,15
 800914c:	10800120 	cmpeqi	r2,r2,4
 8009150:	1000041e 	bne	r2,zero,8009164 <__adddf3+0x160>
 8009154:	99400104 	addi	r5,r19,4
 8009158:	2ce7803a 	cmpltu	r19,r5,r19
 800915c:	24c9883a 	add	r4,r4,r19
 8009160:	2827883a 	mov	r19,r5
 8009164:	2080202c 	andhi	r2,r4,128
 8009168:	10006226 	beq	r2,zero,80092f4 <__adddf3+0x2f0>
 800916c:	84000044 	addi	r16,r16,1
 8009170:	8081ffe0 	cmpeqi	r2,r16,2047
 8009174:	8401ffcc 	andi	r16,r16,2047
 8009178:	1000731e 	bne	r2,zero,8009348 <__adddf3+0x344>
 800917c:	017fe034 	movhi	r5,65408
 8009180:	297fffc4 	addi	r5,r5,-1
 8009184:	214a703a 	and	r5,r4,r5
 8009188:	2804977a 	slli	r2,r5,29
 800918c:	280a927a 	slli	r5,r5,9
 8009190:	9826d0fa 	srli	r19,r19,3
 8009194:	2808d33a 	srli	r4,r5,12
 8009198:	14c4b03a 	or	r2,r2,r19
 800919c:	8020953a 	slli	r16,r16,20
 80091a0:	00c00434 	movhi	r3,16
 80091a4:	8c403fcc 	andi	r17,r17,255
 80091a8:	882297fa 	slli	r17,r17,31
 80091ac:	18ffffc4 	addi	r3,r3,-1
 80091b0:	20c6703a 	and	r3,r4,r3
 80091b4:	1c06b03a 	or	r3,r3,r16
 80091b8:	1c46b03a 	or	r3,r3,r17
 80091bc:	dfc00417 	ldw	ra,16(sp)
 80091c0:	dcc00317 	ldw	r19,12(sp)
 80091c4:	dc800217 	ldw	r18,8(sp)
 80091c8:	dc400117 	ldw	r17,4(sp)
 80091cc:	dc000017 	ldw	r16,0(sp)
 80091d0:	dec00504 	addi	sp,sp,20
 80091d4:	f800283a 	ret
 80091d8:	50002b1e 	bne	r10,zero,8009288 <__adddf3+0x284>
 80091dc:	80800044 	addi	r2,r16,1
 80091e0:	1081ff8c 	andi	r2,r2,2046
 80091e4:	1000a11e 	bne	r2,zero,800946c <__adddf3+0x468>
 80091e8:	4b0ab03a 	or	r5,r9,r12
 80091ec:	1ac4b03a 	or	r2,r3,r11
 80091f0:	80015c1e 	bne	r16,zero,8009764 <__adddf3+0x760>
 80091f4:	28012826 	beq	r5,zero,8009698 <__adddf3+0x694>
 80091f8:	1001671e 	bne	r2,zero,8009798 <__adddf3+0x794>
 80091fc:	4826977a 	slli	r19,r9,29
 8009200:	00c80034 	movhi	r3,8192
 8009204:	18ffffc4 	addi	r3,r3,-1
 8009208:	20c4703a 	and	r2,r4,r3
 800920c:	9884b03a 	or	r2,r19,r2
 8009210:	4812d0fa 	srli	r9,r9,3
 8009214:	00003d06 	br	800930c <__adddf3+0x308>
 8009218:	02804f0e 	bge	zero,r10,8009358 <__adddf3+0x354>
 800921c:	10002426 	beq	r2,zero,80092b0 <__adddf3+0x2ac>
 8009220:	8081ffd8 	cmpnei	r2,r16,2047
 8009224:	10009d26 	beq	r2,zero,800949c <__adddf3+0x498>
 8009228:	18c02034 	orhi	r3,r3,128
 800922c:	50800e48 	cmpgei	r2,r10,57
 8009230:	10003b1e 	bne	r2,zero,8009320 <__adddf3+0x31c>
 8009234:	50800808 	cmpgei	r2,r10,32
 8009238:	10010326 	beq	r2,zero,8009648 <__adddf3+0x644>
 800923c:	54fff804 	addi	r19,r10,-32
 8009240:	51000820 	cmpeqi	r4,r10,32
 8009244:	1cc4d83a 	srl	r2,r3,r19
 8009248:	2000041e 	bne	r4,zero,800925c <__adddf3+0x258>
 800924c:	01001004 	movi	r4,64
 8009250:	2295c83a 	sub	r10,r4,r10
 8009254:	1a86983a 	sll	r3,r3,r10
 8009258:	58d6b03a 	or	r11,r11,r3
 800925c:	5826c03a 	cmpne	r19,r11,zero
 8009260:	98a6b03a 	or	r19,r19,r2
 8009264:	00003006 	br	8009328 <__adddf3+0x324>
 8009268:	1ac4b03a 	or	r2,r3,r11
 800926c:	10007726 	beq	r2,zero,800944c <__adddf3+0x448>
 8009270:	50bfffc4 	addi	r2,r10,-1
 8009274:	10011926 	beq	r2,zero,80096dc <__adddf3+0x6d8>
 8009278:	5281ffd8 	cmpnei	r10,r10,2047
 800927c:	50012026 	beq	r10,zero,8009700 <__adddf3+0x6fc>
 8009280:	1015883a 	mov	r10,r2
 8009284:	003f7f06 	br	8009084 <__adddf3+0x80>
 8009288:	1409c83a 	sub	r4,r2,r16
 800928c:	8000a61e 	bne	r16,zero,8009528 <__adddf3+0x524>
 8009290:	4b0ab03a 	or	r5,r9,r12
 8009294:	2800f726 	beq	r5,zero,8009674 <__adddf3+0x670>
 8009298:	217fffc4 	addi	r5,r4,-1
 800929c:	28017f26 	beq	r5,zero,800989c <__adddf3+0x898>
 80092a0:	2101ffd8 	cmpnei	r4,r4,2047
 80092a4:	2001a326 	beq	r4,zero,8009934 <__adddf3+0x930>
 80092a8:	2809883a 	mov	r4,r5
 80092ac:	0000a106 	br	8009534 <__adddf3+0x530>
 80092b0:	1ac4b03a 	or	r2,r3,r11
 80092b4:	10006526 	beq	r2,zero,800944c <__adddf3+0x448>
 80092b8:	50bfffc4 	addi	r2,r10,-1
 80092bc:	10000426 	beq	r2,zero,80092d0 <__adddf3+0x2cc>
 80092c0:	5281ffd8 	cmpnei	r10,r10,2047
 80092c4:	50014326 	beq	r10,zero,80097d4 <__adddf3+0x7d0>
 80092c8:	1015883a 	mov	r10,r2
 80092cc:	003fd706 	br	800922c <__adddf3+0x228>
 80092d0:	62e7883a 	add	r19,r12,r11
 80092d4:	48d3883a 	add	r9,r9,r3
 80092d8:	9b09803a 	cmpltu	r4,r19,r12
 80092dc:	4909883a 	add	r4,r9,r4
 80092e0:	2080202c 	andhi	r2,r4,128
 80092e4:	1000b41e 	bne	r2,zero,80095b8 <__adddf3+0x5b4>
 80092e8:	04000044 	movi	r16,1
 80092ec:	988001cc 	andi	r2,r19,7
 80092f0:	103f951e 	bne	r2,zero,8009148 <__adddf3+0x144>
 80092f4:	9826d0fa 	srli	r19,r19,3
 80092f8:	2004977a 	slli	r2,r4,29
 80092fc:	2012d0fa 	srli	r9,r4,3
 8009300:	9884b03a 	or	r2,r19,r2
 8009304:	80c1ffe0 	cmpeqi	r3,r16,2047
 8009308:	1800351e 	bne	r3,zero,80093e0 <__adddf3+0x3dc>
 800930c:	01000434 	movhi	r4,16
 8009310:	213fffc4 	addi	r4,r4,-1
 8009314:	4908703a 	and	r4,r9,r4
 8009318:	8401ffcc 	andi	r16,r16,2047
 800931c:	003f9f06 	br	800919c <__adddf3+0x198>
 8009320:	1ac8b03a 	or	r4,r3,r11
 8009324:	2026c03a 	cmpne	r19,r4,zero
 8009328:	9b27883a 	add	r19,r19,r12
 800932c:	9b09803a 	cmpltu	r4,r19,r12
 8009330:	2249883a 	add	r4,r4,r9
 8009334:	2080202c 	andhi	r2,r4,128
 8009338:	103fec26 	beq	r2,zero,80092ec <__adddf3+0x2e8>
 800933c:	84000044 	addi	r16,r16,1
 8009340:	8081ffe0 	cmpeqi	r2,r16,2047
 8009344:	10009d26 	beq	r2,zero,80095bc <__adddf3+0x5b8>
 8009348:	0401ffc4 	movi	r16,2047
 800934c:	0009883a 	mov	r4,zero
 8009350:	0005883a 	mov	r2,zero
 8009354:	003f9106 	br	800919c <__adddf3+0x198>
 8009358:	5000571e 	bne	r10,zero,80094b8 <__adddf3+0x4b4>
 800935c:	80800044 	addi	r2,r16,1
 8009360:	1141ff8c 	andi	r5,r2,2046
 8009364:	2800ed1e 	bne	r5,zero,800971c <__adddf3+0x718>
 8009368:	4b04b03a 	or	r2,r9,r12
 800936c:	8000a826 	beq	r16,zero,8009610 <__adddf3+0x60c>
 8009370:	10010226 	beq	r2,zero,800977c <__adddf3+0x778>
 8009374:	1ad6b03a 	or	r11,r3,r11
 8009378:	480a977a 	slli	r5,r9,29
 800937c:	4812d0fa 	srli	r9,r9,3
 8009380:	58015f26 	beq	r11,zero,8009900 <__adddf3+0x8fc>
 8009384:	02080034 	movhi	r8,8192
 8009388:	423fffc4 	addi	r8,r8,-1
 800938c:	2204703a 	and	r2,r4,r8
 8009390:	4900022c 	andhi	r4,r9,8
 8009394:	114ab03a 	or	r5,r2,r5
 8009398:	20000826 	beq	r4,zero,80093bc <__adddf3+0x3b8>
 800939c:	1808d0fa 	srli	r4,r3,3
 80093a0:	2080022c 	andhi	r2,r4,8
 80093a4:	1000051e 	bne	r2,zero,80093bc <__adddf3+0x3b8>
 80093a8:	1806977a 	slli	r3,r3,29
 80093ac:	3204703a 	and	r2,r6,r8
 80093b0:	3823883a 	mov	r17,r7
 80093b4:	10cab03a 	or	r5,r2,r3
 80093b8:	2013883a 	mov	r9,r4
 80093bc:	2804d77a 	srli	r2,r5,29
 80093c0:	480890fa 	slli	r4,r9,3
 80093c4:	00c80034 	movhi	r3,8192
 80093c8:	18ffffc4 	addi	r3,r3,-1
 80093cc:	1108b03a 	or	r4,r2,r4
 80093d0:	2004977a 	slli	r2,r4,29
 80093d4:	2012d0fa 	srli	r9,r4,3
 80093d8:	28ca703a 	and	r5,r5,r3
 80093dc:	1144b03a 	or	r2,r2,r5
 80093e0:	4886b03a 	or	r3,r9,r2
 80093e4:	18016b26 	beq	r3,zero,8009994 <__adddf3+0x990>
 80093e8:	00c00434 	movhi	r3,16
 80093ec:	49000234 	orhi	r4,r9,8
 80093f0:	18ffffc4 	addi	r3,r3,-1
 80093f4:	20c8703a 	and	r4,r4,r3
 80093f8:	0401ffc4 	movi	r16,2047
 80093fc:	003f6706 	br	800919c <__adddf3+0x198>
 8009400:	017fe034 	movhi	r5,65408
 8009404:	297fffc4 	addi	r5,r5,-1
 8009408:	988001cc 	andi	r2,r19,7
 800940c:	80e1c83a 	sub	r16,r16,r3
 8009410:	2148703a 	and	r4,r4,r5
 8009414:	103f4c1e 	bne	r2,zero,8009148 <__adddf3+0x144>
 8009418:	003fb606 	br	80092f4 <__adddf3+0x2f0>
 800941c:	9809883a 	mov	r4,r19
 8009420:	800b8ec0 	call	800b8ec <__clzsi2>
 8009424:	10c00604 	addi	r3,r2,24
 8009428:	19000808 	cmpgei	r4,r3,32
 800942c:	203f2f26 	beq	r4,zero,80090ec <__adddf3+0xe8>
 8009430:	113ffe04 	addi	r4,r2,-8
 8009434:	9908983a 	sll	r4,r19,r4
 8009438:	0027883a 	mov	r19,zero
 800943c:	003f3106 	br	8009104 <__adddf3+0x100>
 8009440:	1ac8b03a 	or	r4,r3,r11
 8009444:	2026c03a 	cmpne	r19,r4,zero
 8009448:	003f1c06 	br	80090bc <__adddf3+0xb8>
 800944c:	4826977a 	slli	r19,r9,29
 8009450:	00c80034 	movhi	r3,8192
 8009454:	18ffffc4 	addi	r3,r3,-1
 8009458:	20c4703a 	and	r2,r4,r3
 800945c:	14c4b03a 	or	r2,r2,r19
 8009460:	4812d0fa 	srli	r9,r9,3
 8009464:	5021883a 	mov	r16,r10
 8009468:	003fa606 	br	8009304 <__adddf3+0x300>
 800946c:	62e7c83a 	sub	r19,r12,r11
 8009470:	48e5c83a 	sub	r18,r9,r3
 8009474:	64c9803a 	cmpltu	r4,r12,r19
 8009478:	9125c83a 	sub	r18,r18,r4
 800947c:	9080202c 	andhi	r2,r18,128
 8009480:	1000b21e 	bne	r2,zero,800974c <__adddf3+0x748>
 8009484:	9c84b03a 	or	r2,r19,r18
 8009488:	103f141e 	bne	r2,zero,80090dc <__adddf3+0xd8>
 800948c:	0013883a 	mov	r9,zero
 8009490:	0021883a 	mov	r16,zero
 8009494:	0023883a 	mov	r17,zero
 8009498:	003f9c06 	br	800930c <__adddf3+0x308>
 800949c:	4826977a 	slli	r19,r9,29
 80094a0:	00c80034 	movhi	r3,8192
 80094a4:	18ffffc4 	addi	r3,r3,-1
 80094a8:	20c4703a 	and	r2,r4,r3
 80094ac:	14c4b03a 	or	r2,r2,r19
 80094b0:	4812d0fa 	srli	r9,r9,3
 80094b4:	003fca06 	br	80093e0 <__adddf3+0x3dc>
 80094b8:	1409c83a 	sub	r4,r2,r16
 80094bc:	80005e1e 	bne	r16,zero,8009638 <__adddf3+0x634>
 80094c0:	4b0ab03a 	or	r5,r9,r12
 80094c4:	28011326 	beq	r5,zero,8009914 <__adddf3+0x910>
 80094c8:	217fffc4 	addi	r5,r4,-1
 80094cc:	28012c26 	beq	r5,zero,8009980 <__adddf3+0x97c>
 80094d0:	2101ffd8 	cmpnei	r4,r4,2047
 80094d4:	2000a926 	beq	r4,zero,800977c <__adddf3+0x778>
 80094d8:	2809883a 	mov	r4,r5
 80094dc:	21400e48 	cmpgei	r5,r4,57
 80094e0:	2800b91e 	bne	r5,zero,80097c8 <__adddf3+0x7c4>
 80094e4:	21400808 	cmpgei	r5,r4,32
 80094e8:	28011a1e 	bne	r5,zero,8009954 <__adddf3+0x950>
 80094ec:	01400804 	movi	r5,32
 80094f0:	290bc83a 	sub	r5,r5,r4
 80094f4:	4966983a 	sll	r19,r9,r5
 80094f8:	610cd83a 	srl	r6,r12,r4
 80094fc:	614a983a 	sll	r5,r12,r5
 8009500:	4912d83a 	srl	r9,r9,r4
 8009504:	99a6b03a 	or	r19,r19,r6
 8009508:	280ac03a 	cmpne	r5,r5,zero
 800950c:	9966b03a 	or	r19,r19,r5
 8009510:	1a47883a 	add	r3,r3,r9
 8009514:	9ae7883a 	add	r19,r19,r11
 8009518:	9ac9803a 	cmpltu	r4,r19,r11
 800951c:	20c9883a 	add	r4,r4,r3
 8009520:	1021883a 	mov	r16,r2
 8009524:	003f8306 	br	8009334 <__adddf3+0x330>
 8009528:	1141ffd8 	cmpnei	r5,r2,2047
 800952c:	28006326 	beq	r5,zero,80096bc <__adddf3+0x6b8>
 8009530:	4a402034 	orhi	r9,r9,128
 8009534:	21400e48 	cmpgei	r5,r4,57
 8009538:	28006e1e 	bne	r5,zero,80096f4 <__adddf3+0x6f0>
 800953c:	21400808 	cmpgei	r5,r4,32
 8009540:	2800ab1e 	bne	r5,zero,80097f0 <__adddf3+0x7ec>
 8009544:	01400804 	movi	r5,32
 8009548:	290bc83a 	sub	r5,r5,r4
 800954c:	4966983a 	sll	r19,r9,r5
 8009550:	610cd83a 	srl	r6,r12,r4
 8009554:	614a983a 	sll	r5,r12,r5
 8009558:	4912d83a 	srl	r9,r9,r4
 800955c:	99a6b03a 	or	r19,r19,r6
 8009560:	280ac03a 	cmpne	r5,r5,zero
 8009564:	9966b03a 	or	r19,r19,r5
 8009568:	1a47c83a 	sub	r3,r3,r9
 800956c:	5ce7c83a 	sub	r19,r11,r19
 8009570:	5cc9803a 	cmpltu	r4,r11,r19
 8009574:	1909c83a 	sub	r4,r3,r4
 8009578:	3823883a 	mov	r17,r7
 800957c:	1021883a 	mov	r16,r2
 8009580:	003ed106 	br	80090c8 <__adddf3+0xc4>
 8009584:	843ff844 	addi	r16,r16,-31
 8009588:	28800820 	cmpeqi	r2,r5,32
 800958c:	2420d83a 	srl	r16,r4,r16
 8009590:	1000041e 	bne	r2,zero,80095a4 <__adddf3+0x5a0>
 8009594:	00801004 	movi	r2,64
 8009598:	114bc83a 	sub	r5,r2,r5
 800959c:	2148983a 	sll	r4,r4,r5
 80095a0:	9926b03a 	or	r19,r19,r4
 80095a4:	9826c03a 	cmpne	r19,r19,zero
 80095a8:	9c26b03a 	or	r19,r19,r16
 80095ac:	0009883a 	mov	r4,zero
 80095b0:	0021883a 	mov	r16,zero
 80095b4:	003f4d06 	br	80092ec <__adddf3+0x2e8>
 80095b8:	04000084 	movi	r16,2
 80095bc:	00bfe034 	movhi	r2,65408
 80095c0:	10bfffc4 	addi	r2,r2,-1
 80095c4:	208a703a 	and	r5,r4,r2
 80095c8:	9804d07a 	srli	r2,r19,1
 80095cc:	280697fa 	slli	r3,r5,31
 80095d0:	9cc0004c 	andi	r19,r19,1
 80095d4:	14e6b03a 	or	r19,r2,r19
 80095d8:	2808d07a 	srli	r4,r5,1
 80095dc:	1ce6b03a 	or	r19,r3,r19
 80095e0:	003ed706 	br	8009140 <__adddf3+0x13c>
 80095e4:	54fff804 	addi	r19,r10,-32
 80095e8:	50800820 	cmpeqi	r2,r10,32
 80095ec:	1ce6d83a 	srl	r19,r3,r19
 80095f0:	1000041e 	bne	r2,zero,8009604 <__adddf3+0x600>
 80095f4:	00801004 	movi	r2,64
 80095f8:	1295c83a 	sub	r10,r2,r10
 80095fc:	1a86983a 	sll	r3,r3,r10
 8009600:	58d6b03a 	or	r11,r11,r3
 8009604:	5808c03a 	cmpne	r4,r11,zero
 8009608:	24e6b03a 	or	r19,r4,r19
 800960c:	003eab06 	br	80090bc <__adddf3+0xb8>
 8009610:	1000a926 	beq	r2,zero,80098b8 <__adddf3+0x8b4>
 8009614:	1ac4b03a 	or	r2,r3,r11
 8009618:	1000ae1e 	bne	r2,zero,80098d4 <__adddf3+0x8d0>
 800961c:	4806977a 	slli	r3,r9,29
 8009620:	00880034 	movhi	r2,8192
 8009624:	10bfffc4 	addi	r2,r2,-1
 8009628:	2084703a 	and	r2,r4,r2
 800962c:	10c4b03a 	or	r2,r2,r3
 8009630:	4812d0fa 	srli	r9,r9,3
 8009634:	003f3506 	br	800930c <__adddf3+0x308>
 8009638:	1141ffd8 	cmpnei	r5,r2,2047
 800963c:	28004f26 	beq	r5,zero,800977c <__adddf3+0x778>
 8009640:	4a402034 	orhi	r9,r9,128
 8009644:	003fa506 	br	80094dc <__adddf3+0x4d8>
 8009648:	01000804 	movi	r4,32
 800964c:	2289c83a 	sub	r4,r4,r10
 8009650:	1926983a 	sll	r19,r3,r4
 8009654:	5a84d83a 	srl	r2,r11,r10
 8009658:	5908983a 	sll	r4,r11,r4
 800965c:	1a86d83a 	srl	r3,r3,r10
 8009660:	98a6b03a 	or	r19,r19,r2
 8009664:	2016c03a 	cmpne	r11,r4,zero
 8009668:	9ae6b03a 	or	r19,r19,r11
 800966c:	48d3883a 	add	r9,r9,r3
 8009670:	003f2d06 	br	8009328 <__adddf3+0x324>
 8009674:	01480034 	movhi	r5,8192
 8009678:	1826977a 	slli	r19,r3,29
 800967c:	297fffc4 	addi	r5,r5,-1
 8009680:	3144703a 	and	r2,r6,r5
 8009684:	14c4b03a 	or	r2,r2,r19
 8009688:	1812d0fa 	srli	r9,r3,3
 800968c:	3823883a 	mov	r17,r7
 8009690:	2021883a 	mov	r16,r4
 8009694:	003f1b06 	br	8009304 <__adddf3+0x300>
 8009698:	10007d26 	beq	r2,zero,8009890 <__adddf3+0x88c>
 800969c:	00880034 	movhi	r2,8192
 80096a0:	1808977a 	slli	r4,r3,29
 80096a4:	10bfffc4 	addi	r2,r2,-1
 80096a8:	3084703a 	and	r2,r6,r2
 80096ac:	1104b03a 	or	r2,r2,r4
 80096b0:	1812d0fa 	srli	r9,r3,3
 80096b4:	3823883a 	mov	r17,r7
 80096b8:	003f1406 	br	800930c <__adddf3+0x308>
 80096bc:	180a977a 	slli	r5,r3,29
 80096c0:	01080034 	movhi	r4,8192
 80096c4:	213fffc4 	addi	r4,r4,-1
 80096c8:	3104703a 	and	r2,r6,r4
 80096cc:	2884b03a 	or	r2,r5,r2
 80096d0:	1812d0fa 	srli	r9,r3,3
 80096d4:	3823883a 	mov	r17,r7
 80096d8:	003f4106 	br	80093e0 <__adddf3+0x3dc>
 80096dc:	62e7c83a 	sub	r19,r12,r11
 80096e0:	48d3c83a 	sub	r9,r9,r3
 80096e4:	64c9803a 	cmpltu	r4,r12,r19
 80096e8:	4909c83a 	sub	r4,r9,r4
 80096ec:	04000044 	movi	r16,1
 80096f0:	003e7506 	br	80090c8 <__adddf3+0xc4>
 80096f4:	4b12b03a 	or	r9,r9,r12
 80096f8:	4826c03a 	cmpne	r19,r9,zero
 80096fc:	003f9b06 	br	800956c <__adddf3+0x568>
 8009700:	4826977a 	slli	r19,r9,29
 8009704:	00c80034 	movhi	r3,8192
 8009708:	18ffffc4 	addi	r3,r3,-1
 800970c:	20c4703a 	and	r2,r4,r3
 8009710:	9884b03a 	or	r2,r19,r2
 8009714:	4812d0fa 	srli	r9,r9,3
 8009718:	003f3106 	br	80093e0 <__adddf3+0x3dc>
 800971c:	1101ffe0 	cmpeqi	r4,r2,2047
 8009720:	203f091e 	bne	r4,zero,8009348 <__adddf3+0x344>
 8009724:	62d7883a 	add	r11,r12,r11
 8009728:	5b09803a 	cmpltu	r4,r11,r12
 800972c:	48d3883a 	add	r9,r9,r3
 8009730:	490b883a 	add	r5,r9,r4
 8009734:	282697fa 	slli	r19,r5,31
 8009738:	5816d07a 	srli	r11,r11,1
 800973c:	2808d07a 	srli	r4,r5,1
 8009740:	1021883a 	mov	r16,r2
 8009744:	9ae6b03a 	or	r19,r19,r11
 8009748:	003ee806 	br	80092ec <__adddf3+0x2e8>
 800974c:	5b27c83a 	sub	r19,r11,r12
 8009750:	1a53c83a 	sub	r9,r3,r9
 8009754:	5cc9803a 	cmpltu	r4,r11,r19
 8009758:	4925c83a 	sub	r18,r9,r4
 800975c:	3823883a 	mov	r17,r7
 8009760:	003e5e06 	br	80090dc <__adddf3+0xd8>
 8009764:	28002d1e 	bne	r5,zero,800981c <__adddf3+0x818>
 8009768:	103fd41e 	bne	r2,zero,80096bc <__adddf3+0x6b8>
 800976c:	00bfffc4 	movi	r2,-1
 8009770:	0023883a 	mov	r17,zero
 8009774:	4013883a 	mov	r9,r8
 8009778:	003f1b06 	br	80093e8 <__adddf3+0x3e4>
 800977c:	00880034 	movhi	r2,8192
 8009780:	1808977a 	slli	r4,r3,29
 8009784:	10bfffc4 	addi	r2,r2,-1
 8009788:	3084703a 	and	r2,r6,r2
 800978c:	1104b03a 	or	r2,r2,r4
 8009790:	1812d0fa 	srli	r9,r3,3
 8009794:	003f1206 	br	80093e0 <__adddf3+0x3dc>
 8009798:	62e7c83a 	sub	r19,r12,r11
 800979c:	48cbc83a 	sub	r5,r9,r3
 80097a0:	64c9803a 	cmpltu	r4,r12,r19
 80097a4:	2909c83a 	sub	r4,r5,r4
 80097a8:	2080202c 	andhi	r2,r4,128
 80097ac:	10003626 	beq	r2,zero,8009888 <__adddf3+0x884>
 80097b0:	5b27c83a 	sub	r19,r11,r12
 80097b4:	1a53c83a 	sub	r9,r3,r9
 80097b8:	5cc9803a 	cmpltu	r4,r11,r19
 80097bc:	4909c83a 	sub	r4,r9,r4
 80097c0:	3823883a 	mov	r17,r7
 80097c4:	003e5e06 	br	8009140 <__adddf3+0x13c>
 80097c8:	4b12b03a 	or	r9,r9,r12
 80097cc:	4826c03a 	cmpne	r19,r9,zero
 80097d0:	003f5006 	br	8009514 <__adddf3+0x510>
 80097d4:	4806977a 	slli	r3,r9,29
 80097d8:	00880034 	movhi	r2,8192
 80097dc:	10bfffc4 	addi	r2,r2,-1
 80097e0:	2084703a 	and	r2,r4,r2
 80097e4:	10c4b03a 	or	r2,r2,r3
 80097e8:	4812d0fa 	srli	r9,r9,3
 80097ec:	003efc06 	br	80093e0 <__adddf3+0x3dc>
 80097f0:	217ff804 	addi	r5,r4,-32
 80097f4:	21800820 	cmpeqi	r6,r4,32
 80097f8:	494ad83a 	srl	r5,r9,r5
 80097fc:	3000041e 	bne	r6,zero,8009810 <__adddf3+0x80c>
 8009800:	01801004 	movi	r6,64
 8009804:	3109c83a 	sub	r4,r6,r4
 8009808:	4912983a 	sll	r9,r9,r4
 800980c:	6258b03a 	or	r12,r12,r9
 8009810:	6026c03a 	cmpne	r19,r12,zero
 8009814:	9966b03a 	or	r19,r19,r5
 8009818:	003f5406 	br	800956c <__adddf3+0x568>
 800981c:	480a977a 	slli	r5,r9,29
 8009820:	4812d0fa 	srli	r9,r9,3
 8009824:	10003626 	beq	r2,zero,8009900 <__adddf3+0x8fc>
 8009828:	02080034 	movhi	r8,8192
 800982c:	423fffc4 	addi	r8,r8,-1
 8009830:	2204703a 	and	r2,r4,r8
 8009834:	4900022c 	andhi	r4,r9,8
 8009838:	114ab03a 	or	r5,r2,r5
 800983c:	20000826 	beq	r4,zero,8009860 <__adddf3+0x85c>
 8009840:	1808d0fa 	srli	r4,r3,3
 8009844:	2080022c 	andhi	r2,r4,8
 8009848:	1000051e 	bne	r2,zero,8009860 <__adddf3+0x85c>
 800984c:	1806977a 	slli	r3,r3,29
 8009850:	3204703a 	and	r2,r6,r8
 8009854:	3823883a 	mov	r17,r7
 8009858:	10cab03a 	or	r5,r2,r3
 800985c:	2013883a 	mov	r9,r4
 8009860:	480890fa 	slli	r4,r9,3
 8009864:	2804d77a 	srli	r2,r5,29
 8009868:	00c80034 	movhi	r3,8192
 800986c:	18ffffc4 	addi	r3,r3,-1
 8009870:	1108b03a 	or	r4,r2,r4
 8009874:	200c977a 	slli	r6,r4,29
 8009878:	28c4703a 	and	r2,r5,r3
 800987c:	2012d0fa 	srli	r9,r4,3
 8009880:	3084b03a 	or	r2,r6,r2
 8009884:	003ed606 	br	80093e0 <__adddf3+0x3dc>
 8009888:	9904b03a 	or	r2,r19,r4
 800988c:	103e971e 	bne	r2,zero,80092ec <__adddf3+0x2e8>
 8009890:	0013883a 	mov	r9,zero
 8009894:	0023883a 	mov	r17,zero
 8009898:	003e9c06 	br	800930c <__adddf3+0x308>
 800989c:	5b27c83a 	sub	r19,r11,r12
 80098a0:	1a53c83a 	sub	r9,r3,r9
 80098a4:	5cc9803a 	cmpltu	r4,r11,r19
 80098a8:	4909c83a 	sub	r4,r9,r4
 80098ac:	3823883a 	mov	r17,r7
 80098b0:	04000044 	movi	r16,1
 80098b4:	003e0406 	br	80090c8 <__adddf3+0xc4>
 80098b8:	180a977a 	slli	r5,r3,29
 80098bc:	01080034 	movhi	r4,8192
 80098c0:	213fffc4 	addi	r4,r4,-1
 80098c4:	3104703a 	and	r2,r6,r4
 80098c8:	2884b03a 	or	r2,r5,r2
 80098cc:	1812d0fa 	srli	r9,r3,3
 80098d0:	003e8e06 	br	800930c <__adddf3+0x308>
 80098d4:	62e7883a 	add	r19,r12,r11
 80098d8:	48d3883a 	add	r9,r9,r3
 80098dc:	9b09803a 	cmpltu	r4,r19,r12
 80098e0:	4909883a 	add	r4,r9,r4
 80098e4:	2080202c 	andhi	r2,r4,128
 80098e8:	103e8026 	beq	r2,zero,80092ec <__adddf3+0x2e8>
 80098ec:	00bfe034 	movhi	r2,65408
 80098f0:	10bfffc4 	addi	r2,r2,-1
 80098f4:	2088703a 	and	r4,r4,r2
 80098f8:	04000044 	movi	r16,1
 80098fc:	003e7b06 	br	80092ec <__adddf3+0x2e8>
 8009900:	00880034 	movhi	r2,8192
 8009904:	10bfffc4 	addi	r2,r2,-1
 8009908:	2084703a 	and	r2,r4,r2
 800990c:	1144b03a 	or	r2,r2,r5
 8009910:	003eb306 	br	80093e0 <__adddf3+0x3dc>
 8009914:	180e977a 	slli	r7,r3,29
 8009918:	01480034 	movhi	r5,8192
 800991c:	297fffc4 	addi	r5,r5,-1
 8009920:	3144703a 	and	r2,r6,r5
 8009924:	3884b03a 	or	r2,r7,r2
 8009928:	1812d0fa 	srli	r9,r3,3
 800992c:	2021883a 	mov	r16,r4
 8009930:	003e7406 	br	8009304 <__adddf3+0x300>
 8009934:	00880034 	movhi	r2,8192
 8009938:	1808977a 	slli	r4,r3,29
 800993c:	10bfffc4 	addi	r2,r2,-1
 8009940:	3084703a 	and	r2,r6,r2
 8009944:	1104b03a 	or	r2,r2,r4
 8009948:	1812d0fa 	srli	r9,r3,3
 800994c:	3823883a 	mov	r17,r7
 8009950:	003ea306 	br	80093e0 <__adddf3+0x3dc>
 8009954:	217ff804 	addi	r5,r4,-32
 8009958:	21800820 	cmpeqi	r6,r4,32
 800995c:	494ad83a 	srl	r5,r9,r5
 8009960:	3000041e 	bne	r6,zero,8009974 <__adddf3+0x970>
 8009964:	01801004 	movi	r6,64
 8009968:	3109c83a 	sub	r4,r6,r4
 800996c:	4912983a 	sll	r9,r9,r4
 8009970:	6258b03a 	or	r12,r12,r9
 8009974:	6026c03a 	cmpne	r19,r12,zero
 8009978:	9966b03a 	or	r19,r19,r5
 800997c:	003ee506 	br	8009514 <__adddf3+0x510>
 8009980:	62e7883a 	add	r19,r12,r11
 8009984:	48d3883a 	add	r9,r9,r3
 8009988:	9ac9803a 	cmpltu	r4,r19,r11
 800998c:	4909883a 	add	r4,r9,r4
 8009990:	003e5306 	br	80092e0 <__adddf3+0x2dc>
 8009994:	0005883a 	mov	r2,zero
 8009998:	0401ffc4 	movi	r16,2047
 800999c:	0009883a 	mov	r4,zero
 80099a0:	003dfe06 	br	800919c <__adddf3+0x198>

080099a4 <__divdf3>:
 80099a4:	deffef04 	addi	sp,sp,-68
 80099a8:	2804d53a 	srli	r2,r5,20
 80099ac:	dd000b15 	stw	r20,44(sp)
 80099b0:	2828d7fa 	srli	r20,r5,31
 80099b4:	dc400815 	stw	r17,32(sp)
 80099b8:	04400434 	movhi	r17,16
 80099bc:	dd800d15 	stw	r22,52(sp)
 80099c0:	dcc00a15 	stw	r19,40(sp)
 80099c4:	8c7fffc4 	addi	r17,r17,-1
 80099c8:	dfc01015 	stw	ra,64(sp)
 80099cc:	df000f15 	stw	fp,60(sp)
 80099d0:	ddc00e15 	stw	r23,56(sp)
 80099d4:	dd400c15 	stw	r21,48(sp)
 80099d8:	dc800915 	stw	r18,36(sp)
 80099dc:	dc000715 	stw	r16,28(sp)
 80099e0:	1081ffcc 	andi	r2,r2,2047
 80099e4:	2027883a 	mov	r19,r4
 80099e8:	2c62703a 	and	r17,r5,r17
 80099ec:	a02d883a 	mov	r22,r20
 80099f0:	10008726 	beq	r2,zero,8009c10 <__divdf3+0x26c>
 80099f4:	10c1ffe0 	cmpeqi	r3,r2,2047
 80099f8:	18009d1e 	bne	r3,zero,8009c70 <__divdf3+0x2cc>
 80099fc:	880a90fa 	slli	r5,r17,3
 8009a00:	2008d77a 	srli	r4,r4,29
 8009a04:	982690fa 	slli	r19,r19,3
 8009a08:	14bf0044 	addi	r18,r2,-1023
 8009a0c:	2148b03a 	or	r4,r4,r5
 8009a10:	24002034 	orhi	r16,r4,128
 8009a14:	0023883a 	mov	r17,zero
 8009a18:	002f883a 	mov	r23,zero
 8009a1c:	3806d53a 	srli	r3,r7,20
 8009a20:	01000434 	movhi	r4,16
 8009a24:	213fffc4 	addi	r4,r4,-1
 8009a28:	18c1ffcc 	andi	r3,r3,2047
 8009a2c:	392a703a 	and	r21,r7,r4
 8009a30:	3838d7fa 	srli	fp,r7,31
 8009a34:	18006326 	beq	r3,zero,8009bc4 <__divdf3+0x220>
 8009a38:	1881ffe0 	cmpeqi	r2,r3,2047
 8009a3c:	1000201e 	bne	r2,zero,8009ac0 <__divdf3+0x11c>
 8009a40:	a80890fa 	slli	r4,r21,3
 8009a44:	300ed77a 	srli	r7,r6,29
 8009a48:	300a90fa 	slli	r5,r6,3
 8009a4c:	18ff0044 	addi	r3,r3,-1023
 8009a50:	3908b03a 	or	r4,r7,r4
 8009a54:	90e5c83a 	sub	r18,r18,r3
 8009a58:	25402034 	orhi	r21,r4,128
 8009a5c:	0007883a 	mov	r3,zero
 8009a60:	88800428 	cmpgeui	r2,r17,16
 8009a64:	a70cf03a 	xor	r6,r20,fp
 8009a68:	1000ab1e 	bne	r2,zero,8009d18 <__divdf3+0x374>
 8009a6c:	882290ba 	slli	r17,r17,2
 8009a70:	00820074 	movhi	r2,2049
 8009a74:	8885883a 	add	r2,r17,r2
 8009a78:	10a6a017 	ldw	r2,-25984(r2)
 8009a7c:	1000683a 	jmp	r2
 8009a80:	08009d18 	cmpnei	zero,at,628
 8009a84:	08009bb4 	orhi	zero,at,622
 8009a88:	08009b58 	cmpnei	zero,at,621
 8009a8c:	08009adc 	xori	zero,at,619
 8009a90:	08009b58 	cmpnei	zero,at,621
 8009a94:	08009cd4 	ori	zero,at,627
 8009a98:	08009b58 	cmpnei	zero,at,621
 8009a9c:	08009adc 	xori	zero,at,619
 8009aa0:	08009bb4 	orhi	zero,at,622
 8009aa4:	08009bb4 	orhi	zero,at,622
 8009aa8:	08009cd4 	ori	zero,at,627
 8009aac:	08009adc 	xori	zero,at,619
 8009ab0:	08009aec 	andhi	zero,at,619
 8009ab4:	08009aec 	andhi	zero,at,619
 8009ab8:	08009aec 	andhi	zero,at,619
 8009abc:	08009cec 	andhi	zero,at,627
 8009ac0:	a98ab03a 	or	r5,r21,r6
 8009ac4:	94be0044 	addi	r18,r18,-2047
 8009ac8:	28007e1e 	bne	r5,zero,8009cc4 <__divdf3+0x320>
 8009acc:	8c400094 	ori	r17,r17,2
 8009ad0:	002b883a 	mov	r21,zero
 8009ad4:	00c00084 	movi	r3,2
 8009ad8:	003fe106 	br	8009a60 <__divdf3+0xbc>
 8009adc:	e02d883a 	mov	r22,fp
 8009ae0:	a821883a 	mov	r16,r21
 8009ae4:	2827883a 	mov	r19,r5
 8009ae8:	182f883a 	mov	r23,r3
 8009aec:	b88000a0 	cmpeqi	r2,r23,2
 8009af0:	1001ab1e 	bne	r2,zero,800a1a0 <__divdf3+0x7fc>
 8009af4:	b88000e0 	cmpeqi	r2,r23,3
 8009af8:	1001f91e 	bne	r2,zero,800a2e0 <__divdf3+0x93c>
 8009afc:	b8800060 	cmpeqi	r2,r23,1
 8009b00:	1000141e 	bne	r2,zero,8009b54 <__divdf3+0x1b0>
 8009b04:	9500ffc4 	addi	r20,r18,1023
 8009b08:	b00d883a 	mov	r6,r22
 8009b0c:	0501870e 	bge	zero,r20,800a12c <__divdf3+0x788>
 8009b10:	988001cc 	andi	r2,r19,7
 8009b14:	1001c11e 	bne	r2,zero,800a21c <__divdf3+0x878>
 8009b18:	9826d0fa 	srli	r19,r19,3
 8009b1c:	8080402c 	andhi	r2,r16,256
 8009b20:	10000426 	beq	r2,zero,8009b34 <__divdf3+0x190>
 8009b24:	00bfc034 	movhi	r2,65280
 8009b28:	10bfffc4 	addi	r2,r2,-1
 8009b2c:	80a0703a 	and	r16,r16,r2
 8009b30:	95010004 	addi	r20,r18,1024
 8009b34:	a081ffc8 	cmpgei	r2,r20,2047
 8009b38:	10001e1e 	bne	r2,zero,8009bb4 <__divdf3+0x210>
 8009b3c:	8006977a 	slli	r3,r16,29
 8009b40:	8008927a 	slli	r4,r16,9
 8009b44:	a081ffcc 	andi	r2,r20,2047
 8009b48:	1ce6b03a 	or	r19,r3,r19
 8009b4c:	2008d33a 	srli	r4,r4,12
 8009b50:	00000406 	br	8009b64 <__divdf3+0x1c0>
 8009b54:	b00d883a 	mov	r6,r22
 8009b58:	0005883a 	mov	r2,zero
 8009b5c:	0009883a 	mov	r4,zero
 8009b60:	0027883a 	mov	r19,zero
 8009b64:	1004953a 	slli	r2,r2,20
 8009b68:	00c00434 	movhi	r3,16
 8009b6c:	300c97fa 	slli	r6,r6,31
 8009b70:	18ffffc4 	addi	r3,r3,-1
 8009b74:	20c6703a 	and	r3,r4,r3
 8009b78:	1886b03a 	or	r3,r3,r2
 8009b7c:	1986b03a 	or	r3,r3,r6
 8009b80:	9805883a 	mov	r2,r19
 8009b84:	dfc01017 	ldw	ra,64(sp)
 8009b88:	df000f17 	ldw	fp,60(sp)
 8009b8c:	ddc00e17 	ldw	r23,56(sp)
 8009b90:	dd800d17 	ldw	r22,52(sp)
 8009b94:	dd400c17 	ldw	r21,48(sp)
 8009b98:	dd000b17 	ldw	r20,44(sp)
 8009b9c:	dcc00a17 	ldw	r19,40(sp)
 8009ba0:	dc800917 	ldw	r18,36(sp)
 8009ba4:	dc400817 	ldw	r17,32(sp)
 8009ba8:	dc000717 	ldw	r16,28(sp)
 8009bac:	dec01104 	addi	sp,sp,68
 8009bb0:	f800283a 	ret
 8009bb4:	0081ffc4 	movi	r2,2047
 8009bb8:	0009883a 	mov	r4,zero
 8009bbc:	0027883a 	mov	r19,zero
 8009bc0:	003fe806 	br	8009b64 <__divdf3+0x1c0>
 8009bc4:	a98ab03a 	or	r5,r21,r6
 8009bc8:	28003a26 	beq	r5,zero,8009cb4 <__divdf3+0x310>
 8009bcc:	a8014926 	beq	r21,zero,800a0f4 <__divdf3+0x750>
 8009bd0:	a809883a 	mov	r4,r21
 8009bd4:	d9800015 	stw	r6,0(sp)
 8009bd8:	800b8ec0 	call	800b8ec <__clzsi2>
 8009bdc:	d9800017 	ldw	r6,0(sp)
 8009be0:	11fffd44 	addi	r7,r2,-11
 8009be4:	00c00744 	movi	r3,29
 8009be8:	117ffe04 	addi	r5,r2,-8
 8009bec:	19c7c83a 	sub	r3,r3,r7
 8009bf0:	a948983a 	sll	r4,r21,r5
 8009bf4:	30c6d83a 	srl	r3,r6,r3
 8009bf8:	314a983a 	sll	r5,r6,r5
 8009bfc:	192ab03a 	or	r21,r3,r4
 8009c00:	1485883a 	add	r2,r2,r18
 8009c04:	1480fcc4 	addi	r18,r2,1011
 8009c08:	0007883a 	mov	r3,zero
 8009c0c:	003f9406 	br	8009a60 <__divdf3+0xbc>
 8009c10:	2460b03a 	or	r16,r4,r17
 8009c14:	202b883a 	mov	r21,r4
 8009c18:	80002126 	beq	r16,zero,8009ca0 <__divdf3+0x2fc>
 8009c1c:	d9c00115 	stw	r7,4(sp)
 8009c20:	d9800015 	stw	r6,0(sp)
 8009c24:	88012826 	beq	r17,zero,800a0c8 <__divdf3+0x724>
 8009c28:	8809883a 	mov	r4,r17
 8009c2c:	800b8ec0 	call	800b8ec <__clzsi2>
 8009c30:	d9800017 	ldw	r6,0(sp)
 8009c34:	d9c00117 	ldw	r7,4(sp)
 8009c38:	1025883a 	mov	r18,r2
 8009c3c:	143ffd44 	addi	r16,r2,-11
 8009c40:	01000744 	movi	r4,29
 8009c44:	94fffe04 	addi	r19,r18,-8
 8009c48:	2409c83a 	sub	r4,r4,r16
 8009c4c:	8cca983a 	sll	r5,r17,r19
 8009c50:	a908d83a 	srl	r4,r21,r4
 8009c54:	ace6983a 	sll	r19,r21,r19
 8009c58:	2160b03a 	or	r16,r4,r5
 8009c5c:	00bf0344 	movi	r2,-1011
 8009c60:	14a5c83a 	sub	r18,r2,r18
 8009c64:	0023883a 	mov	r17,zero
 8009c68:	002f883a 	mov	r23,zero
 8009c6c:	003f6b06 	br	8009a1c <__divdf3+0x78>
 8009c70:	2460b03a 	or	r16,r4,r17
 8009c74:	8000051e 	bne	r16,zero,8009c8c <__divdf3+0x2e8>
 8009c78:	0027883a 	mov	r19,zero
 8009c7c:	04400204 	movi	r17,8
 8009c80:	0481ffc4 	movi	r18,2047
 8009c84:	05c00084 	movi	r23,2
 8009c88:	003f6406 	br	8009a1c <__divdf3+0x78>
 8009c8c:	8821883a 	mov	r16,r17
 8009c90:	0481ffc4 	movi	r18,2047
 8009c94:	04400304 	movi	r17,12
 8009c98:	05c000c4 	movi	r23,3
 8009c9c:	003f5f06 	br	8009a1c <__divdf3+0x78>
 8009ca0:	0027883a 	mov	r19,zero
 8009ca4:	04400104 	movi	r17,4
 8009ca8:	0025883a 	mov	r18,zero
 8009cac:	05c00044 	movi	r23,1
 8009cb0:	003f5a06 	br	8009a1c <__divdf3+0x78>
 8009cb4:	8c400054 	ori	r17,r17,1
 8009cb8:	002b883a 	mov	r21,zero
 8009cbc:	00c00044 	movi	r3,1
 8009cc0:	003f6706 	br	8009a60 <__divdf3+0xbc>
 8009cc4:	8c4000d4 	ori	r17,r17,3
 8009cc8:	300b883a 	mov	r5,r6
 8009ccc:	00c000c4 	movi	r3,3
 8009cd0:	003f6306 	br	8009a60 <__divdf3+0xbc>
 8009cd4:	01000434 	movhi	r4,16
 8009cd8:	000d883a 	mov	r6,zero
 8009cdc:	213fffc4 	addi	r4,r4,-1
 8009ce0:	04ffffc4 	movi	r19,-1
 8009ce4:	0081ffc4 	movi	r2,2047
 8009ce8:	003f9e06 	br	8009b64 <__divdf3+0x1c0>
 8009cec:	8080022c 	andhi	r2,r16,8
 8009cf0:	1000d426 	beq	r2,zero,800a044 <__divdf3+0x6a0>
 8009cf4:	a880022c 	andhi	r2,r21,8
 8009cf8:	1000d21e 	bne	r2,zero,800a044 <__divdf3+0x6a0>
 8009cfc:	00800434 	movhi	r2,16
 8009d00:	a9000234 	orhi	r4,r21,8
 8009d04:	10bfffc4 	addi	r2,r2,-1
 8009d08:	2088703a 	and	r4,r4,r2
 8009d0c:	e00d883a 	mov	r6,fp
 8009d10:	2827883a 	mov	r19,r5
 8009d14:	003ff306 	br	8009ce4 <__divdf3+0x340>
 8009d18:	ac00e536 	bltu	r21,r16,800a0b0 <__divdf3+0x70c>
 8009d1c:	ac00e326 	beq	r21,r16,800a0ac <__divdf3+0x708>
 8009d20:	94bfffc4 	addi	r18,r18,-1
 8009d24:	0029883a 	mov	r20,zero
 8009d28:	280ed63a 	srli	r7,r5,24
 8009d2c:	a82a923a 	slli	r21,r21,8
 8009d30:	2804923a 	slli	r2,r5,8
 8009d34:	8009883a 	mov	r4,r16
 8009d38:	3d62b03a 	or	r17,r7,r21
 8009d3c:	882ad43a 	srli	r21,r17,16
 8009d40:	d9800115 	stw	r6,4(sp)
 8009d44:	d8800015 	stw	r2,0(sp)
 8009d48:	a80b883a 	mov	r5,r21
 8009d4c:	8000a0c0 	call	8000a0c <__udivsi3>
 8009d50:	8f3fffcc 	andi	fp,r17,65535
 8009d54:	100b883a 	mov	r5,r2
 8009d58:	e009883a 	mov	r4,fp
 8009d5c:	102f883a 	mov	r23,r2
 8009d60:	8000acc0 	call	8000acc <__mulsi3>
 8009d64:	a80b883a 	mov	r5,r21
 8009d68:	8009883a 	mov	r4,r16
 8009d6c:	102d883a 	mov	r22,r2
 8009d70:	8000a700 	call	8000a70 <__umodsi3>
 8009d74:	1006943a 	slli	r3,r2,16
 8009d78:	9804d43a 	srli	r2,r19,16
 8009d7c:	d9800117 	ldw	r6,4(sp)
 8009d80:	10c4b03a 	or	r2,r2,r3
 8009d84:	1580042e 	bgeu	r2,r22,8009d98 <__divdf3+0x3f4>
 8009d88:	1445883a 	add	r2,r2,r17
 8009d8c:	b8ffffc4 	addi	r3,r23,-1
 8009d90:	1441102e 	bgeu	r2,r17,800a1d4 <__divdf3+0x830>
 8009d94:	182f883a 	mov	r23,r3
 8009d98:	15adc83a 	sub	r22,r2,r22
 8009d9c:	a80b883a 	mov	r5,r21
 8009da0:	b009883a 	mov	r4,r22
 8009da4:	d9800215 	stw	r6,8(sp)
 8009da8:	8000a0c0 	call	8000a0c <__udivsi3>
 8009dac:	100b883a 	mov	r5,r2
 8009db0:	e009883a 	mov	r4,fp
 8009db4:	1021883a 	mov	r16,r2
 8009db8:	8000acc0 	call	8000acc <__mulsi3>
 8009dbc:	a80b883a 	mov	r5,r21
 8009dc0:	b009883a 	mov	r4,r22
 8009dc4:	d8800115 	stw	r2,4(sp)
 8009dc8:	8000a700 	call	8000a70 <__umodsi3>
 8009dcc:	1004943a 	slli	r2,r2,16
 8009dd0:	da000117 	ldw	r8,4(sp)
 8009dd4:	9cffffcc 	andi	r19,r19,65535
 8009dd8:	9884b03a 	or	r2,r19,r2
 8009ddc:	d9800217 	ldw	r6,8(sp)
 8009de0:	1200042e 	bgeu	r2,r8,8009df4 <__divdf3+0x450>
 8009de4:	1445883a 	add	r2,r2,r17
 8009de8:	80ffffc4 	addi	r3,r16,-1
 8009dec:	1440f52e 	bgeu	r2,r17,800a1c4 <__divdf3+0x820>
 8009df0:	1821883a 	mov	r16,r3
 8009df4:	b808943a 	slli	r4,r23,16
 8009df8:	d8c00017 	ldw	r3,0(sp)
 8009dfc:	1211c83a 	sub	r8,r2,r8
 8009e00:	2420b03a 	or	r16,r4,r16
 8009e04:	182cd43a 	srli	r22,r3,16
 8009e08:	1dffffcc 	andi	r23,r3,65535
 8009e0c:	8026d43a 	srli	r19,r16,16
 8009e10:	80ffffcc 	andi	r3,r16,65535
 8009e14:	180b883a 	mov	r5,r3
 8009e18:	b809883a 	mov	r4,r23
 8009e1c:	d9800615 	stw	r6,24(sp)
 8009e20:	da000415 	stw	r8,16(sp)
 8009e24:	d8c00515 	stw	r3,20(sp)
 8009e28:	8000acc0 	call	8000acc <__mulsi3>
 8009e2c:	b80b883a 	mov	r5,r23
 8009e30:	9809883a 	mov	r4,r19
 8009e34:	d8800315 	stw	r2,12(sp)
 8009e38:	8000acc0 	call	8000acc <__mulsi3>
 8009e3c:	b00b883a 	mov	r5,r22
 8009e40:	9809883a 	mov	r4,r19
 8009e44:	d8800215 	stw	r2,8(sp)
 8009e48:	8000acc0 	call	8000acc <__mulsi3>
 8009e4c:	d8c00517 	ldw	r3,20(sp)
 8009e50:	b009883a 	mov	r4,r22
 8009e54:	d8800115 	stw	r2,4(sp)
 8009e58:	180b883a 	mov	r5,r3
 8009e5c:	8000acc0 	call	8000acc <__mulsi3>
 8009e60:	da400317 	ldw	r9,12(sp)
 8009e64:	dac00217 	ldw	r11,8(sp)
 8009e68:	da800117 	ldw	r10,4(sp)
 8009e6c:	4806d43a 	srli	r3,r9,16
 8009e70:	12c5883a 	add	r2,r2,r11
 8009e74:	da000417 	ldw	r8,16(sp)
 8009e78:	1887883a 	add	r3,r3,r2
 8009e7c:	d9800617 	ldw	r6,24(sp)
 8009e80:	1ac0022e 	bgeu	r3,r11,8009e8c <__divdf3+0x4e8>
 8009e84:	00800074 	movhi	r2,1
 8009e88:	5095883a 	add	r10,r10,r2
 8009e8c:	1826d43a 	srli	r19,r3,16
 8009e90:	1806943a 	slli	r3,r3,16
 8009e94:	4a7fffcc 	andi	r9,r9,65535
 8009e98:	9aa7883a 	add	r19,r19,r10
 8009e9c:	1a47883a 	add	r3,r3,r9
 8009ea0:	44c07736 	bltu	r8,r19,800a080 <__divdf3+0x6dc>
 8009ea4:	44c07526 	beq	r8,r19,800a07c <__divdf3+0x6d8>
 8009ea8:	a0c7c83a 	sub	r3,r20,r3
 8009eac:	44c5c83a 	sub	r2,r8,r19
 8009eb0:	a0e7803a 	cmpltu	r19,r20,r3
 8009eb4:	d8c00115 	stw	r3,4(sp)
 8009eb8:	14e7c83a 	sub	r19,r2,r19
 8009ebc:	9500ffc4 	addi	r20,r18,1023
 8009ec0:	8cc0cd26 	beq	r17,r19,800a1f8 <__divdf3+0x854>
 8009ec4:	a80b883a 	mov	r5,r21
 8009ec8:	9809883a 	mov	r4,r19
 8009ecc:	d9800415 	stw	r6,16(sp)
 8009ed0:	8000a0c0 	call	8000a0c <__udivsi3>
 8009ed4:	100b883a 	mov	r5,r2
 8009ed8:	e009883a 	mov	r4,fp
 8009edc:	d8800315 	stw	r2,12(sp)
 8009ee0:	8000acc0 	call	8000acc <__mulsi3>
 8009ee4:	9809883a 	mov	r4,r19
 8009ee8:	a80b883a 	mov	r5,r21
 8009eec:	d8800215 	stw	r2,8(sp)
 8009ef0:	8000a700 	call	8000a70 <__umodsi3>
 8009ef4:	d8c00117 	ldw	r3,4(sp)
 8009ef8:	1008943a 	slli	r4,r2,16
 8009efc:	da400217 	ldw	r9,8(sp)
 8009f00:	1804d43a 	srli	r2,r3,16
 8009f04:	da000317 	ldw	r8,12(sp)
 8009f08:	d9800417 	ldw	r6,16(sp)
 8009f0c:	1104b03a 	or	r2,r2,r4
 8009f10:	1240062e 	bgeu	r2,r9,8009f2c <__divdf3+0x588>
 8009f14:	1445883a 	add	r2,r2,r17
 8009f18:	413fffc4 	addi	r4,r8,-1
 8009f1c:	1440bd36 	bltu	r2,r17,800a214 <__divdf3+0x870>
 8009f20:	1240bc2e 	bgeu	r2,r9,800a214 <__divdf3+0x870>
 8009f24:	423fff84 	addi	r8,r8,-2
 8009f28:	1445883a 	add	r2,r2,r17
 8009f2c:	1267c83a 	sub	r19,r2,r9
 8009f30:	a80b883a 	mov	r5,r21
 8009f34:	9809883a 	mov	r4,r19
 8009f38:	d8c00415 	stw	r3,16(sp)
 8009f3c:	d9800315 	stw	r6,12(sp)
 8009f40:	da000215 	stw	r8,8(sp)
 8009f44:	8000a0c0 	call	8000a0c <__udivsi3>
 8009f48:	e009883a 	mov	r4,fp
 8009f4c:	100b883a 	mov	r5,r2
 8009f50:	d8800115 	stw	r2,4(sp)
 8009f54:	8000acc0 	call	8000acc <__mulsi3>
 8009f58:	a80b883a 	mov	r5,r21
 8009f5c:	9809883a 	mov	r4,r19
 8009f60:	1039883a 	mov	fp,r2
 8009f64:	8000a700 	call	8000a70 <__umodsi3>
 8009f68:	d8c00417 	ldw	r3,16(sp)
 8009f6c:	1004943a 	slli	r2,r2,16
 8009f70:	da400117 	ldw	r9,4(sp)
 8009f74:	18ffffcc 	andi	r3,r3,65535
 8009f78:	1886b03a 	or	r3,r3,r2
 8009f7c:	da000217 	ldw	r8,8(sp)
 8009f80:	d9800317 	ldw	r6,12(sp)
 8009f84:	1f00062e 	bgeu	r3,fp,8009fa0 <__divdf3+0x5fc>
 8009f88:	1c47883a 	add	r3,r3,r17
 8009f8c:	48bfffc4 	addi	r2,r9,-1
 8009f90:	1c409e36 	bltu	r3,r17,800a20c <__divdf3+0x868>
 8009f94:	1f009d2e 	bgeu	r3,fp,800a20c <__divdf3+0x868>
 8009f98:	4a7fff84 	addi	r9,r9,-2
 8009f9c:	1c47883a 	add	r3,r3,r17
 8009fa0:	4010943a 	slli	r8,r8,16
 8009fa4:	1f2bc83a 	sub	r21,r3,fp
 8009fa8:	b80b883a 	mov	r5,r23
 8009fac:	4266b03a 	or	r19,r8,r9
 8009fb0:	98ffffcc 	andi	r3,r19,65535
 8009fb4:	9838d43a 	srli	fp,r19,16
 8009fb8:	1809883a 	mov	r4,r3
 8009fbc:	d9800415 	stw	r6,16(sp)
 8009fc0:	d8c00315 	stw	r3,12(sp)
 8009fc4:	8000acc0 	call	8000acc <__mulsi3>
 8009fc8:	b80b883a 	mov	r5,r23
 8009fcc:	e009883a 	mov	r4,fp
 8009fd0:	d8800215 	stw	r2,8(sp)
 8009fd4:	8000acc0 	call	8000acc <__mulsi3>
 8009fd8:	e00b883a 	mov	r5,fp
 8009fdc:	b009883a 	mov	r4,r22
 8009fe0:	d8800115 	stw	r2,4(sp)
 8009fe4:	8000acc0 	call	8000acc <__mulsi3>
 8009fe8:	d8c00317 	ldw	r3,12(sp)
 8009fec:	b009883a 	mov	r4,r22
 8009ff0:	102f883a 	mov	r23,r2
 8009ff4:	180b883a 	mov	r5,r3
 8009ff8:	8000acc0 	call	8000acc <__mulsi3>
 8009ffc:	da000217 	ldw	r8,8(sp)
 800a000:	da400117 	ldw	r9,4(sp)
 800a004:	d9800417 	ldw	r6,16(sp)
 800a008:	4006d43a 	srli	r3,r8,16
 800a00c:	1245883a 	add	r2,r2,r9
 800a010:	1885883a 	add	r2,r3,r2
 800a014:	1240022e 	bgeu	r2,r9,800a020 <__divdf3+0x67c>
 800a018:	00c00074 	movhi	r3,1
 800a01c:	b8ef883a 	add	r23,r23,r3
 800a020:	1008d43a 	srli	r4,r2,16
 800a024:	1004943a 	slli	r2,r2,16
 800a028:	423fffcc 	andi	r8,r8,65535
 800a02c:	25c9883a 	add	r4,r4,r23
 800a030:	1205883a 	add	r2,r2,r8
 800a034:	a9000a36 	bltu	r21,r4,800a060 <__divdf3+0x6bc>
 800a038:	a9000826 	beq	r21,r4,800a05c <__divdf3+0x6b8>
 800a03c:	9cc00054 	ori	r19,r19,1
 800a040:	003eb206 	br	8009b0c <__divdf3+0x168>
 800a044:	00800434 	movhi	r2,16
 800a048:	81000234 	orhi	r4,r16,8
 800a04c:	10bfffc4 	addi	r2,r2,-1
 800a050:	2088703a 	and	r4,r4,r2
 800a054:	a00d883a 	mov	r6,r20
 800a058:	003f2206 	br	8009ce4 <__divdf3+0x340>
 800a05c:	103eab26 	beq	r2,zero,8009b0c <__divdf3+0x168>
 800a060:	8d47883a 	add	r3,r17,r21
 800a064:	997fffc4 	addi	r5,r19,-1
 800a068:	1c405e36 	bltu	r3,r17,800a1e4 <__divdf3+0x840>
 800a06c:	19007b36 	bltu	r3,r4,800a25c <__divdf3+0x8b8>
 800a070:	1900a126 	beq	r3,r4,800a2f8 <__divdf3+0x954>
 800a074:	2827883a 	mov	r19,r5
 800a078:	003ff006 	br	800a03c <__divdf3+0x698>
 800a07c:	a0ff8a2e 	bgeu	r20,r3,8009ea8 <__divdf3+0x504>
 800a080:	d8800017 	ldw	r2,0(sp)
 800a084:	a0a9883a 	add	r20,r20,r2
 800a088:	a085803a 	cmpltu	r2,r20,r2
 800a08c:	1445883a 	add	r2,r2,r17
 800a090:	4091883a 	add	r8,r8,r2
 800a094:	80bfffc4 	addi	r2,r16,-1
 800a098:	8a00462e 	bgeu	r17,r8,800a1b4 <__divdf3+0x810>
 800a09c:	44c06836 	bltu	r8,r19,800a240 <__divdf3+0x89c>
 800a0a0:	9a006626 	beq	r19,r8,800a23c <__divdf3+0x898>
 800a0a4:	1021883a 	mov	r16,r2
 800a0a8:	003f7f06 	br	8009ea8 <__divdf3+0x504>
 800a0ac:	997f1c36 	bltu	r19,r5,8009d20 <__divdf3+0x37c>
 800a0b0:	800697fa 	slli	r3,r16,31
 800a0b4:	9804d07a 	srli	r2,r19,1
 800a0b8:	982897fa 	slli	r20,r19,31
 800a0bc:	8020d07a 	srli	r16,r16,1
 800a0c0:	18a6b03a 	or	r19,r3,r2
 800a0c4:	003f1806 	br	8009d28 <__divdf3+0x384>
 800a0c8:	800b8ec0 	call	800b8ec <__clzsi2>
 800a0cc:	14000544 	addi	r16,r2,21
 800a0d0:	81000748 	cmpgei	r4,r16,29
 800a0d4:	14800804 	addi	r18,r2,32
 800a0d8:	d9800017 	ldw	r6,0(sp)
 800a0dc:	d9c00117 	ldw	r7,4(sp)
 800a0e0:	203ed726 	beq	r4,zero,8009c40 <__divdf3+0x29c>
 800a0e4:	113ffe04 	addi	r4,r2,-8
 800a0e8:	9920983a 	sll	r16,r19,r4
 800a0ec:	0027883a 	mov	r19,zero
 800a0f0:	003eda06 	br	8009c5c <__divdf3+0x2b8>
 800a0f4:	3009883a 	mov	r4,r6
 800a0f8:	d9800015 	stw	r6,0(sp)
 800a0fc:	800b8ec0 	call	800b8ec <__clzsi2>
 800a100:	11c00544 	addi	r7,r2,21
 800a104:	38c00748 	cmpgei	r3,r7,29
 800a108:	1009883a 	mov	r4,r2
 800a10c:	d9800017 	ldw	r6,0(sp)
 800a110:	10800804 	addi	r2,r2,32
 800a114:	183eb326 	beq	r3,zero,8009be4 <__divdf3+0x240>
 800a118:	213ffe04 	addi	r4,r4,-8
 800a11c:	312a983a 	sll	r21,r6,r4
 800a120:	000b883a 	mov	r5,zero
 800a124:	003eb606 	br	8009c00 <__divdf3+0x25c>
 800a128:	04ffffc4 	movi	r19,-1
 800a12c:	01000044 	movi	r4,1
 800a130:	2509c83a 	sub	r4,r4,r20
 800a134:	20800e48 	cmpgei	r2,r4,57
 800a138:	103e871e 	bne	r2,zero,8009b58 <__divdf3+0x1b4>
 800a13c:	20800808 	cmpgei	r2,r4,32
 800a140:	10004e1e 	bne	r2,zero,800a27c <__divdf3+0x8d8>
 800a144:	90810784 	addi	r2,r18,1054
 800a148:	8086983a 	sll	r3,r16,r2
 800a14c:	990ad83a 	srl	r5,r19,r4
 800a150:	9884983a 	sll	r2,r19,r2
 800a154:	8108d83a 	srl	r4,r16,r4
 800a158:	1966b03a 	or	r19,r3,r5
 800a15c:	1004c03a 	cmpne	r2,r2,zero
 800a160:	98a6b03a 	or	r19,r19,r2
 800a164:	988001cc 	andi	r2,r19,7
 800a168:	10000726 	beq	r2,zero,800a188 <__divdf3+0x7e4>
 800a16c:	988003cc 	andi	r2,r19,15
 800a170:	10800120 	cmpeqi	r2,r2,4
 800a174:	1000041e 	bne	r2,zero,800a188 <__divdf3+0x7e4>
 800a178:	98800104 	addi	r2,r19,4
 800a17c:	14e7803a 	cmpltu	r19,r2,r19
 800a180:	24c9883a 	add	r4,r4,r19
 800a184:	1027883a 	mov	r19,r2
 800a188:	2080202c 	andhi	r2,r4,128
 800a18c:	10005026 	beq	r2,zero,800a2d0 <__divdf3+0x92c>
 800a190:	00800044 	movi	r2,1
 800a194:	0009883a 	mov	r4,zero
 800a198:	0027883a 	mov	r19,zero
 800a19c:	003e7106 	br	8009b64 <__divdf3+0x1c0>
 800a1a0:	b00d883a 	mov	r6,r22
 800a1a4:	0081ffc4 	movi	r2,2047
 800a1a8:	0009883a 	mov	r4,zero
 800a1ac:	0027883a 	mov	r19,zero
 800a1b0:	003e6c06 	br	8009b64 <__divdf3+0x1c0>
 800a1b4:	8a3fbb1e 	bne	r17,r8,800a0a4 <__divdf3+0x700>
 800a1b8:	d9000017 	ldw	r4,0(sp)
 800a1bc:	a13fb936 	bltu	r20,r4,800a0a4 <__divdf3+0x700>
 800a1c0:	003fb606 	br	800a09c <__divdf3+0x6f8>
 800a1c4:	123f0a2e 	bgeu	r2,r8,8009df0 <__divdf3+0x44c>
 800a1c8:	843fff84 	addi	r16,r16,-2
 800a1cc:	1445883a 	add	r2,r2,r17
 800a1d0:	003f0806 	br	8009df4 <__divdf3+0x450>
 800a1d4:	15beef2e 	bgeu	r2,r22,8009d94 <__divdf3+0x3f0>
 800a1d8:	bdffff84 	addi	r23,r23,-2
 800a1dc:	1445883a 	add	r2,r2,r17
 800a1e0:	003eed06 	br	8009d98 <__divdf3+0x3f4>
 800a1e4:	2827883a 	mov	r19,r5
 800a1e8:	193f941e 	bne	r3,r4,800a03c <__divdf3+0x698>
 800a1ec:	d8c00017 	ldw	r3,0(sp)
 800a1f0:	18bf921e 	bne	r3,r2,800a03c <__divdf3+0x698>
 800a1f4:	003e4506 	br	8009b0c <__divdf3+0x168>
 800a1f8:	053fcb0e 	bge	zero,r20,800a128 <__divdf3+0x784>
 800a1fc:	0027883a 	mov	r19,zero
 800a200:	00c00044 	movi	r3,1
 800a204:	80e1883a 	add	r16,r16,r3
 800a208:	003e4406 	br	8009b1c <__divdf3+0x178>
 800a20c:	1013883a 	mov	r9,r2
 800a210:	003f6306 	br	8009fa0 <__divdf3+0x5fc>
 800a214:	2011883a 	mov	r8,r4
 800a218:	003f4406 	br	8009f2c <__divdf3+0x588>
 800a21c:	988003cc 	andi	r2,r19,15
 800a220:	10800118 	cmpnei	r2,r2,4
 800a224:	103e3c26 	beq	r2,zero,8009b18 <__divdf3+0x174>
 800a228:	98800104 	addi	r2,r19,4
 800a22c:	00fffec4 	movi	r3,-5
 800a230:	1cc7803a 	cmpltu	r3,r3,r19
 800a234:	1026d0fa 	srli	r19,r2,3
 800a238:	003ff206 	br	800a204 <__divdf3+0x860>
 800a23c:	a0ff992e 	bgeu	r20,r3,800a0a4 <__divdf3+0x700>
 800a240:	d8800017 	ldw	r2,0(sp)
 800a244:	843fff84 	addi	r16,r16,-2
 800a248:	a0a9883a 	add	r20,r20,r2
 800a24c:	a085803a 	cmpltu	r2,r20,r2
 800a250:	1445883a 	add	r2,r2,r17
 800a254:	4091883a 	add	r8,r8,r2
 800a258:	003f1306 	br	8009ea8 <__divdf3+0x504>
 800a25c:	d9c00017 	ldw	r7,0(sp)
 800a260:	9cffff84 	addi	r19,r19,-2
 800a264:	39cb883a 	add	r5,r7,r7
 800a268:	29cf803a 	cmpltu	r7,r5,r7
 800a26c:	3c4f883a 	add	r7,r7,r17
 800a270:	19c7883a 	add	r3,r3,r7
 800a274:	d9400015 	stw	r5,0(sp)
 800a278:	003fdb06 	br	800a1e8 <__divdf3+0x844>
 800a27c:	00bff844 	movi	r2,-31
 800a280:	1529c83a 	sub	r20,r2,r20
 800a284:	21000820 	cmpeqi	r4,r4,32
 800a288:	8528d83a 	srl	r20,r16,r20
 800a28c:	2000031e 	bne	r4,zero,800a29c <__divdf3+0x8f8>
 800a290:	90810f84 	addi	r2,r18,1086
 800a294:	8088983a 	sll	r4,r16,r2
 800a298:	9926b03a 	or	r19,r19,r4
 800a29c:	9826c03a 	cmpne	r19,r19,zero
 800a2a0:	9d26b03a 	or	r19,r19,r20
 800a2a4:	9c0001cc 	andi	r16,r19,7
 800a2a8:	8000051e 	bne	r16,zero,800a2c0 <__divdf3+0x91c>
 800a2ac:	0009883a 	mov	r4,zero
 800a2b0:	9826d0fa 	srli	r19,r19,3
 800a2b4:	0005883a 	mov	r2,zero
 800a2b8:	9c26b03a 	or	r19,r19,r16
 800a2bc:	003e2906 	br	8009b64 <__divdf3+0x1c0>
 800a2c0:	988003cc 	andi	r2,r19,15
 800a2c4:	10800118 	cmpnei	r2,r2,4
 800a2c8:	0009883a 	mov	r4,zero
 800a2cc:	103faa1e 	bne	r2,zero,800a178 <__divdf3+0x7d4>
 800a2d0:	2004927a 	slli	r2,r4,9
 800a2d4:	2020977a 	slli	r16,r4,29
 800a2d8:	1008d33a 	srli	r4,r2,12
 800a2dc:	003ff406 	br	800a2b0 <__divdf3+0x90c>
 800a2e0:	00800434 	movhi	r2,16
 800a2e4:	81000234 	orhi	r4,r16,8
 800a2e8:	10bfffc4 	addi	r2,r2,-1
 800a2ec:	2088703a 	and	r4,r4,r2
 800a2f0:	b00d883a 	mov	r6,r22
 800a2f4:	003e7b06 	br	8009ce4 <__divdf3+0x340>
 800a2f8:	d9c00017 	ldw	r7,0(sp)
 800a2fc:	38bfd736 	bltu	r7,r2,800a25c <__divdf3+0x8b8>
 800a300:	2827883a 	mov	r19,r5
 800a304:	003fb906 	br	800a1ec <__divdf3+0x848>

0800a308 <__eqdf2>:
 800a308:	2810d53a 	srli	r8,r5,20
 800a30c:	3806d53a 	srli	r3,r7,20
 800a310:	00800434 	movhi	r2,16
 800a314:	4201ffcc 	andi	r8,r8,2047
 800a318:	10bfffc4 	addi	r2,r2,-1
 800a31c:	4281ffd8 	cmpnei	r10,r8,2047
 800a320:	2892703a 	and	r9,r5,r2
 800a324:	18c1ffcc 	andi	r3,r3,2047
 800a328:	3884703a 	and	r2,r7,r2
 800a32c:	280ad7fa 	srli	r5,r5,31
 800a330:	380ed7fa 	srli	r7,r7,31
 800a334:	50000626 	beq	r10,zero,800a350 <__eqdf2+0x48>
 800a338:	1a81ffe0 	cmpeqi	r10,r3,2047
 800a33c:	5000021e 	bne	r10,zero,800a348 <__eqdf2+0x40>
 800a340:	40c0011e 	bne	r8,r3,800a348 <__eqdf2+0x40>
 800a344:	48800826 	beq	r9,r2,800a368 <__eqdf2+0x60>
 800a348:	00800044 	movi	r2,1
 800a34c:	f800283a 	ret
 800a350:	4914b03a 	or	r10,r9,r4
 800a354:	503ffc1e 	bne	r10,zero,800a348 <__eqdf2+0x40>
 800a358:	18c1ffd8 	cmpnei	r3,r3,2047
 800a35c:	183ffa1e 	bne	r3,zero,800a348 <__eqdf2+0x40>
 800a360:	1184b03a 	or	r2,r2,r6
 800a364:	103ff81e 	bne	r2,zero,800a348 <__eqdf2+0x40>
 800a368:	21bff71e 	bne	r4,r6,800a348 <__eqdf2+0x40>
 800a36c:	29c00426 	beq	r5,r7,800a380 <__eqdf2+0x78>
 800a370:	403ff51e 	bne	r8,zero,800a348 <__eqdf2+0x40>
 800a374:	4904b03a 	or	r2,r9,r4
 800a378:	1004c03a 	cmpne	r2,r2,zero
 800a37c:	f800283a 	ret
 800a380:	0005883a 	mov	r2,zero
 800a384:	f800283a 	ret

0800a388 <__gedf2>:
 800a388:	2810d53a 	srli	r8,r5,20
 800a38c:	3812d53a 	srli	r9,r7,20
 800a390:	00800434 	movhi	r2,16
 800a394:	4201ffcc 	andi	r8,r8,2047
 800a398:	10bfffc4 	addi	r2,r2,-1
 800a39c:	4281ffd8 	cmpnei	r10,r8,2047
 800a3a0:	2896703a 	and	r11,r5,r2
 800a3a4:	3886703a 	and	r3,r7,r2
 800a3a8:	280ad7fa 	srli	r5,r5,31
 800a3ac:	4a41ffcc 	andi	r9,r9,2047
 800a3b0:	3804d7fa 	srli	r2,r7,31
 800a3b4:	50000b26 	beq	r10,zero,800a3e4 <__gedf2+0x5c>
 800a3b8:	49c1ffd8 	cmpnei	r7,r9,2047
 800a3bc:	38000d26 	beq	r7,zero,800a3f4 <__gedf2+0x6c>
 800a3c0:	4000191e 	bne	r8,zero,800a428 <__gedf2+0xa0>
 800a3c4:	5914b03a 	or	r10,r11,r4
 800a3c8:	500f003a 	cmpeq	r7,r10,zero
 800a3cc:	4800131e 	bne	r9,zero,800a41c <__gedf2+0x94>
 800a3d0:	1998b03a 	or	r12,r3,r6
 800a3d4:	6000111e 	bne	r12,zero,800a41c <__gedf2+0x94>
 800a3d8:	50000a1e 	bne	r10,zero,800a404 <__gedf2+0x7c>
 800a3dc:	0005883a 	mov	r2,zero
 800a3e0:	f800283a 	ret
 800a3e4:	590eb03a 	or	r7,r11,r4
 800a3e8:	38001e1e 	bne	r7,zero,800a464 <__gedf2+0xdc>
 800a3ec:	49c1ffe0 	cmpeqi	r7,r9,2047
 800a3f0:	38000d26 	beq	r7,zero,800a428 <__gedf2+0xa0>
 800a3f4:	198eb03a 	or	r7,r3,r6
 800a3f8:	38001a1e 	bne	r7,zero,800a464 <__gedf2+0xdc>
 800a3fc:	40000526 	beq	r8,zero,800a414 <__gedf2+0x8c>
 800a400:	28800d26 	beq	r5,r2,800a438 <__gedf2+0xb0>
 800a404:	00800044 	movi	r2,1
 800a408:	28000626 	beq	r5,zero,800a424 <__gedf2+0x9c>
 800a40c:	00bfffc4 	movi	r2,-1
 800a410:	f800283a 	ret
 800a414:	590eb03a 	or	r7,r11,r4
 800a418:	380f003a 	cmpeq	r7,r7,zero
 800a41c:	383ff826 	beq	r7,zero,800a400 <__gedf2+0x78>
 800a420:	103ffa26 	beq	r2,zero,800a40c <__gedf2+0x84>
 800a424:	f800283a 	ret
 800a428:	483ff51e 	bne	r9,zero,800a400 <__gedf2+0x78>
 800a42c:	198eb03a 	or	r7,r3,r6
 800a430:	383ff31e 	bne	r7,zero,800a400 <__gedf2+0x78>
 800a434:	003ff306 	br	800a404 <__gedf2+0x7c>
 800a438:	4a000716 	blt	r9,r8,800a458 <__gedf2+0xd0>
 800a43c:	427ff816 	blt	r8,r9,800a420 <__gedf2+0x98>
 800a440:	1afff036 	bltu	r3,r11,800a404 <__gedf2+0x7c>
 800a444:	58c00926 	beq	r11,r3,800a46c <__gedf2+0xe4>
 800a448:	58ffe42e 	bgeu	r11,r3,800a3dc <__gedf2+0x54>
 800a44c:	283fef26 	beq	r5,zero,800a40c <__gedf2+0x84>
 800a450:	2805883a 	mov	r2,r5
 800a454:	f800283a 	ret
 800a458:	103fec1e 	bne	r2,zero,800a40c <__gedf2+0x84>
 800a45c:	00800044 	movi	r2,1
 800a460:	f800283a 	ret
 800a464:	00bfff84 	movi	r2,-2
 800a468:	f800283a 	ret
 800a46c:	313fe536 	bltu	r6,r4,800a404 <__gedf2+0x7c>
 800a470:	21bfda2e 	bgeu	r4,r6,800a3dc <__gedf2+0x54>
 800a474:	003ff506 	br	800a44c <__gedf2+0xc4>

0800a478 <__ledf2>:
 800a478:	2810d53a 	srli	r8,r5,20
 800a47c:	3812d53a 	srli	r9,r7,20
 800a480:	00800434 	movhi	r2,16
 800a484:	4201ffcc 	andi	r8,r8,2047
 800a488:	10bfffc4 	addi	r2,r2,-1
 800a48c:	4281ffd8 	cmpnei	r10,r8,2047
 800a490:	2896703a 	and	r11,r5,r2
 800a494:	3886703a 	and	r3,r7,r2
 800a498:	280ad7fa 	srli	r5,r5,31
 800a49c:	4a41ffcc 	andi	r9,r9,2047
 800a4a0:	3804d7fa 	srli	r2,r7,31
 800a4a4:	50000b26 	beq	r10,zero,800a4d4 <__ledf2+0x5c>
 800a4a8:	49c1ffd8 	cmpnei	r7,r9,2047
 800a4ac:	38000d26 	beq	r7,zero,800a4e4 <__ledf2+0x6c>
 800a4b0:	40001b1e 	bne	r8,zero,800a520 <__ledf2+0xa8>
 800a4b4:	5914b03a 	or	r10,r11,r4
 800a4b8:	500f003a 	cmpeq	r7,r10,zero
 800a4bc:	48000e1e 	bne	r9,zero,800a4f8 <__ledf2+0x80>
 800a4c0:	1998b03a 	or	r12,r3,r6
 800a4c4:	60000c1e 	bne	r12,zero,800a4f8 <__ledf2+0x80>
 800a4c8:	50000d1e 	bne	r10,zero,800a500 <__ledf2+0x88>
 800a4cc:	0005883a 	mov	r2,zero
 800a4d0:	f800283a 	ret
 800a4d4:	590eb03a 	or	r7,r11,r4
 800a4d8:	38000d1e 	bne	r7,zero,800a510 <__ledf2+0x98>
 800a4dc:	49c1ffe0 	cmpeqi	r7,r9,2047
 800a4e0:	38000f26 	beq	r7,zero,800a520 <__ledf2+0xa8>
 800a4e4:	198eb03a 	or	r7,r3,r6
 800a4e8:	3800091e 	bne	r7,zero,800a510 <__ledf2+0x98>
 800a4ec:	4000031e 	bne	r8,zero,800a4fc <__ledf2+0x84>
 800a4f0:	590eb03a 	or	r7,r11,r4
 800a4f4:	380f003a 	cmpeq	r7,r7,zero
 800a4f8:	3800071e 	bne	r7,zero,800a518 <__ledf2+0xa0>
 800a4fc:	28800c26 	beq	r5,r2,800a530 <__ledf2+0xb8>
 800a500:	00800044 	movi	r2,1
 800a504:	28000526 	beq	r5,zero,800a51c <__ledf2+0xa4>
 800a508:	00bfffc4 	movi	r2,-1
 800a50c:	f800283a 	ret
 800a510:	00800084 	movi	r2,2
 800a514:	f800283a 	ret
 800a518:	103ffb26 	beq	r2,zero,800a508 <__ledf2+0x90>
 800a51c:	f800283a 	ret
 800a520:	483ff61e 	bne	r9,zero,800a4fc <__ledf2+0x84>
 800a524:	198eb03a 	or	r7,r3,r6
 800a528:	383ff41e 	bne	r7,zero,800a4fc <__ledf2+0x84>
 800a52c:	003ff406 	br	800a500 <__ledf2+0x88>
 800a530:	4a00030e 	bge	r9,r8,800a540 <__ledf2+0xc8>
 800a534:	103ff41e 	bne	r2,zero,800a508 <__ledf2+0x90>
 800a538:	00800044 	movi	r2,1
 800a53c:	f800283a 	ret
 800a540:	427ff516 	blt	r8,r9,800a518 <__ledf2+0xa0>
 800a544:	1affee36 	bltu	r3,r11,800a500 <__ledf2+0x88>
 800a548:	58c00426 	beq	r11,r3,800a55c <__ledf2+0xe4>
 800a54c:	58ffdf2e 	bgeu	r11,r3,800a4cc <__ledf2+0x54>
 800a550:	283fed26 	beq	r5,zero,800a508 <__ledf2+0x90>
 800a554:	2805883a 	mov	r2,r5
 800a558:	f800283a 	ret
 800a55c:	313fe836 	bltu	r6,r4,800a500 <__ledf2+0x88>
 800a560:	21bfda2e 	bgeu	r4,r6,800a4cc <__ledf2+0x54>
 800a564:	003ffa06 	br	800a550 <__ledf2+0xd8>

0800a568 <__muldf3>:
 800a568:	2810d53a 	srli	r8,r5,20
 800a56c:	deffef04 	addi	sp,sp,-68
 800a570:	dc000715 	stw	r16,28(sp)
 800a574:	04000434 	movhi	r16,16
 800a578:	dd000b15 	stw	r20,44(sp)
 800a57c:	dc800915 	stw	r18,36(sp)
 800a580:	843fffc4 	addi	r16,r16,-1
 800a584:	dfc01015 	stw	ra,64(sp)
 800a588:	df000f15 	stw	fp,60(sp)
 800a58c:	ddc00e15 	stw	r23,56(sp)
 800a590:	dd800d15 	stw	r22,52(sp)
 800a594:	dd400c15 	stw	r21,48(sp)
 800a598:	dcc00a15 	stw	r19,40(sp)
 800a59c:	dc400815 	stw	r17,32(sp)
 800a5a0:	4201ffcc 	andi	r8,r8,2047
 800a5a4:	2025883a 	mov	r18,r4
 800a5a8:	2c20703a 	and	r16,r5,r16
 800a5ac:	2828d7fa 	srli	r20,r5,31
 800a5b0:	40005d26 	beq	r8,zero,800a728 <__muldf3+0x1c0>
 800a5b4:	4081ffe0 	cmpeqi	r2,r8,2047
 800a5b8:	1000721e 	bne	r2,zero,800a784 <__muldf3+0x21c>
 800a5bc:	802090fa 	slli	r16,r16,3
 800a5c0:	2006d77a 	srli	r3,r4,29
 800a5c4:	202c90fa 	slli	r22,r4,3
 800a5c8:	423f0044 	addi	r8,r8,-1023
 800a5cc:	1c20b03a 	or	r16,r3,r16
 800a5d0:	84002034 	orhi	r16,r16,128
 800a5d4:	0027883a 	mov	r19,zero
 800a5d8:	002f883a 	mov	r23,zero
 800a5dc:	3806d53a 	srli	r3,r7,20
 800a5e0:	04400434 	movhi	r17,16
 800a5e4:	8c7fffc4 	addi	r17,r17,-1
 800a5e8:	18c1ffcc 	andi	r3,r3,2047
 800a5ec:	3c62703a 	and	r17,r7,r17
 800a5f0:	382ad7fa 	srli	r21,r7,31
 800a5f4:	18006a26 	beq	r3,zero,800a7a0 <__muldf3+0x238>
 800a5f8:	1881ffe0 	cmpeqi	r2,r3,2047
 800a5fc:	1000211e 	bne	r2,zero,800a684 <__muldf3+0x11c>
 800a600:	882290fa 	slli	r17,r17,3
 800a604:	3008d77a 	srli	r4,r6,29
 800a608:	302490fa 	slli	r18,r6,3
 800a60c:	18ff0044 	addi	r3,r3,-1023
 800a610:	2462b03a 	or	r17,r4,r17
 800a614:	40d1883a 	add	r8,r8,r3
 800a618:	8c402034 	orhi	r17,r17,128
 800a61c:	0007883a 	mov	r3,zero
 800a620:	98800428 	cmpgeui	r2,r19,16
 800a624:	a54cf03a 	xor	r6,r20,r21
 800a628:	42400044 	addi	r9,r8,1
 800a62c:	10009b1e 	bne	r2,zero,800a89c <__muldf3+0x334>
 800a630:	982690ba 	slli	r19,r19,2
 800a634:	00820074 	movhi	r2,2049
 800a638:	9885883a 	add	r2,r19,r2
 800a63c:	10a99117 	ldw	r2,-22972(r2)
 800a640:	1000683a 	jmp	r2
 800a644:	0800a89c 	xori	zero,at,674
 800a648:	0800a6a4 	muli	zero,at,666
 800a64c:	0800a6a4 	muli	zero,at,666
 800a650:	0800a6a0 	cmpeqi	zero,at,666
 800a654:	0800a6b0 	cmpltui	zero,at,666
 800a658:	0800a6b0 	cmpltui	zero,at,666
 800a65c:	0800a858 	cmpnei	zero,at,673
 800a660:	0800a6a0 	cmpeqi	zero,at,666
 800a664:	0800a6b0 	cmpltui	zero,at,666
 800a668:	0800a858 	cmpnei	zero,at,673
 800a66c:	0800a6b0 	cmpltui	zero,at,666
 800a670:	0800a6a0 	cmpeqi	zero,at,666
 800a674:	0800a850 	cmplti	zero,at,673
 800a678:	0800a850 	cmplti	zero,at,673
 800a67c:	0800a850 	cmplti	zero,at,673
 800a680:	0800a870 	cmpltui	zero,at,673
 800a684:	3464b03a 	or	r18,r6,r17
 800a688:	4201ffc4 	addi	r8,r8,2047
 800a68c:	90006c1e 	bne	r18,zero,800a840 <__muldf3+0x2d8>
 800a690:	9cc00094 	ori	r19,r19,2
 800a694:	0023883a 	mov	r17,zero
 800a698:	00c00084 	movi	r3,2
 800a69c:	003fe006 	br	800a620 <__muldf3+0xb8>
 800a6a0:	a80d883a 	mov	r6,r21
 800a6a4:	8821883a 	mov	r16,r17
 800a6a8:	902d883a 	mov	r22,r18
 800a6ac:	182f883a 	mov	r23,r3
 800a6b0:	b88000a0 	cmpeqi	r2,r23,2
 800a6b4:	1000501e 	bne	r2,zero,800a7f8 <__muldf3+0x290>
 800a6b8:	b88000e0 	cmpeqi	r2,r23,3
 800a6bc:	10019d1e 	bne	r2,zero,800ad34 <__muldf3+0x7cc>
 800a6c0:	b8800060 	cmpeqi	r2,r23,1
 800a6c4:	10012a26 	beq	r2,zero,800ab70 <__muldf3+0x608>
 800a6c8:	0007883a 	mov	r3,zero
 800a6cc:	0021883a 	mov	r16,zero
 800a6d0:	002d883a 	mov	r22,zero
 800a6d4:	04400434 	movhi	r17,16
 800a6d8:	1806953a 	slli	r3,r3,20
 800a6dc:	31803fcc 	andi	r6,r6,255
 800a6e0:	8c7fffc4 	addi	r17,r17,-1
 800a6e4:	300c97fa 	slli	r6,r6,31
 800a6e8:	8460703a 	and	r16,r16,r17
 800a6ec:	80c6b03a 	or	r3,r16,r3
 800a6f0:	1986b03a 	or	r3,r3,r6
 800a6f4:	b005883a 	mov	r2,r22
 800a6f8:	dfc01017 	ldw	ra,64(sp)
 800a6fc:	df000f17 	ldw	fp,60(sp)
 800a700:	ddc00e17 	ldw	r23,56(sp)
 800a704:	dd800d17 	ldw	r22,52(sp)
 800a708:	dd400c17 	ldw	r21,48(sp)
 800a70c:	dd000b17 	ldw	r20,44(sp)
 800a710:	dcc00a17 	ldw	r19,40(sp)
 800a714:	dc800917 	ldw	r18,36(sp)
 800a718:	dc400817 	ldw	r17,32(sp)
 800a71c:	dc000717 	ldw	r16,28(sp)
 800a720:	dec01104 	addi	sp,sp,68
 800a724:	f800283a 	ret
 800a728:	812cb03a 	or	r22,r16,r4
 800a72c:	b0003f26 	beq	r22,zero,800a82c <__muldf3+0x2c4>
 800a730:	d9c00115 	stw	r7,4(sp)
 800a734:	d9800015 	stw	r6,0(sp)
 800a738:	80013b26 	beq	r16,zero,800ac28 <__muldf3+0x6c0>
 800a73c:	8009883a 	mov	r4,r16
 800a740:	800b8ec0 	call	800b8ec <__clzsi2>
 800a744:	d9800017 	ldw	r6,0(sp)
 800a748:	d9c00117 	ldw	r7,4(sp)
 800a74c:	1007883a 	mov	r3,r2
 800a750:	117ffd44 	addi	r5,r2,-11
 800a754:	01000744 	movi	r4,29
 800a758:	1dbffe04 	addi	r22,r3,-8
 800a75c:	2149c83a 	sub	r4,r4,r5
 800a760:	85a0983a 	sll	r16,r16,r22
 800a764:	9108d83a 	srl	r4,r18,r4
 800a768:	95ac983a 	sll	r22,r18,r22
 800a76c:	2420b03a 	or	r16,r4,r16
 800a770:	023f0344 	movi	r8,-1011
 800a774:	40d1c83a 	sub	r8,r8,r3
 800a778:	0027883a 	mov	r19,zero
 800a77c:	002f883a 	mov	r23,zero
 800a780:	003f9606 	br	800a5dc <__muldf3+0x74>
 800a784:	812cb03a 	or	r22,r16,r4
 800a788:	b000231e 	bne	r22,zero,800a818 <__muldf3+0x2b0>
 800a78c:	0021883a 	mov	r16,zero
 800a790:	04c00204 	movi	r19,8
 800a794:	0201ffc4 	movi	r8,2047
 800a798:	05c00084 	movi	r23,2
 800a79c:	003f8f06 	br	800a5dc <__muldf3+0x74>
 800a7a0:	3464b03a 	or	r18,r6,r17
 800a7a4:	90001826 	beq	r18,zero,800a808 <__muldf3+0x2a0>
 800a7a8:	88011126 	beq	r17,zero,800abf0 <__muldf3+0x688>
 800a7ac:	8809883a 	mov	r4,r17
 800a7b0:	d9800115 	stw	r6,4(sp)
 800a7b4:	da000015 	stw	r8,0(sp)
 800a7b8:	800b8ec0 	call	800b8ec <__clzsi2>
 800a7bc:	da000017 	ldw	r8,0(sp)
 800a7c0:	d9800117 	ldw	r6,4(sp)
 800a7c4:	1007883a 	mov	r3,r2
 800a7c8:	117ffd44 	addi	r5,r2,-11
 800a7cc:	01000744 	movi	r4,29
 800a7d0:	1cbffe04 	addi	r18,r3,-8
 800a7d4:	2149c83a 	sub	r4,r4,r5
 800a7d8:	8ca2983a 	sll	r17,r17,r18
 800a7dc:	3108d83a 	srl	r4,r6,r4
 800a7e0:	34a4983a 	sll	r18,r6,r18
 800a7e4:	2462b03a 	or	r17,r4,r17
 800a7e8:	40d1c83a 	sub	r8,r8,r3
 800a7ec:	423f0344 	addi	r8,r8,-1011
 800a7f0:	0007883a 	mov	r3,zero
 800a7f4:	003f8a06 	br	800a620 <__muldf3+0xb8>
 800a7f8:	00c1ffc4 	movi	r3,2047
 800a7fc:	0021883a 	mov	r16,zero
 800a800:	002d883a 	mov	r22,zero
 800a804:	003fb306 	br	800a6d4 <__muldf3+0x16c>
 800a808:	9cc00054 	ori	r19,r19,1
 800a80c:	0023883a 	mov	r17,zero
 800a810:	00c00044 	movi	r3,1
 800a814:	003f8206 	br	800a620 <__muldf3+0xb8>
 800a818:	202d883a 	mov	r22,r4
 800a81c:	04c00304 	movi	r19,12
 800a820:	0201ffc4 	movi	r8,2047
 800a824:	05c000c4 	movi	r23,3
 800a828:	003f6c06 	br	800a5dc <__muldf3+0x74>
 800a82c:	0021883a 	mov	r16,zero
 800a830:	04c00104 	movi	r19,4
 800a834:	0011883a 	mov	r8,zero
 800a838:	05c00044 	movi	r23,1
 800a83c:	003f6706 	br	800a5dc <__muldf3+0x74>
 800a840:	9cc000d4 	ori	r19,r19,3
 800a844:	3025883a 	mov	r18,r6
 800a848:	00c000c4 	movi	r3,3
 800a84c:	003f7406 	br	800a620 <__muldf3+0xb8>
 800a850:	a00d883a 	mov	r6,r20
 800a854:	003f9606 	br	800a6b0 <__muldf3+0x148>
 800a858:	04000434 	movhi	r16,16
 800a85c:	000d883a 	mov	r6,zero
 800a860:	843fffc4 	addi	r16,r16,-1
 800a864:	05bfffc4 	movi	r22,-1
 800a868:	00c1ffc4 	movi	r3,2047
 800a86c:	003f9906 	br	800a6d4 <__muldf3+0x16c>
 800a870:	8080022c 	andhi	r2,r16,8
 800a874:	1000d826 	beq	r2,zero,800abd8 <__muldf3+0x670>
 800a878:	8880022c 	andhi	r2,r17,8
 800a87c:	1000d61e 	bne	r2,zero,800abd8 <__muldf3+0x670>
 800a880:	00800434 	movhi	r2,16
 800a884:	8c000234 	orhi	r16,r17,8
 800a888:	10bfffc4 	addi	r2,r2,-1
 800a88c:	80a0703a 	and	r16,r16,r2
 800a890:	a80d883a 	mov	r6,r21
 800a894:	902d883a 	mov	r22,r18
 800a898:	003ff306 	br	800a868 <__muldf3+0x300>
 800a89c:	b028d43a 	srli	r20,r22,16
 800a8a0:	902ed43a 	srli	r23,r18,16
 800a8a4:	b5bfffcc 	andi	r22,r22,65535
 800a8a8:	94bfffcc 	andi	r18,r18,65535
 800a8ac:	b00b883a 	mov	r5,r22
 800a8b0:	9009883a 	mov	r4,r18
 800a8b4:	d9800215 	stw	r6,8(sp)
 800a8b8:	da000115 	stw	r8,4(sp)
 800a8bc:	da400015 	stw	r9,0(sp)
 800a8c0:	8000acc0 	call	8000acc <__mulsi3>
 800a8c4:	900b883a 	mov	r5,r18
 800a8c8:	a009883a 	mov	r4,r20
 800a8cc:	1027883a 	mov	r19,r2
 800a8d0:	8000acc0 	call	8000acc <__mulsi3>
 800a8d4:	b80b883a 	mov	r5,r23
 800a8d8:	a009883a 	mov	r4,r20
 800a8dc:	102b883a 	mov	r21,r2
 800a8e0:	8000acc0 	call	8000acc <__mulsi3>
 800a8e4:	b00b883a 	mov	r5,r22
 800a8e8:	b809883a 	mov	r4,r23
 800a8ec:	1039883a 	mov	fp,r2
 800a8f0:	8000acc0 	call	8000acc <__mulsi3>
 800a8f4:	9806d43a 	srli	r3,r19,16
 800a8f8:	1545883a 	add	r2,r2,r21
 800a8fc:	da400017 	ldw	r9,0(sp)
 800a900:	1885883a 	add	r2,r3,r2
 800a904:	da000117 	ldw	r8,4(sp)
 800a908:	d9800217 	ldw	r6,8(sp)
 800a90c:	1540022e 	bgeu	r2,r21,800a918 <__muldf3+0x3b0>
 800a910:	00c00074 	movhi	r3,1
 800a914:	e0f9883a 	add	fp,fp,r3
 800a918:	1006943a 	slli	r3,r2,16
 800a91c:	1004d43a 	srli	r2,r2,16
 800a920:	882ad43a 	srli	r21,r17,16
 800a924:	9cffffcc 	andi	r19,r19,65535
 800a928:	8c7fffcc 	andi	r17,r17,65535
 800a92c:	b00b883a 	mov	r5,r22
 800a930:	8809883a 	mov	r4,r17
 800a934:	d8800015 	stw	r2,0(sp)
 800a938:	1cc5883a 	add	r2,r3,r19
 800a93c:	d9800515 	stw	r6,20(sp)
 800a940:	da000415 	stw	r8,16(sp)
 800a944:	da400315 	stw	r9,12(sp)
 800a948:	d8800115 	stw	r2,4(sp)
 800a94c:	8000acc0 	call	8000acc <__mulsi3>
 800a950:	a009883a 	mov	r4,r20
 800a954:	880b883a 	mov	r5,r17
 800a958:	d8800215 	stw	r2,8(sp)
 800a95c:	8000acc0 	call	8000acc <__mulsi3>
 800a960:	a009883a 	mov	r4,r20
 800a964:	a80b883a 	mov	r5,r21
 800a968:	1027883a 	mov	r19,r2
 800a96c:	8000acc0 	call	8000acc <__mulsi3>
 800a970:	b00b883a 	mov	r5,r22
 800a974:	a809883a 	mov	r4,r21
 800a978:	1029883a 	mov	r20,r2
 800a97c:	8000acc0 	call	8000acc <__mulsi3>
 800a980:	d9c00217 	ldw	r7,8(sp)
 800a984:	14c5883a 	add	r2,r2,r19
 800a988:	da400317 	ldw	r9,12(sp)
 800a98c:	3806d43a 	srli	r3,r7,16
 800a990:	da000417 	ldw	r8,16(sp)
 800a994:	d9800517 	ldw	r6,20(sp)
 800a998:	1885883a 	add	r2,r3,r2
 800a99c:	14c0022e 	bgeu	r2,r19,800a9a8 <__muldf3+0x440>
 800a9a0:	00c00074 	movhi	r3,1
 800a9a4:	a0e9883a 	add	r20,r20,r3
 800a9a8:	1006d43a 	srli	r3,r2,16
 800a9ac:	1004943a 	slli	r2,r2,16
 800a9b0:	802cd43a 	srli	r22,r16,16
 800a9b4:	843fffcc 	andi	r16,r16,65535
 800a9b8:	3cffffcc 	andi	r19,r7,65535
 800a9bc:	9009883a 	mov	r4,r18
 800a9c0:	800b883a 	mov	r5,r16
 800a9c4:	d9800615 	stw	r6,24(sp)
 800a9c8:	da000515 	stw	r8,20(sp)
 800a9cc:	da400415 	stw	r9,16(sp)
 800a9d0:	1d29883a 	add	r20,r3,r20
 800a9d4:	14e7883a 	add	r19,r2,r19
 800a9d8:	8000acc0 	call	8000acc <__mulsi3>
 800a9dc:	900b883a 	mov	r5,r18
 800a9e0:	b009883a 	mov	r4,r22
 800a9e4:	d8800315 	stw	r2,12(sp)
 800a9e8:	8000acc0 	call	8000acc <__mulsi3>
 800a9ec:	b00b883a 	mov	r5,r22
 800a9f0:	b809883a 	mov	r4,r23
 800a9f4:	1025883a 	mov	r18,r2
 800a9f8:	8000acc0 	call	8000acc <__mulsi3>
 800a9fc:	800b883a 	mov	r5,r16
 800aa00:	b809883a 	mov	r4,r23
 800aa04:	d8800215 	stw	r2,8(sp)
 800aa08:	8000acc0 	call	8000acc <__mulsi3>
 800aa0c:	d8c00317 	ldw	r3,12(sp)
 800aa10:	d9400017 	ldw	r5,0(sp)
 800aa14:	1485883a 	add	r2,r2,r18
 800aa18:	1808d43a 	srli	r4,r3,16
 800aa1c:	2ccf883a 	add	r7,r5,r19
 800aa20:	da800217 	ldw	r10,8(sp)
 800aa24:	2085883a 	add	r2,r4,r2
 800aa28:	da400417 	ldw	r9,16(sp)
 800aa2c:	da000517 	ldw	r8,20(sp)
 800aa30:	d9800617 	ldw	r6,24(sp)
 800aa34:	1480022e 	bgeu	r2,r18,800aa40 <__muldf3+0x4d8>
 800aa38:	01000074 	movhi	r4,1
 800aa3c:	5115883a 	add	r10,r10,r4
 800aa40:	1024d43a 	srli	r18,r2,16
 800aa44:	1004943a 	slli	r2,r2,16
 800aa48:	1dffffcc 	andi	r23,r3,65535
 800aa4c:	8809883a 	mov	r4,r17
 800aa50:	800b883a 	mov	r5,r16
 800aa54:	d9800615 	stw	r6,24(sp)
 800aa58:	da000515 	stw	r8,20(sp)
 800aa5c:	da400415 	stw	r9,16(sp)
 800aa60:	d9c00315 	stw	r7,12(sp)
 800aa64:	92a5883a 	add	r18,r18,r10
 800aa68:	15ef883a 	add	r23,r2,r23
 800aa6c:	8000acc0 	call	8000acc <__mulsi3>
 800aa70:	880b883a 	mov	r5,r17
 800aa74:	b009883a 	mov	r4,r22
 800aa78:	d8800215 	stw	r2,8(sp)
 800aa7c:	8000acc0 	call	8000acc <__mulsi3>
 800aa80:	b00b883a 	mov	r5,r22
 800aa84:	a809883a 	mov	r4,r21
 800aa88:	d8800015 	stw	r2,0(sp)
 800aa8c:	8000acc0 	call	8000acc <__mulsi3>
 800aa90:	800b883a 	mov	r5,r16
 800aa94:	a809883a 	mov	r4,r21
 800aa98:	1023883a 	mov	r17,r2
 800aa9c:	8000acc0 	call	8000acc <__mulsi3>
 800aaa0:	da800217 	ldw	r10,8(sp)
 800aaa4:	d8c00017 	ldw	r3,0(sp)
 800aaa8:	d9c00317 	ldw	r7,12(sp)
 800aaac:	500ad43a 	srli	r5,r10,16
 800aab0:	10c5883a 	add	r2,r2,r3
 800aab4:	da400417 	ldw	r9,16(sp)
 800aab8:	288b883a 	add	r5,r5,r2
 800aabc:	da000517 	ldw	r8,20(sp)
 800aac0:	d9800617 	ldw	r6,24(sp)
 800aac4:	28c0022e 	bgeu	r5,r3,800aad0 <__muldf3+0x568>
 800aac8:	00800074 	movhi	r2,1
 800aacc:	88a3883a 	add	r17,r17,r2
 800aad0:	2806943a 	slli	r3,r5,16
 800aad4:	52bfffcc 	andi	r10,r10,65535
 800aad8:	3f39883a 	add	fp,r7,fp
 800aadc:	1a87883a 	add	r3,r3,r10
 800aae0:	e4e7803a 	cmpltu	r19,fp,r19
 800aae4:	1d07883a 	add	r3,r3,r20
 800aae8:	e5f9883a 	add	fp,fp,r23
 800aaec:	1ce1883a 	add	r16,r3,r19
 800aaf0:	e5c9803a 	cmpltu	r4,fp,r23
 800aaf4:	848f883a 	add	r7,r16,r18
 800aaf8:	280ad43a 	srli	r5,r5,16
 800aafc:	3915883a 	add	r10,r7,r4
 800ab00:	1d29803a 	cmpltu	r20,r3,r20
 800ab04:	84e1803a 	cmpltu	r16,r16,r19
 800ab08:	5109803a 	cmpltu	r4,r10,r4
 800ab0c:	a420b03a 	or	r16,r20,r16
 800ab10:	3ca5803a 	cmpltu	r18,r7,r18
 800ab14:	8161883a 	add	r16,r16,r5
 800ab18:	9108b03a 	or	r4,r18,r4
 800ab1c:	8121883a 	add	r16,r16,r4
 800ab20:	e02c927a 	slli	r22,fp,9
 800ab24:	8461883a 	add	r16,r16,r17
 800ab28:	d8c00117 	ldw	r3,4(sp)
 800ab2c:	5004d5fa 	srli	r2,r10,23
 800ab30:	8020927a 	slli	r16,r16,9
 800ab34:	e038d5fa 	srli	fp,fp,23
 800ab38:	b0ecb03a 	or	r22,r22,r3
 800ab3c:	5014927a 	slli	r10,r10,9
 800ab40:	80a0b03a 	or	r16,r16,r2
 800ab44:	b02cc03a 	cmpne	r22,r22,zero
 800ab48:	b72cb03a 	or	r22,r22,fp
 800ab4c:	8080402c 	andhi	r2,r16,256
 800ab50:	b2acb03a 	or	r22,r22,r10
 800ab54:	10005c26 	beq	r2,zero,800acc8 <__muldf3+0x760>
 800ab58:	b004d07a 	srli	r2,r22,1
 800ab5c:	800697fa 	slli	r3,r16,31
 800ab60:	b580004c 	andi	r22,r22,1
 800ab64:	8020d07a 	srli	r16,r16,1
 800ab68:	15acb03a 	or	r22,r2,r22
 800ab6c:	b0ecb03a 	or	r22,r22,r3
 800ab70:	48c0ffc4 	addi	r3,r9,1023
 800ab74:	00c0370e 	bge	zero,r3,800ac54 <__muldf3+0x6ec>
 800ab78:	b08001cc 	andi	r2,r22,7
 800ab7c:	10000726 	beq	r2,zero,800ab9c <__muldf3+0x634>
 800ab80:	b08003cc 	andi	r2,r22,15
 800ab84:	10800120 	cmpeqi	r2,r2,4
 800ab88:	1000041e 	bne	r2,zero,800ab9c <__muldf3+0x634>
 800ab8c:	b0800104 	addi	r2,r22,4
 800ab90:	15ad803a 	cmpltu	r22,r2,r22
 800ab94:	85a1883a 	add	r16,r16,r22
 800ab98:	102d883a 	mov	r22,r2
 800ab9c:	8080402c 	andhi	r2,r16,256
 800aba0:	10000426 	beq	r2,zero,800abb4 <__muldf3+0x64c>
 800aba4:	00bfc034 	movhi	r2,65280
 800aba8:	10bfffc4 	addi	r2,r2,-1
 800abac:	80a0703a 	and	r16,r16,r2
 800abb0:	48c10004 	addi	r3,r9,1024
 800abb4:	1881ffc8 	cmpgei	r2,r3,2047
 800abb8:	103f0f1e 	bne	r2,zero,800a7f8 <__muldf3+0x290>
 800abbc:	8004977a 	slli	r2,r16,29
 800abc0:	b02cd0fa 	srli	r22,r22,3
 800abc4:	8020927a 	slli	r16,r16,9
 800abc8:	18c1ffcc 	andi	r3,r3,2047
 800abcc:	15acb03a 	or	r22,r2,r22
 800abd0:	8020d33a 	srli	r16,r16,12
 800abd4:	003ebf06 	br	800a6d4 <__muldf3+0x16c>
 800abd8:	00800434 	movhi	r2,16
 800abdc:	84000234 	orhi	r16,r16,8
 800abe0:	10bfffc4 	addi	r2,r2,-1
 800abe4:	80a0703a 	and	r16,r16,r2
 800abe8:	a00d883a 	mov	r6,r20
 800abec:	003f1e06 	br	800a868 <__muldf3+0x300>
 800abf0:	3009883a 	mov	r4,r6
 800abf4:	da000115 	stw	r8,4(sp)
 800abf8:	d9800015 	stw	r6,0(sp)
 800abfc:	800b8ec0 	call	800b8ec <__clzsi2>
 800ac00:	11400544 	addi	r5,r2,21
 800ac04:	29000748 	cmpgei	r4,r5,29
 800ac08:	10c00804 	addi	r3,r2,32
 800ac0c:	d9800017 	ldw	r6,0(sp)
 800ac10:	da000117 	ldw	r8,4(sp)
 800ac14:	203eed26 	beq	r4,zero,800a7cc <__muldf3+0x264>
 800ac18:	147ffe04 	addi	r17,r2,-8
 800ac1c:	3462983a 	sll	r17,r6,r17
 800ac20:	0025883a 	mov	r18,zero
 800ac24:	003ef006 	br	800a7e8 <__muldf3+0x280>
 800ac28:	800b8ec0 	call	800b8ec <__clzsi2>
 800ac2c:	11400544 	addi	r5,r2,21
 800ac30:	29000748 	cmpgei	r4,r5,29
 800ac34:	10c00804 	addi	r3,r2,32
 800ac38:	d9800017 	ldw	r6,0(sp)
 800ac3c:	d9c00117 	ldw	r7,4(sp)
 800ac40:	203ec426 	beq	r4,zero,800a754 <__muldf3+0x1ec>
 800ac44:	143ffe04 	addi	r16,r2,-8
 800ac48:	9420983a 	sll	r16,r18,r16
 800ac4c:	002d883a 	mov	r22,zero
 800ac50:	003ec706 	br	800a770 <__muldf3+0x208>
 800ac54:	00800044 	movi	r2,1
 800ac58:	10c5c83a 	sub	r2,r2,r3
 800ac5c:	11000e48 	cmpgei	r4,r2,57
 800ac60:	203e991e 	bne	r4,zero,800a6c8 <__muldf3+0x160>
 800ac64:	11000808 	cmpgei	r4,r2,32
 800ac68:	2000191e 	bne	r4,zero,800acd0 <__muldf3+0x768>
 800ac6c:	4a410784 	addi	r9,r9,1054
 800ac70:	8246983a 	sll	r3,r16,r9
 800ac74:	b088d83a 	srl	r4,r22,r2
 800ac78:	b26c983a 	sll	r22,r22,r9
 800ac7c:	80a0d83a 	srl	r16,r16,r2
 800ac80:	1904b03a 	or	r2,r3,r4
 800ac84:	b02cc03a 	cmpne	r22,r22,zero
 800ac88:	1584b03a 	or	r2,r2,r22
 800ac8c:	10c001cc 	andi	r3,r2,7
 800ac90:	18000726 	beq	r3,zero,800acb0 <__muldf3+0x748>
 800ac94:	10c003cc 	andi	r3,r2,15
 800ac98:	18c00120 	cmpeqi	r3,r3,4
 800ac9c:	1800041e 	bne	r3,zero,800acb0 <__muldf3+0x748>
 800aca0:	10c00104 	addi	r3,r2,4
 800aca4:	1885803a 	cmpltu	r2,r3,r2
 800aca8:	80a1883a 	add	r16,r16,r2
 800acac:	1805883a 	mov	r2,r3
 800acb0:	80c0202c 	andhi	r3,r16,128
 800acb4:	18001b26 	beq	r3,zero,800ad24 <__muldf3+0x7bc>
 800acb8:	00c00044 	movi	r3,1
 800acbc:	0021883a 	mov	r16,zero
 800acc0:	002d883a 	mov	r22,zero
 800acc4:	003e8306 	br	800a6d4 <__muldf3+0x16c>
 800acc8:	4013883a 	mov	r9,r8
 800accc:	003fa806 	br	800ab70 <__muldf3+0x608>
 800acd0:	013ff844 	movi	r4,-31
 800acd4:	20c7c83a 	sub	r3,r4,r3
 800acd8:	10800820 	cmpeqi	r2,r2,32
 800acdc:	80c6d83a 	srl	r3,r16,r3
 800ace0:	1000031e 	bne	r2,zero,800acf0 <__muldf3+0x788>
 800ace4:	4a410f84 	addi	r9,r9,1086
 800ace8:	8260983a 	sll	r16,r16,r9
 800acec:	b42cb03a 	or	r22,r22,r16
 800acf0:	b02cc03a 	cmpne	r22,r22,zero
 800acf4:	b0c4b03a 	or	r2,r22,r3
 800acf8:	158001cc 	andi	r22,r2,7
 800acfc:	b000051e 	bne	r22,zero,800ad14 <__muldf3+0x7ac>
 800ad00:	0021883a 	mov	r16,zero
 800ad04:	1004d0fa 	srli	r2,r2,3
 800ad08:	0007883a 	mov	r3,zero
 800ad0c:	15acb03a 	or	r22,r2,r22
 800ad10:	003e7006 	br	800a6d4 <__muldf3+0x16c>
 800ad14:	10c003cc 	andi	r3,r2,15
 800ad18:	18c00118 	cmpnei	r3,r3,4
 800ad1c:	0021883a 	mov	r16,zero
 800ad20:	183fdf1e 	bne	r3,zero,800aca0 <__muldf3+0x738>
 800ad24:	8006927a 	slli	r3,r16,9
 800ad28:	802c977a 	slli	r22,r16,29
 800ad2c:	1820d33a 	srli	r16,r3,12
 800ad30:	003ff406 	br	800ad04 <__muldf3+0x79c>
 800ad34:	00800434 	movhi	r2,16
 800ad38:	84000234 	orhi	r16,r16,8
 800ad3c:	10bfffc4 	addi	r2,r2,-1
 800ad40:	80a0703a 	and	r16,r16,r2
 800ad44:	003ec806 	br	800a868 <__muldf3+0x300>

0800ad48 <__subdf3>:
 800ad48:	00800434 	movhi	r2,16
 800ad4c:	3812d53a 	srli	r9,r7,20
 800ad50:	10bfffc4 	addi	r2,r2,-1
 800ad54:	defffb04 	addi	sp,sp,-20
 800ad58:	2890703a 	and	r8,r5,r2
 800ad5c:	3884703a 	and	r2,r7,r2
 800ad60:	2806d7fa 	srli	r3,r5,31
 800ad64:	dcc00315 	stw	r19,12(sp)
 800ad68:	dc400115 	stw	r17,4(sp)
 800ad6c:	280ad53a 	srli	r5,r5,20
 800ad70:	401090fa 	slli	r8,r8,3
 800ad74:	2026d77a 	srli	r19,r4,29
 800ad78:	100490fa 	slli	r2,r2,3
 800ad7c:	3022d77a 	srli	r17,r6,29
 800ad80:	4a81ffcc 	andi	r10,r9,2047
 800ad84:	dc800215 	stw	r18,8(sp)
 800ad88:	dc000015 	stw	r16,0(sp)
 800ad8c:	dfc00415 	stw	ra,16(sp)
 800ad90:	5241ffe0 	cmpeqi	r9,r10,2047
 800ad94:	1825883a 	mov	r18,r3
 800ad98:	2c01ffcc 	andi	r16,r5,2047
 800ad9c:	18c03fcc 	andi	r3,r3,255
 800ada0:	9a18b03a 	or	r12,r19,r8
 800ada4:	201a90fa 	slli	r13,r4,3
 800ada8:	380ed7fa 	srli	r7,r7,31
 800adac:	8896b03a 	or	r11,r17,r2
 800adb0:	301c90fa 	slli	r14,r6,3
 800adb4:	4800711e 	bne	r9,zero,800af7c <__subdf3+0x234>
 800adb8:	39c0005c 	xori	r7,r7,1
 800adbc:	8291c83a 	sub	r8,r16,r10
 800adc0:	19c05a26 	beq	r3,r7,800af2c <__subdf3+0x1e4>
 800adc4:	0200720e 	bge	zero,r8,800af90 <__subdf3+0x248>
 800adc8:	50008126 	beq	r10,zero,800afd0 <__subdf3+0x288>
 800adcc:	8081ffd8 	cmpnei	r2,r16,2047
 800add0:	10011626 	beq	r2,zero,800b22c <__subdf3+0x4e4>
 800add4:	5ac02034 	orhi	r11,r11,128
 800add8:	40800e48 	cmpgei	r2,r8,57
 800addc:	1000fe1e 	bne	r2,zero,800b1d8 <__subdf3+0x490>
 800ade0:	40800808 	cmpgei	r2,r8,32
 800ade4:	10015e1e 	bne	r2,zero,800b360 <__subdf3+0x618>
 800ade8:	00800804 	movi	r2,32
 800adec:	1205c83a 	sub	r2,r2,r8
 800adf0:	58a2983a 	sll	r17,r11,r2
 800adf4:	7206d83a 	srl	r3,r14,r8
 800adf8:	709c983a 	sll	r14,r14,r2
 800adfc:	5a04d83a 	srl	r2,r11,r8
 800ae00:	88e2b03a 	or	r17,r17,r3
 800ae04:	701cc03a 	cmpne	r14,r14,zero
 800ae08:	8ba2b03a 	or	r17,r17,r14
 800ae0c:	6099c83a 	sub	r12,r12,r2
 800ae10:	6c63c83a 	sub	r17,r13,r17
 800ae14:	6c49803a 	cmpltu	r4,r13,r17
 800ae18:	6109c83a 	sub	r4,r12,r4
 800ae1c:	2080202c 	andhi	r2,r4,128
 800ae20:	10009f26 	beq	r2,zero,800b0a0 <__subdf3+0x358>
 800ae24:	04c02034 	movhi	r19,128
 800ae28:	9cffffc4 	addi	r19,r19,-1
 800ae2c:	24e6703a 	and	r19,r4,r19
 800ae30:	9800e026 	beq	r19,zero,800b1b4 <__subdf3+0x46c>
 800ae34:	9809883a 	mov	r4,r19
 800ae38:	800b8ec0 	call	800b8ec <__clzsi2>
 800ae3c:	123ffe04 	addi	r8,r2,-8
 800ae40:	01000804 	movi	r4,32
 800ae44:	2209c83a 	sub	r4,r4,r8
 800ae48:	8906d83a 	srl	r3,r17,r4
 800ae4c:	9a08983a 	sll	r4,r19,r8
 800ae50:	8a22983a 	sll	r17,r17,r8
 800ae54:	1908b03a 	or	r4,r3,r4
 800ae58:	4400cf16 	blt	r8,r16,800b198 <__subdf3+0x450>
 800ae5c:	4411c83a 	sub	r8,r8,r16
 800ae60:	40800044 	addi	r2,r8,1
 800ae64:	10c00808 	cmpgei	r3,r2,32
 800ae68:	1801251e 	bne	r3,zero,800b300 <__subdf3+0x5b8>
 800ae6c:	00c00804 	movi	r3,32
 800ae70:	1887c83a 	sub	r3,r3,r2
 800ae74:	888ad83a 	srl	r5,r17,r2
 800ae78:	88e2983a 	sll	r17,r17,r3
 800ae7c:	20c6983a 	sll	r3,r4,r3
 800ae80:	2088d83a 	srl	r4,r4,r2
 800ae84:	8822c03a 	cmpne	r17,r17,zero
 800ae88:	1946b03a 	or	r3,r3,r5
 800ae8c:	1c62b03a 	or	r17,r3,r17
 800ae90:	0021883a 	mov	r16,zero
 800ae94:	888001cc 	andi	r2,r17,7
 800ae98:	10000726 	beq	r2,zero,800aeb8 <__subdf3+0x170>
 800ae9c:	888003cc 	andi	r2,r17,15
 800aea0:	10800120 	cmpeqi	r2,r2,4
 800aea4:	1000041e 	bne	r2,zero,800aeb8 <__subdf3+0x170>
 800aea8:	88c00104 	addi	r3,r17,4
 800aeac:	1c63803a 	cmpltu	r17,r3,r17
 800aeb0:	2449883a 	add	r4,r4,r17
 800aeb4:	1823883a 	mov	r17,r3
 800aeb8:	2080202c 	andhi	r2,r4,128
 800aebc:	10007a26 	beq	r2,zero,800b0a8 <__subdf3+0x360>
 800aec0:	82000044 	addi	r8,r16,1
 800aec4:	4081ffe0 	cmpeqi	r2,r8,2047
 800aec8:	4201ffcc 	andi	r8,r8,2047
 800aecc:	10008c1e 	bne	r2,zero,800b100 <__subdf3+0x3b8>
 800aed0:	00bfe034 	movhi	r2,65408
 800aed4:	10bfffc4 	addi	r2,r2,-1
 800aed8:	2084703a 	and	r2,r4,r2
 800aedc:	1008927a 	slli	r4,r2,9
 800aee0:	8822d0fa 	srli	r17,r17,3
 800aee4:	100c977a 	slli	r6,r2,29
 800aee8:	2008d33a 	srli	r4,r4,12
 800aeec:	3444b03a 	or	r2,r6,r17
 800aef0:	4010953a 	slli	r8,r8,20
 800aef4:	00c00434 	movhi	r3,16
 800aef8:	94803fcc 	andi	r18,r18,255
 800aefc:	902497fa 	slli	r18,r18,31
 800af00:	18ffffc4 	addi	r3,r3,-1
 800af04:	20c6703a 	and	r3,r4,r3
 800af08:	1a06b03a 	or	r3,r3,r8
 800af0c:	1c86b03a 	or	r3,r3,r18
 800af10:	dfc00417 	ldw	ra,16(sp)
 800af14:	dcc00317 	ldw	r19,12(sp)
 800af18:	dc800217 	ldw	r18,8(sp)
 800af1c:	dc400117 	ldw	r17,4(sp)
 800af20:	dc000017 	ldw	r16,0(sp)
 800af24:	dec00504 	addi	sp,sp,20
 800af28:	f800283a 	ret
 800af2c:	0200320e 	bge	zero,r8,800aff8 <__subdf3+0x2b0>
 800af30:	50004c26 	beq	r10,zero,800b064 <__subdf3+0x31c>
 800af34:	8081ffd8 	cmpnei	r2,r16,2047
 800af38:	1000bc26 	beq	r2,zero,800b22c <__subdf3+0x4e4>
 800af3c:	5ac02034 	orhi	r11,r11,128
 800af40:	40800e48 	cmpgei	r2,r8,57
 800af44:	1000641e 	bne	r2,zero,800b0d8 <__subdf3+0x390>
 800af48:	40800808 	cmpgei	r2,r8,32
 800af4c:	10011726 	beq	r2,zero,800b3ac <__subdf3+0x664>
 800af50:	447ff804 	addi	r17,r8,-32
 800af54:	40800820 	cmpeqi	r2,r8,32
 800af58:	5c46d83a 	srl	r3,r11,r17
 800af5c:	1000041e 	bne	r2,zero,800af70 <__subdf3+0x228>
 800af60:	00801004 	movi	r2,64
 800af64:	1205c83a 	sub	r2,r2,r8
 800af68:	5884983a 	sll	r2,r11,r2
 800af6c:	709cb03a 	or	r14,r14,r2
 800af70:	7022c03a 	cmpne	r17,r14,zero
 800af74:	88e2b03a 	or	r17,r17,r3
 800af78:	00005906 	br	800b0e0 <__subdf3+0x398>
 800af7c:	5b8ab03a 	or	r5,r11,r14
 800af80:	823e0044 	addi	r8,r16,-2047
 800af84:	28001a1e 	bne	r5,zero,800aff0 <__subdf3+0x2a8>
 800af88:	39c0005c 	xori	r7,r7,1
 800af8c:	19c01a26 	beq	r3,r7,800aff8 <__subdf3+0x2b0>
 800af90:	4000291e 	bne	r8,zero,800b038 <__subdf3+0x2f0>
 800af94:	80800044 	addi	r2,r16,1
 800af98:	1081ff8c 	andi	r2,r2,2046
 800af9c:	1000911e 	bne	r2,zero,800b1e4 <__subdf3+0x49c>
 800afa0:	6346b03a 	or	r3,r12,r13
 800afa4:	5b84b03a 	or	r2,r11,r14
 800afa8:	8001551e 	bne	r16,zero,800b500 <__subdf3+0x7b8>
 800afac:	18011b26 	beq	r3,zero,800b41c <__subdf3+0x6d4>
 800afb0:	1001641e 	bne	r2,zero,800b544 <__subdf3+0x7fc>
 800afb4:	00880034 	movhi	r2,8192
 800afb8:	6022977a 	slli	r17,r12,29
 800afbc:	10bfffc4 	addi	r2,r2,-1
 800afc0:	2088703a 	and	r4,r4,r2
 800afc4:	2444b03a 	or	r2,r4,r17
 800afc8:	6026d0fa 	srli	r19,r12,3
 800afcc:	00003d06 	br	800b0c4 <__subdf3+0x37c>
 800afd0:	5b84b03a 	or	r2,r11,r14
 800afd4:	10008e26 	beq	r2,zero,800b210 <__subdf3+0x4c8>
 800afd8:	40bfffc4 	addi	r2,r8,-1
 800afdc:	10011f26 	beq	r2,zero,800b45c <__subdf3+0x714>
 800afe0:	4201ffd8 	cmpnei	r8,r8,2047
 800afe4:	40012d26 	beq	r8,zero,800b49c <__subdf3+0x754>
 800afe8:	1011883a 	mov	r8,r2
 800afec:	003f7a06 	br	800add8 <__subdf3+0x90>
 800aff0:	39c03fcc 	andi	r7,r7,255
 800aff4:	19ffe61e 	bne	r3,r7,800af90 <__subdf3+0x248>
 800aff8:	4000931e 	bne	r8,zero,800b248 <__subdf3+0x500>
 800affc:	80c00044 	addi	r3,r16,1
 800b000:	1881ff8c 	andi	r2,r3,2046
 800b004:	10012c1e 	bne	r2,zero,800b4b8 <__subdf3+0x770>
 800b008:	6344b03a 	or	r2,r12,r13
 800b00c:	8000f91e 	bne	r16,zero,800b3f4 <__subdf3+0x6ac>
 800b010:	10017326 	beq	r2,zero,800b5e0 <__subdf3+0x898>
 800b014:	5b84b03a 	or	r2,r11,r14
 800b018:	1001781e 	bne	r2,zero,800b5fc <__subdf3+0x8b4>
 800b01c:	6004977a 	slli	r2,r12,29
 800b020:	00c80034 	movhi	r3,8192
 800b024:	18ffffc4 	addi	r3,r3,-1
 800b028:	20c6703a 	and	r3,r4,r3
 800b02c:	10c4b03a 	or	r2,r2,r3
 800b030:	6026d0fa 	srli	r19,r12,3
 800b034:	00002306 	br	800b0c4 <__subdf3+0x37c>
 800b038:	5411c83a 	sub	r8,r10,r16
 800b03c:	3825883a 	mov	r18,r7
 800b040:	8000991e 	bne	r16,zero,800b2a8 <__subdf3+0x560>
 800b044:	6344b03a 	or	r2,r12,r13
 800b048:	1000e326 	beq	r2,zero,800b3d8 <__subdf3+0x690>
 800b04c:	40bfffc4 	addi	r2,r8,-1
 800b050:	10015d26 	beq	r2,zero,800b5c8 <__subdf3+0x880>
 800b054:	4201ffd8 	cmpnei	r8,r8,2047
 800b058:	4000f926 	beq	r8,zero,800b440 <__subdf3+0x6f8>
 800b05c:	1011883a 	mov	r8,r2
 800b060:	00009406 	br	800b2b4 <__subdf3+0x56c>
 800b064:	5b84b03a 	or	r2,r11,r14
 800b068:	10010226 	beq	r2,zero,800b474 <__subdf3+0x72c>
 800b06c:	40bfffc4 	addi	r2,r8,-1
 800b070:	10000426 	beq	r2,zero,800b084 <__subdf3+0x33c>
 800b074:	4201ffd8 	cmpnei	r8,r8,2047
 800b078:	40014126 	beq	r8,zero,800b580 <__subdf3+0x838>
 800b07c:	1011883a 	mov	r8,r2
 800b080:	003faf06 	br	800af40 <__subdf3+0x1f8>
 800b084:	6ba3883a 	add	r17,r13,r14
 800b088:	62c9883a 	add	r4,r12,r11
 800b08c:	8b5b803a 	cmpltu	r13,r17,r13
 800b090:	2349883a 	add	r4,r4,r13
 800b094:	2080202c 	andhi	r2,r4,128
 800b098:	1000a61e 	bne	r2,zero,800b334 <__subdf3+0x5ec>
 800b09c:	04000044 	movi	r16,1
 800b0a0:	888001cc 	andi	r2,r17,7
 800b0a4:	103f7d1e 	bne	r2,zero,800ae9c <__subdf3+0x154>
 800b0a8:	8822d0fa 	srli	r17,r17,3
 800b0ac:	2004977a 	slli	r2,r4,29
 800b0b0:	2026d0fa 	srli	r19,r4,3
 800b0b4:	8011883a 	mov	r8,r16
 800b0b8:	8884b03a 	or	r2,r17,r2
 800b0bc:	40c1ffe0 	cmpeqi	r3,r8,2047
 800b0c0:	18002d1e 	bne	r3,zero,800b178 <__subdf3+0x430>
 800b0c4:	01000434 	movhi	r4,16
 800b0c8:	213fffc4 	addi	r4,r4,-1
 800b0cc:	9908703a 	and	r4,r19,r4
 800b0d0:	4201ffcc 	andi	r8,r8,2047
 800b0d4:	003f8606 	br	800aef0 <__subdf3+0x1a8>
 800b0d8:	5ba2b03a 	or	r17,r11,r14
 800b0dc:	8822c03a 	cmpne	r17,r17,zero
 800b0e0:	8b63883a 	add	r17,r17,r13
 800b0e4:	8b49803a 	cmpltu	r4,r17,r13
 800b0e8:	2309883a 	add	r4,r4,r12
 800b0ec:	2080202c 	andhi	r2,r4,128
 800b0f0:	103feb26 	beq	r2,zero,800b0a0 <__subdf3+0x358>
 800b0f4:	84000044 	addi	r16,r16,1
 800b0f8:	8081ffe0 	cmpeqi	r2,r16,2047
 800b0fc:	10008e26 	beq	r2,zero,800b338 <__subdf3+0x5f0>
 800b100:	0201ffc4 	movi	r8,2047
 800b104:	0009883a 	mov	r4,zero
 800b108:	0005883a 	mov	r2,zero
 800b10c:	003f7806 	br	800aef0 <__subdf3+0x1a8>
 800b110:	6010977a 	slli	r8,r12,29
 800b114:	6026d0fa 	srli	r19,r12,3
 800b118:	1000bb26 	beq	r2,zero,800b408 <__subdf3+0x6c0>
 800b11c:	01480034 	movhi	r5,8192
 800b120:	297fffc4 	addi	r5,r5,-1
 800b124:	2146703a 	and	r3,r4,r5
 800b128:	9880022c 	andhi	r2,r19,8
 800b12c:	1a06b03a 	or	r3,r3,r8
 800b130:	10000826 	beq	r2,zero,800b154 <__subdf3+0x40c>
 800b134:	5808d0fa 	srli	r4,r11,3
 800b138:	2080022c 	andhi	r2,r4,8
 800b13c:	1000051e 	bne	r2,zero,800b154 <__subdf3+0x40c>
 800b140:	5804977a 	slli	r2,r11,29
 800b144:	3146703a 	and	r3,r6,r5
 800b148:	3825883a 	mov	r18,r7
 800b14c:	1886b03a 	or	r3,r3,r2
 800b150:	2027883a 	mov	r19,r4
 800b154:	1804d77a 	srli	r2,r3,29
 800b158:	980890fa 	slli	r4,r19,3
 800b15c:	01480034 	movhi	r5,8192
 800b160:	297fffc4 	addi	r5,r5,-1
 800b164:	1108b03a 	or	r4,r2,r4
 800b168:	2004977a 	slli	r2,r4,29
 800b16c:	2026d0fa 	srli	r19,r4,3
 800b170:	1946703a 	and	r3,r3,r5
 800b174:	10c4b03a 	or	r2,r2,r3
 800b178:	14c6b03a 	or	r3,r2,r19
 800b17c:	18014926 	beq	r3,zero,800b6a4 <__subdf3+0x95c>
 800b180:	00c00434 	movhi	r3,16
 800b184:	99000234 	orhi	r4,r19,8
 800b188:	18ffffc4 	addi	r3,r3,-1
 800b18c:	20c8703a 	and	r4,r4,r3
 800b190:	0201ffc4 	movi	r8,2047
 800b194:	003f5606 	br	800aef0 <__subdf3+0x1a8>
 800b198:	00bfe034 	movhi	r2,65408
 800b19c:	10bfffc4 	addi	r2,r2,-1
 800b1a0:	2088703a 	and	r4,r4,r2
 800b1a4:	888001cc 	andi	r2,r17,7
 800b1a8:	8221c83a 	sub	r16,r16,r8
 800b1ac:	103f3b1e 	bne	r2,zero,800ae9c <__subdf3+0x154>
 800b1b0:	003fbd06 	br	800b0a8 <__subdf3+0x360>
 800b1b4:	8809883a 	mov	r4,r17
 800b1b8:	800b8ec0 	call	800b8ec <__clzsi2>
 800b1bc:	12000604 	addi	r8,r2,24
 800b1c0:	40c00808 	cmpgei	r3,r8,32
 800b1c4:	183f1e26 	beq	r3,zero,800ae40 <__subdf3+0xf8>
 800b1c8:	113ffe04 	addi	r4,r2,-8
 800b1cc:	8908983a 	sll	r4,r17,r4
 800b1d0:	0023883a 	mov	r17,zero
 800b1d4:	003f2006 	br	800ae58 <__subdf3+0x110>
 800b1d8:	5ba2b03a 	or	r17,r11,r14
 800b1dc:	8822c03a 	cmpne	r17,r17,zero
 800b1e0:	003f0b06 	br	800ae10 <__subdf3+0xc8>
 800b1e4:	6ba3c83a 	sub	r17,r13,r14
 800b1e8:	62e7c83a 	sub	r19,r12,r11
 800b1ec:	6c49803a 	cmpltu	r4,r13,r17
 800b1f0:	9927c83a 	sub	r19,r19,r4
 800b1f4:	9880202c 	andhi	r2,r19,128
 800b1f8:	1000bb1e 	bne	r2,zero,800b4e8 <__subdf3+0x7a0>
 800b1fc:	8cc4b03a 	or	r2,r17,r19
 800b200:	103f0b1e 	bne	r2,zero,800ae30 <__subdf3+0xe8>
 800b204:	0027883a 	mov	r19,zero
 800b208:	0025883a 	mov	r18,zero
 800b20c:	003fad06 	br	800b0c4 <__subdf3+0x37c>
 800b210:	00880034 	movhi	r2,8192
 800b214:	6022977a 	slli	r17,r12,29
 800b218:	10bfffc4 	addi	r2,r2,-1
 800b21c:	2088703a 	and	r4,r4,r2
 800b220:	2444b03a 	or	r2,r4,r17
 800b224:	6026d0fa 	srli	r19,r12,3
 800b228:	003fa406 	br	800b0bc <__subdf3+0x374>
 800b22c:	00880034 	movhi	r2,8192
 800b230:	6022977a 	slli	r17,r12,29
 800b234:	10bfffc4 	addi	r2,r2,-1
 800b238:	2088703a 	and	r4,r4,r2
 800b23c:	2444b03a 	or	r2,r4,r17
 800b240:	6026d0fa 	srli	r19,r12,3
 800b244:	003fcc06 	br	800b178 <__subdf3+0x430>
 800b248:	5411c83a 	sub	r8,r10,r16
 800b24c:	80004f26 	beq	r16,zero,800b38c <__subdf3+0x644>
 800b250:	5081ffd8 	cmpnei	r2,r10,2047
 800b254:	1000b426 	beq	r2,zero,800b528 <__subdf3+0x7e0>
 800b258:	63002034 	orhi	r12,r12,128
 800b25c:	40800e48 	cmpgei	r2,r8,57
 800b260:	1000c41e 	bne	r2,zero,800b574 <__subdf3+0x82c>
 800b264:	40800808 	cmpgei	r2,r8,32
 800b268:	1000f91e 	bne	r2,zero,800b650 <__subdf3+0x908>
 800b26c:	00800804 	movi	r2,32
 800b270:	1205c83a 	sub	r2,r2,r8
 800b274:	60a2983a 	sll	r17,r12,r2
 800b278:	6a06d83a 	srl	r3,r13,r8
 800b27c:	6884983a 	sll	r2,r13,r2
 800b280:	6210d83a 	srl	r8,r12,r8
 800b284:	88e2b03a 	or	r17,r17,r3
 800b288:	1004c03a 	cmpne	r2,r2,zero
 800b28c:	88a2b03a 	or	r17,r17,r2
 800b290:	5a17883a 	add	r11,r11,r8
 800b294:	8ba3883a 	add	r17,r17,r14
 800b298:	8b85803a 	cmpltu	r2,r17,r14
 800b29c:	12c9883a 	add	r4,r2,r11
 800b2a0:	5021883a 	mov	r16,r10
 800b2a4:	003f9106 	br	800b0ec <__subdf3+0x3a4>
 800b2a8:	5081ffd8 	cmpnei	r2,r10,2047
 800b2ac:	10006426 	beq	r2,zero,800b440 <__subdf3+0x6f8>
 800b2b0:	63002034 	orhi	r12,r12,128
 800b2b4:	40800e48 	cmpgei	r2,r8,57
 800b2b8:	1000751e 	bne	r2,zero,800b490 <__subdf3+0x748>
 800b2bc:	40800808 	cmpgei	r2,r8,32
 800b2c0:	1000b61e 	bne	r2,zero,800b59c <__subdf3+0x854>
 800b2c4:	00800804 	movi	r2,32
 800b2c8:	1205c83a 	sub	r2,r2,r8
 800b2cc:	60a2983a 	sll	r17,r12,r2
 800b2d0:	6a06d83a 	srl	r3,r13,r8
 800b2d4:	6884983a 	sll	r2,r13,r2
 800b2d8:	6210d83a 	srl	r8,r12,r8
 800b2dc:	88e2b03a 	or	r17,r17,r3
 800b2e0:	1004c03a 	cmpne	r2,r2,zero
 800b2e4:	88a2b03a 	or	r17,r17,r2
 800b2e8:	5a17c83a 	sub	r11,r11,r8
 800b2ec:	7463c83a 	sub	r17,r14,r17
 800b2f0:	7445803a 	cmpltu	r2,r14,r17
 800b2f4:	5889c83a 	sub	r4,r11,r2
 800b2f8:	5021883a 	mov	r16,r10
 800b2fc:	003ec706 	br	800ae1c <__subdf3+0xd4>
 800b300:	423ff844 	addi	r8,r8,-31
 800b304:	10c00820 	cmpeqi	r3,r2,32
 800b308:	2210d83a 	srl	r8,r4,r8
 800b30c:	1800041e 	bne	r3,zero,800b320 <__subdf3+0x5d8>
 800b310:	00c01004 	movi	r3,64
 800b314:	1885c83a 	sub	r2,r3,r2
 800b318:	2088983a 	sll	r4,r4,r2
 800b31c:	8922b03a 	or	r17,r17,r4
 800b320:	8822c03a 	cmpne	r17,r17,zero
 800b324:	8a22b03a 	or	r17,r17,r8
 800b328:	0009883a 	mov	r4,zero
 800b32c:	0021883a 	mov	r16,zero
 800b330:	003f5b06 	br	800b0a0 <__subdf3+0x358>
 800b334:	04000084 	movi	r16,2
 800b338:	00bfe034 	movhi	r2,65408
 800b33c:	10bfffc4 	addi	r2,r2,-1
 800b340:	2084703a 	and	r2,r4,r2
 800b344:	8806d07a 	srli	r3,r17,1
 800b348:	100a97fa 	slli	r5,r2,31
 800b34c:	8c40004c 	andi	r17,r17,1
 800b350:	1c62b03a 	or	r17,r3,r17
 800b354:	1008d07a 	srli	r4,r2,1
 800b358:	2c62b03a 	or	r17,r5,r17
 800b35c:	003ecd06 	br	800ae94 <__subdf3+0x14c>
 800b360:	447ff804 	addi	r17,r8,-32
 800b364:	40800820 	cmpeqi	r2,r8,32
 800b368:	5c46d83a 	srl	r3,r11,r17
 800b36c:	1000041e 	bne	r2,zero,800b380 <__subdf3+0x638>
 800b370:	00801004 	movi	r2,64
 800b374:	1205c83a 	sub	r2,r2,r8
 800b378:	5884983a 	sll	r2,r11,r2
 800b37c:	709cb03a 	or	r14,r14,r2
 800b380:	7022c03a 	cmpne	r17,r14,zero
 800b384:	88e2b03a 	or	r17,r17,r3
 800b388:	003ea106 	br	800ae10 <__subdf3+0xc8>
 800b38c:	6344b03a 	or	r2,r12,r13
 800b390:	1000a526 	beq	r2,zero,800b628 <__subdf3+0x8e0>
 800b394:	40bfffc4 	addi	r2,r8,-1
 800b398:	1000bd26 	beq	r2,zero,800b690 <__subdf3+0x948>
 800b39c:	4201ffd8 	cmpnei	r8,r8,2047
 800b3a0:	40006126 	beq	r8,zero,800b528 <__subdf3+0x7e0>
 800b3a4:	1011883a 	mov	r8,r2
 800b3a8:	003fac06 	br	800b25c <__subdf3+0x514>
 800b3ac:	00800804 	movi	r2,32
 800b3b0:	1205c83a 	sub	r2,r2,r8
 800b3b4:	58a2983a 	sll	r17,r11,r2
 800b3b8:	7206d83a 	srl	r3,r14,r8
 800b3bc:	709c983a 	sll	r14,r14,r2
 800b3c0:	5a04d83a 	srl	r2,r11,r8
 800b3c4:	88e2b03a 	or	r17,r17,r3
 800b3c8:	701cc03a 	cmpne	r14,r14,zero
 800b3cc:	8ba2b03a 	or	r17,r17,r14
 800b3d0:	6099883a 	add	r12,r12,r2
 800b3d4:	003f4206 	br	800b0e0 <__subdf3+0x398>
 800b3d8:	5808977a 	slli	r4,r11,29
 800b3dc:	00c80034 	movhi	r3,8192
 800b3e0:	18ffffc4 	addi	r3,r3,-1
 800b3e4:	30cc703a 	and	r6,r6,r3
 800b3e8:	2184b03a 	or	r2,r4,r6
 800b3ec:	5826d0fa 	srli	r19,r11,3
 800b3f0:	003f3206 	br	800b0bc <__subdf3+0x374>
 800b3f4:	10004c26 	beq	r2,zero,800b528 <__subdf3+0x7e0>
 800b3f8:	5b9cb03a 	or	r14,r11,r14
 800b3fc:	6010977a 	slli	r8,r12,29
 800b400:	6026d0fa 	srli	r19,r12,3
 800b404:	703f451e 	bne	r14,zero,800b11c <__subdf3+0x3d4>
 800b408:	00880034 	movhi	r2,8192
 800b40c:	10bfffc4 	addi	r2,r2,-1
 800b410:	2084703a 	and	r2,r4,r2
 800b414:	1204b03a 	or	r2,r2,r8
 800b418:	003f5706 	br	800b178 <__subdf3+0x430>
 800b41c:	103f7926 	beq	r2,zero,800b204 <__subdf3+0x4bc>
 800b420:	5804977a 	slli	r2,r11,29
 800b424:	00c80034 	movhi	r3,8192
 800b428:	18ffffc4 	addi	r3,r3,-1
 800b42c:	30c6703a 	and	r3,r6,r3
 800b430:	10c4b03a 	or	r2,r2,r3
 800b434:	5826d0fa 	srli	r19,r11,3
 800b438:	3825883a 	mov	r18,r7
 800b43c:	003f2106 	br	800b0c4 <__subdf3+0x37c>
 800b440:	5804977a 	slli	r2,r11,29
 800b444:	00c80034 	movhi	r3,8192
 800b448:	18ffffc4 	addi	r3,r3,-1
 800b44c:	30c6703a 	and	r3,r6,r3
 800b450:	10c4b03a 	or	r2,r2,r3
 800b454:	5826d0fa 	srli	r19,r11,3
 800b458:	003f4706 	br	800b178 <__subdf3+0x430>
 800b45c:	6ba3c83a 	sub	r17,r13,r14
 800b460:	62c9c83a 	sub	r4,r12,r11
 800b464:	6c5b803a 	cmpltu	r13,r13,r17
 800b468:	2349c83a 	sub	r4,r4,r13
 800b46c:	04000044 	movi	r16,1
 800b470:	003e6a06 	br	800ae1c <__subdf3+0xd4>
 800b474:	6004977a 	slli	r2,r12,29
 800b478:	00c80034 	movhi	r3,8192
 800b47c:	18ffffc4 	addi	r3,r3,-1
 800b480:	20c8703a 	and	r4,r4,r3
 800b484:	1104b03a 	or	r2,r2,r4
 800b488:	6026d0fa 	srli	r19,r12,3
 800b48c:	003f0b06 	br	800b0bc <__subdf3+0x374>
 800b490:	6366b03a 	or	r19,r12,r13
 800b494:	9822c03a 	cmpne	r17,r19,zero
 800b498:	003f9406 	br	800b2ec <__subdf3+0x5a4>
 800b49c:	6004977a 	slli	r2,r12,29
 800b4a0:	00c80034 	movhi	r3,8192
 800b4a4:	18ffffc4 	addi	r3,r3,-1
 800b4a8:	20c8703a 	and	r4,r4,r3
 800b4ac:	1104b03a 	or	r2,r2,r4
 800b4b0:	6026d0fa 	srli	r19,r12,3
 800b4b4:	003f3006 	br	800b178 <__subdf3+0x430>
 800b4b8:	1881ffe0 	cmpeqi	r2,r3,2047
 800b4bc:	103f101e 	bne	r2,zero,800b100 <__subdf3+0x3b8>
 800b4c0:	6b9d883a 	add	r14,r13,r14
 800b4c4:	62c9883a 	add	r4,r12,r11
 800b4c8:	7345803a 	cmpltu	r2,r14,r13
 800b4cc:	2085883a 	add	r2,r4,r2
 800b4d0:	102297fa 	slli	r17,r2,31
 800b4d4:	701cd07a 	srli	r14,r14,1
 800b4d8:	1008d07a 	srli	r4,r2,1
 800b4dc:	1821883a 	mov	r16,r3
 800b4e0:	8ba2b03a 	or	r17,r17,r14
 800b4e4:	003eee06 	br	800b0a0 <__subdf3+0x358>
 800b4e8:	7363c83a 	sub	r17,r14,r13
 800b4ec:	5b09c83a 	sub	r4,r11,r12
 800b4f0:	7467803a 	cmpltu	r19,r14,r17
 800b4f4:	24e7c83a 	sub	r19,r4,r19
 800b4f8:	3825883a 	mov	r18,r7
 800b4fc:	003e4c06 	br	800ae30 <__subdf3+0xe8>
 800b500:	183f031e 	bne	r3,zero,800b110 <__subdf3+0x3c8>
 800b504:	10005d26 	beq	r2,zero,800b67c <__subdf3+0x934>
 800b508:	00880034 	movhi	r2,8192
 800b50c:	5806977a 	slli	r3,r11,29
 800b510:	10bfffc4 	addi	r2,r2,-1
 800b514:	3084703a 	and	r2,r6,r2
 800b518:	10c4b03a 	or	r2,r2,r3
 800b51c:	5826d0fa 	srli	r19,r11,3
 800b520:	3825883a 	mov	r18,r7
 800b524:	003f1406 	br	800b178 <__subdf3+0x430>
 800b528:	00880034 	movhi	r2,8192
 800b52c:	5806977a 	slli	r3,r11,29
 800b530:	10bfffc4 	addi	r2,r2,-1
 800b534:	3084703a 	and	r2,r6,r2
 800b538:	10c4b03a 	or	r2,r2,r3
 800b53c:	5826d0fa 	srli	r19,r11,3
 800b540:	003f0d06 	br	800b178 <__subdf3+0x430>
 800b544:	6ba3c83a 	sub	r17,r13,r14
 800b548:	62c5c83a 	sub	r2,r12,r11
 800b54c:	6c49803a 	cmpltu	r4,r13,r17
 800b550:	1109c83a 	sub	r4,r2,r4
 800b554:	2080202c 	andhi	r2,r4,128
 800b558:	10003a26 	beq	r2,zero,800b644 <__subdf3+0x8fc>
 800b55c:	7363c83a 	sub	r17,r14,r13
 800b560:	5b09c83a 	sub	r4,r11,r12
 800b564:	745d803a 	cmpltu	r14,r14,r17
 800b568:	2389c83a 	sub	r4,r4,r14
 800b56c:	3825883a 	mov	r18,r7
 800b570:	003e4806 	br	800ae94 <__subdf3+0x14c>
 800b574:	6362b03a 	or	r17,r12,r13
 800b578:	8822c03a 	cmpne	r17,r17,zero
 800b57c:	003f4506 	br	800b294 <__subdf3+0x54c>
 800b580:	6004977a 	slli	r2,r12,29
 800b584:	00c80034 	movhi	r3,8192
 800b588:	18ffffc4 	addi	r3,r3,-1
 800b58c:	20c6703a 	and	r3,r4,r3
 800b590:	10c4b03a 	or	r2,r2,r3
 800b594:	6026d0fa 	srli	r19,r12,3
 800b598:	003ef706 	br	800b178 <__subdf3+0x430>
 800b59c:	40bff804 	addi	r2,r8,-32
 800b5a0:	40c00820 	cmpeqi	r3,r8,32
 800b5a4:	6084d83a 	srl	r2,r12,r2
 800b5a8:	1800041e 	bne	r3,zero,800b5bc <__subdf3+0x874>
 800b5ac:	04c01004 	movi	r19,64
 800b5b0:	9a11c83a 	sub	r8,r19,r8
 800b5b4:	6226983a 	sll	r19,r12,r8
 800b5b8:	6cdab03a 	or	r13,r13,r19
 800b5bc:	6822c03a 	cmpne	r17,r13,zero
 800b5c0:	88a2b03a 	or	r17,r17,r2
 800b5c4:	003f4906 	br	800b2ec <__subdf3+0x5a4>
 800b5c8:	7363c83a 	sub	r17,r14,r13
 800b5cc:	5b09c83a 	sub	r4,r11,r12
 800b5d0:	745d803a 	cmpltu	r14,r14,r17
 800b5d4:	2389c83a 	sub	r4,r4,r14
 800b5d8:	04000044 	movi	r16,1
 800b5dc:	003e0f06 	br	800ae1c <__subdf3+0xd4>
 800b5e0:	00880034 	movhi	r2,8192
 800b5e4:	5806977a 	slli	r3,r11,29
 800b5e8:	10bfffc4 	addi	r2,r2,-1
 800b5ec:	3084703a 	and	r2,r6,r2
 800b5f0:	10c4b03a 	or	r2,r2,r3
 800b5f4:	5826d0fa 	srli	r19,r11,3
 800b5f8:	003eb206 	br	800b0c4 <__subdf3+0x37c>
 800b5fc:	6ba3883a 	add	r17,r13,r14
 800b600:	62c9883a 	add	r4,r12,r11
 800b604:	8b5b803a 	cmpltu	r13,r17,r13
 800b608:	2349883a 	add	r4,r4,r13
 800b60c:	2080202c 	andhi	r2,r4,128
 800b610:	103ea326 	beq	r2,zero,800b0a0 <__subdf3+0x358>
 800b614:	00bfe034 	movhi	r2,65408
 800b618:	10bfffc4 	addi	r2,r2,-1
 800b61c:	2088703a 	and	r4,r4,r2
 800b620:	04000044 	movi	r16,1
 800b624:	003e9e06 	br	800b0a0 <__subdf3+0x358>
 800b628:	00880034 	movhi	r2,8192
 800b62c:	5806977a 	slli	r3,r11,29
 800b630:	10bfffc4 	addi	r2,r2,-1
 800b634:	3084703a 	and	r2,r6,r2
 800b638:	10c4b03a 	or	r2,r2,r3
 800b63c:	5826d0fa 	srli	r19,r11,3
 800b640:	003e9e06 	br	800b0bc <__subdf3+0x374>
 800b644:	8904b03a 	or	r2,r17,r4
 800b648:	103eee26 	beq	r2,zero,800b204 <__subdf3+0x4bc>
 800b64c:	003e9406 	br	800b0a0 <__subdf3+0x358>
 800b650:	40bff804 	addi	r2,r8,-32
 800b654:	40c00820 	cmpeqi	r3,r8,32
 800b658:	6084d83a 	srl	r2,r12,r2
 800b65c:	1800041e 	bne	r3,zero,800b670 <__subdf3+0x928>
 800b660:	04c01004 	movi	r19,64
 800b664:	9a11c83a 	sub	r8,r19,r8
 800b668:	6226983a 	sll	r19,r12,r8
 800b66c:	6cdab03a 	or	r13,r13,r19
 800b670:	6822c03a 	cmpne	r17,r13,zero
 800b674:	88a2b03a 	or	r17,r17,r2
 800b678:	003f0606 	br	800b294 <__subdf3+0x54c>
 800b67c:	04c00434 	movhi	r19,16
 800b680:	9cffffc4 	addi	r19,r19,-1
 800b684:	0025883a 	mov	r18,zero
 800b688:	00bfffc4 	movi	r2,-1
 800b68c:	003ebc06 	br	800b180 <__subdf3+0x438>
 800b690:	6ba3883a 	add	r17,r13,r14
 800b694:	62c9883a 	add	r4,r12,r11
 800b698:	8b9d803a 	cmpltu	r14,r17,r14
 800b69c:	2389883a 	add	r4,r4,r14
 800b6a0:	003e7c06 	br	800b094 <__subdf3+0x34c>
 800b6a4:	0005883a 	mov	r2,zero
 800b6a8:	0201ffc4 	movi	r8,2047
 800b6ac:	0009883a 	mov	r4,zero
 800b6b0:	003e0f06 	br	800aef0 <__subdf3+0x1a8>

0800b6b4 <__unorddf2>:
 800b6b4:	2806d53a 	srli	r3,r5,20
 800b6b8:	3810d53a 	srli	r8,r7,20
 800b6bc:	00800434 	movhi	r2,16
 800b6c0:	18c1ffcc 	andi	r3,r3,2047
 800b6c4:	10bfffc4 	addi	r2,r2,-1
 800b6c8:	18c1ffd8 	cmpnei	r3,r3,2047
 800b6cc:	288a703a 	and	r5,r5,r2
 800b6d0:	388e703a 	and	r7,r7,r2
 800b6d4:	4201ffcc 	andi	r8,r8,2047
 800b6d8:	18000426 	beq	r3,zero,800b6ec <__unorddf2+0x38>
 800b6dc:	4201ffd8 	cmpnei	r8,r8,2047
 800b6e0:	40000626 	beq	r8,zero,800b6fc <__unorddf2+0x48>
 800b6e4:	0005883a 	mov	r2,zero
 800b6e8:	f800283a 	ret
 800b6ec:	214ab03a 	or	r5,r4,r5
 800b6f0:	283ffa26 	beq	r5,zero,800b6dc <__unorddf2+0x28>
 800b6f4:	00800044 	movi	r2,1
 800b6f8:	f800283a 	ret
 800b6fc:	398eb03a 	or	r7,r7,r6
 800b700:	3804c03a 	cmpne	r2,r7,zero
 800b704:	f800283a 	ret

0800b708 <__fixdfsi>:
 800b708:	280cd53a 	srli	r6,r5,20
 800b70c:	00c00434 	movhi	r3,16
 800b710:	18ffffc4 	addi	r3,r3,-1
 800b714:	3181ffcc 	andi	r6,r6,2047
 800b718:	31c0ffd0 	cmplti	r7,r6,1023
 800b71c:	28c6703a 	and	r3,r5,r3
 800b720:	280ad7fa 	srli	r5,r5,31
 800b724:	3800061e 	bne	r7,zero,800b740 <__fixdfsi+0x38>
 800b728:	30810790 	cmplti	r2,r6,1054
 800b72c:	1000061e 	bne	r2,zero,800b748 <__fixdfsi+0x40>
 800b730:	00a00034 	movhi	r2,32768
 800b734:	10bfffc4 	addi	r2,r2,-1
 800b738:	2885883a 	add	r2,r5,r2
 800b73c:	f800283a 	ret
 800b740:	0005883a 	mov	r2,zero
 800b744:	f800283a 	ret
 800b748:	00810cc4 	movi	r2,1075
 800b74c:	118fc83a 	sub	r7,r2,r6
 800b750:	38800808 	cmpgei	r2,r7,32
 800b754:	18c00434 	orhi	r3,r3,16
 800b758:	1000071e 	bne	r2,zero,800b778 <__fixdfsi+0x70>
 800b75c:	30befb44 	addi	r2,r6,-1043
 800b760:	1886983a 	sll	r3,r3,r2
 800b764:	21c4d83a 	srl	r2,r4,r7
 800b768:	1884b03a 	or	r2,r3,r2
 800b76c:	283ff526 	beq	r5,zero,800b744 <__fixdfsi+0x3c>
 800b770:	0085c83a 	sub	r2,zero,r2
 800b774:	f800283a 	ret
 800b778:	008104c4 	movi	r2,1043
 800b77c:	1185c83a 	sub	r2,r2,r6
 800b780:	1884d83a 	srl	r2,r3,r2
 800b784:	003ff906 	br	800b76c <__fixdfsi+0x64>

0800b788 <__floatsidf>:
 800b788:	defffd04 	addi	sp,sp,-12
 800b78c:	dfc00215 	stw	ra,8(sp)
 800b790:	dc400115 	stw	r17,4(sp)
 800b794:	dc000015 	stw	r16,0(sp)
 800b798:	20001326 	beq	r4,zero,800b7e8 <__floatsidf+0x60>
 800b79c:	2021883a 	mov	r16,r4
 800b7a0:	2022d7fa 	srli	r17,r4,31
 800b7a4:	20002116 	blt	r4,zero,800b82c <__floatsidf+0xa4>
 800b7a8:	8009883a 	mov	r4,r16
 800b7ac:	800b8ec0 	call	800b8ec <__clzsi2>
 800b7b0:	01010784 	movi	r4,1054
 800b7b4:	2089c83a 	sub	r4,r4,r2
 800b7b8:	10c002c8 	cmpgei	r3,r2,11
 800b7bc:	2101ffcc 	andi	r4,r4,2047
 800b7c0:	18001c1e 	bne	r3,zero,800b834 <__floatsidf+0xac>
 800b7c4:	018002c4 	movi	r6,11
 800b7c8:	308dc83a 	sub	r6,r6,r2
 800b7cc:	818ad83a 	srl	r5,r16,r6
 800b7d0:	00c00434 	movhi	r3,16
 800b7d4:	10800544 	addi	r2,r2,21
 800b7d8:	18ffffc4 	addi	r3,r3,-1
 800b7dc:	8084983a 	sll	r2,r16,r2
 800b7e0:	28ca703a 	and	r5,r5,r3
 800b7e4:	00000406 	br	800b7f8 <__floatsidf+0x70>
 800b7e8:	0023883a 	mov	r17,zero
 800b7ec:	0009883a 	mov	r4,zero
 800b7f0:	000b883a 	mov	r5,zero
 800b7f4:	0005883a 	mov	r2,zero
 800b7f8:	2008953a 	slli	r4,r4,20
 800b7fc:	8c403fcc 	andi	r17,r17,255
 800b800:	01800434 	movhi	r6,16
 800b804:	31bfffc4 	addi	r6,r6,-1
 800b808:	880697fa 	slli	r3,r17,31
 800b80c:	298a703a 	and	r5,r5,r6
 800b810:	290ab03a 	or	r5,r5,r4
 800b814:	28c6b03a 	or	r3,r5,r3
 800b818:	dfc00217 	ldw	ra,8(sp)
 800b81c:	dc400117 	ldw	r17,4(sp)
 800b820:	dc000017 	ldw	r16,0(sp)
 800b824:	dec00304 	addi	sp,sp,12
 800b828:	f800283a 	ret
 800b82c:	0121c83a 	sub	r16,zero,r4
 800b830:	003fdd06 	br	800b7a8 <__floatsidf+0x20>
 800b834:	10bffd44 	addi	r2,r2,-11
 800b838:	808a983a 	sll	r5,r16,r2
 800b83c:	00800434 	movhi	r2,16
 800b840:	10bfffc4 	addi	r2,r2,-1
 800b844:	288a703a 	and	r5,r5,r2
 800b848:	0005883a 	mov	r2,zero
 800b84c:	003fea06 	br	800b7f8 <__floatsidf+0x70>

0800b850 <__floatunsidf>:
 800b850:	defffe04 	addi	sp,sp,-8
 800b854:	dc000015 	stw	r16,0(sp)
 800b858:	dfc00115 	stw	ra,4(sp)
 800b85c:	2021883a 	mov	r16,r4
 800b860:	20000f26 	beq	r4,zero,800b8a0 <__floatunsidf+0x50>
 800b864:	800b8ec0 	call	800b8ec <__clzsi2>
 800b868:	01010784 	movi	r4,1054
 800b86c:	2089c83a 	sub	r4,r4,r2
 800b870:	10c002c8 	cmpgei	r3,r2,11
 800b874:	2101ffcc 	andi	r4,r4,2047
 800b878:	1800151e 	bne	r3,zero,800b8d0 <__floatunsidf+0x80>
 800b87c:	00c002c4 	movi	r3,11
 800b880:	1887c83a 	sub	r3,r3,r2
 800b884:	80c6d83a 	srl	r3,r16,r3
 800b888:	01400434 	movhi	r5,16
 800b88c:	10800544 	addi	r2,r2,21
 800b890:	297fffc4 	addi	r5,r5,-1
 800b894:	80a0983a 	sll	r16,r16,r2
 800b898:	1944703a 	and	r2,r3,r5
 800b89c:	00000206 	br	800b8a8 <__floatunsidf+0x58>
 800b8a0:	0009883a 	mov	r4,zero
 800b8a4:	0005883a 	mov	r2,zero
 800b8a8:	2008953a 	slli	r4,r4,20
 800b8ac:	00c00434 	movhi	r3,16
 800b8b0:	18ffffc4 	addi	r3,r3,-1
 800b8b4:	10c6703a 	and	r3,r2,r3
 800b8b8:	1906b03a 	or	r3,r3,r4
 800b8bc:	8005883a 	mov	r2,r16
 800b8c0:	dfc00117 	ldw	ra,4(sp)
 800b8c4:	dc000017 	ldw	r16,0(sp)
 800b8c8:	dec00204 	addi	sp,sp,8
 800b8cc:	f800283a 	ret
 800b8d0:	10bffd44 	addi	r2,r2,-11
 800b8d4:	8084983a 	sll	r2,r16,r2
 800b8d8:	00c00434 	movhi	r3,16
 800b8dc:	18ffffc4 	addi	r3,r3,-1
 800b8e0:	10c4703a 	and	r2,r2,r3
 800b8e4:	0021883a 	mov	r16,zero
 800b8e8:	003fef06 	br	800b8a8 <__floatunsidf+0x58>

0800b8ec <__clzsi2>:
 800b8ec:	00bfffd4 	movui	r2,65535
 800b8f0:	11000b36 	bltu	r2,r4,800b920 <__clzsi2+0x34>
 800b8f4:	20804030 	cmpltui	r2,r4,256
 800b8f8:	1000071e 	bne	r2,zero,800b918 <__clzsi2+0x2c>
 800b8fc:	2008d23a 	srli	r4,r4,8
 800b900:	01400604 	movi	r5,24
 800b904:	00c20074 	movhi	r3,2049
 800b908:	20c7883a 	add	r3,r4,r3
 800b90c:	18b81a43 	ldbu	r2,-8087(r3)
 800b910:	2885c83a 	sub	r2,r5,r2
 800b914:	f800283a 	ret
 800b918:	01400804 	movi	r5,32
 800b91c:	003ff906 	br	800b904 <__clzsi2+0x18>
 800b920:	00804034 	movhi	r2,256
 800b924:	20800336 	bltu	r4,r2,800b934 <__clzsi2+0x48>
 800b928:	2008d63a 	srli	r4,r4,24
 800b92c:	01400204 	movi	r5,8
 800b930:	003ff406 	br	800b904 <__clzsi2+0x18>
 800b934:	2008d43a 	srli	r4,r4,16
 800b938:	01400404 	movi	r5,16
 800b93c:	003ff106 	br	800b904 <__clzsi2+0x18>

0800b940 <alt_load_section>:
 */

static void ALT_INLINE alt_load_section (alt_u32* from, 
                                         alt_u32* to, 
                                         alt_u32* end)
{
 800b940:	defffc04 	addi	sp,sp,-16
 800b944:	df000315 	stw	fp,12(sp)
 800b948:	df000304 	addi	fp,sp,12
 800b94c:	e13fff15 	stw	r4,-4(fp)
 800b950:	e17ffe15 	stw	r5,-8(fp)
 800b954:	e1bffd15 	stw	r6,-12(fp)
  if (to != from)
 800b958:	e0fffe17 	ldw	r3,-8(fp)
 800b95c:	e0bfff17 	ldw	r2,-4(fp)
 800b960:	18800c26 	beq	r3,r2,800b994 <alt_load_section+0x54>
  {
    while( to != end )
 800b964:	00000806 	br	800b988 <alt_load_section+0x48>
    {
      *to++ = *from++;
 800b968:	e0ffff17 	ldw	r3,-4(fp)
 800b96c:	18800104 	addi	r2,r3,4
 800b970:	e0bfff15 	stw	r2,-4(fp)
 800b974:	e0bffe17 	ldw	r2,-8(fp)
 800b978:	11000104 	addi	r4,r2,4
 800b97c:	e13ffe15 	stw	r4,-8(fp)
 800b980:	18c00017 	ldw	r3,0(r3)
 800b984:	10c00015 	stw	r3,0(r2)
    while( to != end )
 800b988:	e0fffe17 	ldw	r3,-8(fp)
 800b98c:	e0bffd17 	ldw	r2,-12(fp)
 800b990:	18bff51e 	bne	r3,r2,800b968 <alt_load_section+0x28>
    }
  }
}
 800b994:	0001883a 	nop
 800b998:	e037883a 	mov	sp,fp
 800b99c:	df000017 	ldw	fp,0(sp)
 800b9a0:	dec00104 	addi	sp,sp,4
 800b9a4:	f800283a 	ret

0800b9a8 <alt_load>:
 * there is no bootloader, so this application is responsible for loading to
 * RAM any sections that are required.
 */  

void alt_load (void)
{
 800b9a8:	defffe04 	addi	sp,sp,-8
 800b9ac:	dfc00115 	stw	ra,4(sp)
 800b9b0:	df000015 	stw	fp,0(sp)
 800b9b4:	d839883a 	mov	fp,sp
  /* 
   * Copy the .rwdata section. 
   */

  alt_load_section (&__flash_rwdata_start, 
 800b9b8:	01820074 	movhi	r6,2049
 800b9bc:	31807504 	addi	r6,r6,468
 800b9c0:	01420074 	movhi	r5,2049
 800b9c4:	29786804 	addi	r5,r5,-7776
 800b9c8:	01020074 	movhi	r4,2049
 800b9cc:	21007504 	addi	r4,r4,468
 800b9d0:	800b9400 	call	800b940 <alt_load_section>

  /*
   * Copy the exception handler.
   */

  alt_load_section (&__flash_exceptions_start, 
 800b9d4:	01820034 	movhi	r6,2048
 800b9d8:	31808904 	addi	r6,r6,548
 800b9dc:	01420034 	movhi	r5,2048
 800b9e0:	29400804 	addi	r5,r5,32
 800b9e4:	01020034 	movhi	r4,2048
 800b9e8:	21000804 	addi	r4,r4,32
 800b9ec:	800b9400 	call	800b940 <alt_load_section>

  /*
   * Copy the .rodata section.
   */

  alt_load_section (&__flash_rodata_start, 
 800b9f0:	01820074 	movhi	r6,2049
 800b9f4:	31b86804 	addi	r6,r6,-7776
 800b9f8:	01420074 	movhi	r5,2049
 800b9fc:	2976f304 	addi	r5,r5,-9268
 800ba00:	01020074 	movhi	r4,2049
 800ba04:	2136f304 	addi	r4,r4,-9268
 800ba08:	800b9400 	call	800b940 <alt_load_section>
  
  /*
   * Now ensure that the caches are in synch.
   */
  
  alt_dcache_flush_all();
 800ba0c:	800cb940 	call	800cb94 <alt_dcache_flush_all>
  alt_icache_flush_all();
 800ba10:	800cd800 	call	800cd80 <alt_icache_flush_all>
}
 800ba14:	0001883a 	nop
 800ba18:	e037883a 	mov	sp,fp
 800ba1c:	dfc00117 	ldw	ra,4(sp)
 800ba20:	df000017 	ldw	fp,0(sp)
 800ba24:	dec00204 	addi	sp,sp,8
 800ba28:	f800283a 	ret

0800ba2c <alt_main>:
 * devices/filesystems/components in the system; and call the entry point for
 * the users application, i.e. main().
 */

void alt_main (void)
{
 800ba2c:	defffd04 	addi	sp,sp,-12
 800ba30:	dfc00215 	stw	ra,8(sp)
 800ba34:	df000115 	stw	fp,4(sp)
 800ba38:	df000104 	addi	fp,sp,4
#endif

  /* ALT LOG - please see HAL/sys/alt_log_printf.h for details */
  ALT_LOG_PRINT_BOOT("[alt_main.c] Entering alt_main, calling alt_irq_init.\r\n");
  /* Initialize the interrupt controller. */
  alt_irq_init (NULL);
 800ba3c:	0009883a 	mov	r4,zero
 800ba40:	800bc040 	call	800bc04 <alt_irq_init>

  /* Initialize the operating system */
  ALT_LOG_PRINT_BOOT("[alt_main.c] Done alt_irq_init, calling alt_os_init.\r\n");
  ALT_OS_INIT();
 800ba44:	0001883a 	nop
  ALT_LOG_PRINT_BOOT("[alt_main.c] Done OS Init, calling alt_sem_create.\r\n");
  ALT_SEM_CREATE (&alt_fd_list_lock, 1);

  /* Initialize the device drivers/software components. */
  ALT_LOG_PRINT_BOOT("[alt_main.c] Calling alt_sys_init.\r\n");
  alt_sys_init();
 800ba48:	800bc3c0 	call	800bc3c <alt_sys_init>
   * devices be present (not equal to /dev/null) and if direct drivers
   * aren't being used.
   */

    ALT_LOG_PRINT_BOOT("[alt_main.c] Redirecting IO.\r\n");
    alt_io_redirect(ALT_STDOUT, ALT_STDIN, ALT_STDERR);
 800ba4c:	01820074 	movhi	r6,2049
 800ba50:	31b85b04 	addi	r6,r6,-7828
 800ba54:	01420074 	movhi	r5,2049
 800ba58:	29785b04 	addi	r5,r5,-7828
 800ba5c:	01020074 	movhi	r4,2049
 800ba60:	21385b04 	addi	r4,r4,-7828
 800ba64:	800d1080 	call	800d108 <alt_io_redirect>
  /* 
   * Call the C++ constructors 
   */

  ALT_LOG_PRINT_BOOT("[alt_main.c] Calling C++ constructors.\r\n");
  _do_ctors ();
 800ba68:	800ccc00 	call	800ccc0 <_do_ctors>
   * redefined as _exit()). This is in the interest of reducing code footprint,
   * in that the atexit() overhead is removed when it's not needed.
   */

  ALT_LOG_PRINT_BOOT("[alt_main.c] Calling atexit.\r\n");
  atexit (_do_dtors);
 800ba6c:	01020074 	movhi	r4,2049
 800ba70:	21334804 	addi	r4,r4,-13024
 800ba74:	800d91c0 	call	800d91c <atexit>
  ALT_LOG_PRINT_BOOT("[alt_main.c] Calling main.\r\n");

#ifdef ALT_NO_EXIT
  main (alt_argc, alt_argv, alt_envp);
#else
  result = main (alt_argc, alt_argv, alt_envp);
 800ba78:	d0a82317 	ldw	r2,-24436(gp)
 800ba7c:	d0e82417 	ldw	r3,-24432(gp)
 800ba80:	d1282517 	ldw	r4,-24428(gp)
 800ba84:	200d883a 	mov	r6,r4
 800ba88:	180b883a 	mov	r5,r3
 800ba8c:	1009883a 	mov	r4,r2
 800ba90:	80002600 	call	8000260 <main>
 800ba94:	e0bfff15 	stw	r2,-4(fp)
  close(STDOUT_FILENO);
 800ba98:	01000044 	movi	r4,1
 800ba9c:	800cab80 	call	800cab8 <close>
  exit (result);
 800baa0:	e13fff17 	ldw	r4,-4(fp)
 800baa4:	800d9300 	call	800d930 <exit>

0800baa8 <__malloc_lock>:
 * configuration is single threaded, so there is nothing to do here. Note that 
 * this requires that malloc is never called by an interrupt service routine.
 */

void __malloc_lock ( struct _reent *_r )
{
 800baa8:	defffe04 	addi	sp,sp,-8
 800baac:	df000115 	stw	fp,4(sp)
 800bab0:	df000104 	addi	fp,sp,4
 800bab4:	e13fff15 	stw	r4,-4(fp)
}
 800bab8:	0001883a 	nop
 800babc:	e037883a 	mov	sp,fp
 800bac0:	df000017 	ldw	fp,0(sp)
 800bac4:	dec00104 	addi	sp,sp,4
 800bac8:	f800283a 	ret

0800bacc <__malloc_unlock>:
/*
 *
 */

void __malloc_unlock ( struct _reent *_r )
{
 800bacc:	defffe04 	addi	sp,sp,-8
 800bad0:	df000115 	stw	fp,4(sp)
 800bad4:	df000104 	addi	fp,sp,4
 800bad8:	e13fff15 	stw	r4,-4(fp)
}
 800badc:	0001883a 	nop
 800bae0:	e037883a 	mov	sp,fp
 800bae4:	df000017 	ldw	fp,0(sp)
 800bae8:	dec00104 	addi	sp,sp,4
 800baec:	f800283a 	ret

0800baf0 <sbrk>:
#endif
 
caddr_t ALT_SBRK (int incr) __attribute__ ((no_instrument_function ));

caddr_t ALT_SBRK (int incr)
{ 
 800baf0:	defff904 	addi	sp,sp,-28
 800baf4:	df000615 	stw	fp,24(sp)
 800baf8:	df000604 	addi	fp,sp,24
 800bafc:	e13ffa15 	stw	r4,-24(fp)
  NIOS2_READ_STATUS (context);
 800bb00:	0005303a 	rdctl	r2,status
 800bb04:	e0bffd15 	stw	r2,-12(fp)
  NIOS2_WRITE_STATUS (context & ~NIOS2_STATUS_PIE_MSK);
 800bb08:	e0fffd17 	ldw	r3,-12(fp)
 800bb0c:	00bfff84 	movi	r2,-2
 800bb10:	1884703a 	and	r2,r3,r2
 800bb14:	1001703a 	wrctl	status,r2
  return context;
 800bb18:	e0bffd17 	ldw	r2,-12(fp)
  alt_irq_context context;
  char *prev_heap_end; 

  context = alt_irq_disable_all();
 800bb1c:	e0bfff15 	stw	r2,-4(fp)

  /* Always return data aligned on a word boundary */
  heap_end = (char *)(((unsigned int)heap_end + 3) & ~3);
 800bb20:	d0a00717 	ldw	r2,-32740(gp)
 800bb24:	10c000c4 	addi	r3,r2,3
 800bb28:	00bfff04 	movi	r2,-4
 800bb2c:	1884703a 	and	r2,r3,r2
 800bb30:	d0a00715 	stw	r2,-32740(gp)
  if (((heap_end + incr) - __alt_heap_start) > ALT_MAX_HEAP_BYTES) {
    alt_irq_enable_all(context);
    return (caddr_t)-1;
  }
#else
  if ((heap_end + incr) > __alt_heap_limit) {
 800bb34:	d0e00717 	ldw	r3,-32740(gp)
 800bb38:	e0bffa17 	ldw	r2,-24(fp)
 800bb3c:	1887883a 	add	r3,r3,r2
 800bb40:	00830034 	movhi	r2,3072
 800bb44:	10800004 	addi	r2,r2,0
 800bb48:	10c0062e 	bgeu	r2,r3,800bb64 <sbrk+0x74>
 800bb4c:	e0bfff17 	ldw	r2,-4(fp)
 800bb50:	e0bffc15 	stw	r2,-16(fp)
  NIOS2_WRITE_STATUS (context);
 800bb54:	e0bffc17 	ldw	r2,-16(fp)
 800bb58:	1001703a 	wrctl	status,r2
    alt_irq_enable_all(context);
    return (caddr_t)-1;
 800bb5c:	00bfffc4 	movi	r2,-1
 800bb60:	00000b06 	br	800bb90 <sbrk+0xa0>
  }
#endif

  prev_heap_end = heap_end; 
 800bb64:	d0a00717 	ldw	r2,-32740(gp)
 800bb68:	e0bffe15 	stw	r2,-8(fp)
  heap_end += incr; 
 800bb6c:	d0e00717 	ldw	r3,-32740(gp)
 800bb70:	e0bffa17 	ldw	r2,-24(fp)
 800bb74:	1885883a 	add	r2,r3,r2
 800bb78:	d0a00715 	stw	r2,-32740(gp)
 800bb7c:	e0bfff17 	ldw	r2,-4(fp)
 800bb80:	e0bffb15 	stw	r2,-20(fp)
 800bb84:	e0bffb17 	ldw	r2,-20(fp)
 800bb88:	1001703a 	wrctl	status,r2

#endif

  alt_irq_enable_all(context);

  return (caddr_t) prev_heap_end; 
 800bb8c:	e0bffe17 	ldw	r2,-8(fp)
} 
 800bb90:	e037883a 	mov	sp,fp
 800bb94:	df000017 	ldw	fp,0(sp)
 800bb98:	dec00104 	addi	sp,sp,4
 800bb9c:	f800283a 	ret

0800bba0 <usleep>:
#if defined (__GNUC__) && __GNUC__ >= 4
int ALT_USLEEP (useconds_t us)
#else
unsigned int ALT_USLEEP (unsigned int us)
#endif
{
 800bba0:	defffd04 	addi	sp,sp,-12
 800bba4:	dfc00215 	stw	ra,8(sp)
 800bba8:	df000115 	stw	fp,4(sp)
 800bbac:	df000104 	addi	fp,sp,4
 800bbb0:	e13fff15 	stw	r4,-4(fp)
  return alt_busy_sleep(us);
 800bbb4:	e13fff17 	ldw	r4,-4(fp)
 800bbb8:	800c9240 	call	800c924 <alt_busy_sleep>
}
 800bbbc:	e037883a 	mov	sp,fp
 800bbc0:	dfc00117 	ldw	ra,4(sp)
 800bbc4:	df000017 	ldw	fp,0(sp)
 800bbc8:	dec00204 	addi	sp,sp,8
 800bbcc:	f800283a 	ret

0800bbd0 <alt_dev_reg>:
 */

extern int alt_fs_reg  (alt_dev* dev); 

static ALT_INLINE int alt_dev_reg (alt_dev* dev)
{
 800bbd0:	defffd04 	addi	sp,sp,-12
 800bbd4:	dfc00215 	stw	ra,8(sp)
 800bbd8:	df000115 	stw	fp,4(sp)
 800bbdc:	df000104 	addi	fp,sp,4
 800bbe0:	e13fff15 	stw	r4,-4(fp)
  extern alt_llist alt_dev_list;

  return alt_dev_llist_insert ((alt_dev_llist*) dev, &alt_dev_list);
 800bbe4:	d1600a04 	addi	r5,gp,-32728
 800bbe8:	e13fff17 	ldw	r4,-4(fp)
 800bbec:	800cc1c0 	call	800cc1c <alt_dev_llist_insert>
}
 800bbf0:	e037883a 	mov	sp,fp
 800bbf4:	dfc00117 	ldw	ra,4(sp)
 800bbf8:	df000017 	ldw	fp,0(sp)
 800bbfc:	dec00204 	addi	sp,sp,8
 800bc00:	f800283a 	ret

0800bc04 <alt_irq_init>:
 * The "base" parameter is ignored and only
 * present for backwards-compatibility.
 */

void alt_irq_init ( const void* base )
{
 800bc04:	defffd04 	addi	sp,sp,-12
 800bc08:	dfc00215 	stw	ra,8(sp)
 800bc0c:	df000115 	stw	fp,4(sp)
 800bc10:	df000104 	addi	fp,sp,4
 800bc14:	e13fff15 	stw	r4,-4(fp)
    ALTERA_NIOS2_GEN2_IRQ_INIT ( NIOS2_GEN2_0, nios2_gen2_0);
 800bc18:	800d6100 	call	800d610 <altera_nios2_gen2_irq_init>
    NIOS2_WRITE_STATUS(NIOS2_STATUS_PIE_MSK
 800bc1c:	00800044 	movi	r2,1
 800bc20:	1001703a 	wrctl	status,r2
    alt_irq_cpu_enable_interrupts();
}
 800bc24:	0001883a 	nop
 800bc28:	e037883a 	mov	sp,fp
 800bc2c:	dfc00117 	ldw	ra,4(sp)
 800bc30:	df000017 	ldw	fp,0(sp)
 800bc34:	dec00204 	addi	sp,sp,8
 800bc38:	f800283a 	ret

0800bc3c <alt_sys_init>:
 * Initialize the non-interrupt controller devices.
 * Called after alt_irq_init().
 */

void alt_sys_init( void )
{
 800bc3c:	defffe04 	addi	sp,sp,-8
 800bc40:	dfc00115 	stw	ra,4(sp)
 800bc44:	df000015 	stw	fp,0(sp)
 800bc48:	d839883a 	mov	fp,sp
    ALTERA_AVALON_TIMER_INIT ( TIMER_0, timer_0);
 800bc4c:	01c0fa04 	movi	r7,1000
 800bc50:	01800084 	movi	r6,2
 800bc54:	000b883a 	mov	r5,zero
 800bc58:	01003004 	movi	r4,192
 800bc5c:	800c77c0 	call	800c77c <alt_avalon_timer_sc_init>
    ALTERA_AVALON_JTAG_UART_INIT ( JTAG_UART_0, jtag_uart_0);
 800bc60:	01800044 	movi	r6,1
 800bc64:	000b883a 	mov	r5,zero
 800bc68:	01020074 	movhi	r4,2049
 800bc6c:	213bec04 	addi	r4,r4,-4176
 800bc70:	800be040 	call	800be04 <altera_avalon_jtag_uart_init>
 800bc74:	01020074 	movhi	r4,2049
 800bc78:	213be204 	addi	r4,r4,-4216
 800bc7c:	800bbd00 	call	800bbd0 <alt_dev_reg>
    ALTERA_AVALON_SPI_INIT ( SPI_0, spi_0);
 800bc80:	0001883a 	nop
    ALTERA_AVALON_SYSID_QSYS_INIT ( SYSID_QSYS_0, sysid_qsys_0);
 800bc84:	0001883a 	nop
}
 800bc88:	0001883a 	nop
 800bc8c:	e037883a 	mov	sp,fp
 800bc90:	dfc00117 	ldw	ra,4(sp)
 800bc94:	df000017 	ldw	fp,0(sp)
 800bc98:	dec00204 	addi	sp,sp,8
 800bc9c:	f800283a 	ret

0800bca0 <altera_avalon_jtag_uart_read_fd>:
 *
 */

int 
altera_avalon_jtag_uart_read_fd(alt_fd* fd, char* buffer, int space)
{
 800bca0:	defffa04 	addi	sp,sp,-24
 800bca4:	dfc00515 	stw	ra,20(sp)
 800bca8:	df000415 	stw	fp,16(sp)
 800bcac:	df000404 	addi	fp,sp,16
 800bcb0:	e13ffe15 	stw	r4,-8(fp)
 800bcb4:	e17ffd15 	stw	r5,-12(fp)
 800bcb8:	e1bffc15 	stw	r6,-16(fp)
    altera_avalon_jtag_uart_dev* dev = (altera_avalon_jtag_uart_dev*) fd->dev; 
 800bcbc:	e0bffe17 	ldw	r2,-8(fp)
 800bcc0:	10800017 	ldw	r2,0(r2)
 800bcc4:	e0bfff15 	stw	r2,-4(fp)

    return altera_avalon_jtag_uart_read(&dev->state, buffer, space,
 800bcc8:	e0bfff17 	ldw	r2,-4(fp)
 800bccc:	10c00a04 	addi	r3,r2,40
 800bcd0:	e0bffe17 	ldw	r2,-8(fp)
 800bcd4:	10800217 	ldw	r2,8(r2)
 800bcd8:	100f883a 	mov	r7,r2
 800bcdc:	e1bffc17 	ldw	r6,-16(fp)
 800bce0:	e17ffd17 	ldw	r5,-12(fp)
 800bce4:	1809883a 	mov	r4,r3
 800bce8:	800c2c40 	call	800c2c4 <altera_avalon_jtag_uart_read>
      fd->fd_flags);
}
 800bcec:	e037883a 	mov	sp,fp
 800bcf0:	dfc00117 	ldw	ra,4(sp)
 800bcf4:	df000017 	ldw	fp,0(sp)
 800bcf8:	dec00204 	addi	sp,sp,8
 800bcfc:	f800283a 	ret

0800bd00 <altera_avalon_jtag_uart_write_fd>:

int 
altera_avalon_jtag_uart_write_fd(alt_fd* fd, const char* buffer, int space)
{
 800bd00:	defffa04 	addi	sp,sp,-24
 800bd04:	dfc00515 	stw	ra,20(sp)
 800bd08:	df000415 	stw	fp,16(sp)
 800bd0c:	df000404 	addi	fp,sp,16
 800bd10:	e13ffe15 	stw	r4,-8(fp)
 800bd14:	e17ffd15 	stw	r5,-12(fp)
 800bd18:	e1bffc15 	stw	r6,-16(fp)
    altera_avalon_jtag_uart_dev* dev = (altera_avalon_jtag_uart_dev*) fd->dev; 
 800bd1c:	e0bffe17 	ldw	r2,-8(fp)
 800bd20:	10800017 	ldw	r2,0(r2)
 800bd24:	e0bfff15 	stw	r2,-4(fp)

    return altera_avalon_jtag_uart_write(&dev->state, buffer, space,
 800bd28:	e0bfff17 	ldw	r2,-4(fp)
 800bd2c:	10c00a04 	addi	r3,r2,40
 800bd30:	e0bffe17 	ldw	r2,-8(fp)
 800bd34:	10800217 	ldw	r2,8(r2)
 800bd38:	100f883a 	mov	r7,r2
 800bd3c:	e1bffc17 	ldw	r6,-16(fp)
 800bd40:	e17ffd17 	ldw	r5,-12(fp)
 800bd44:	1809883a 	mov	r4,r3
 800bd48:	800c4e00 	call	800c4e0 <altera_avalon_jtag_uart_write>
      fd->fd_flags);
}
 800bd4c:	e037883a 	mov	sp,fp
 800bd50:	dfc00117 	ldw	ra,4(sp)
 800bd54:	df000017 	ldw	fp,0(sp)
 800bd58:	dec00204 	addi	sp,sp,8
 800bd5c:	f800283a 	ret

0800bd60 <altera_avalon_jtag_uart_close_fd>:

#ifndef ALTERA_AVALON_JTAG_UART_SMALL

int 
altera_avalon_jtag_uart_close_fd(alt_fd* fd)
{
 800bd60:	defffc04 	addi	sp,sp,-16
 800bd64:	dfc00315 	stw	ra,12(sp)
 800bd68:	df000215 	stw	fp,8(sp)
 800bd6c:	df000204 	addi	fp,sp,8
 800bd70:	e13ffe15 	stw	r4,-8(fp)
    altera_avalon_jtag_uart_dev* dev = (altera_avalon_jtag_uart_dev*) fd->dev; 
 800bd74:	e0bffe17 	ldw	r2,-8(fp)
 800bd78:	10800017 	ldw	r2,0(r2)
 800bd7c:	e0bfff15 	stw	r2,-4(fp)

    return altera_avalon_jtag_uart_close(&dev->state, fd->fd_flags);
 800bd80:	e0bfff17 	ldw	r2,-4(fp)
 800bd84:	10c00a04 	addi	r3,r2,40
 800bd88:	e0bffe17 	ldw	r2,-8(fp)
 800bd8c:	10800217 	ldw	r2,8(r2)
 800bd90:	100b883a 	mov	r5,r2
 800bd94:	1809883a 	mov	r4,r3
 800bd98:	800c1680 	call	800c168 <altera_avalon_jtag_uart_close>
}
 800bd9c:	e037883a 	mov	sp,fp
 800bda0:	dfc00117 	ldw	ra,4(sp)
 800bda4:	df000017 	ldw	fp,0(sp)
 800bda8:	dec00204 	addi	sp,sp,8
 800bdac:	f800283a 	ret

0800bdb0 <altera_avalon_jtag_uart_ioctl_fd>:

int 
altera_avalon_jtag_uart_ioctl_fd(alt_fd* fd, int req, void* arg)
{
 800bdb0:	defffa04 	addi	sp,sp,-24
 800bdb4:	dfc00515 	stw	ra,20(sp)
 800bdb8:	df000415 	stw	fp,16(sp)
 800bdbc:	df000404 	addi	fp,sp,16
 800bdc0:	e13ffe15 	stw	r4,-8(fp)
 800bdc4:	e17ffd15 	stw	r5,-12(fp)
 800bdc8:	e1bffc15 	stw	r6,-16(fp)
    altera_avalon_jtag_uart_dev* dev = (altera_avalon_jtag_uart_dev*) fd->dev;
 800bdcc:	e0bffe17 	ldw	r2,-8(fp)
 800bdd0:	10800017 	ldw	r2,0(r2)
 800bdd4:	e0bfff15 	stw	r2,-4(fp)

    return altera_avalon_jtag_uart_ioctl(&dev->state, req, arg);
 800bdd8:	e0bfff17 	ldw	r2,-4(fp)
 800bddc:	10800a04 	addi	r2,r2,40
 800bde0:	e1bffc17 	ldw	r6,-16(fp)
 800bde4:	e17ffd17 	ldw	r5,-12(fp)
 800bde8:	1009883a 	mov	r4,r2
 800bdec:	800c1d00 	call	800c1d0 <altera_avalon_jtag_uart_ioctl>
}
 800bdf0:	e037883a 	mov	sp,fp
 800bdf4:	dfc00117 	ldw	ra,4(sp)
 800bdf8:	df000017 	ldw	fp,0(sp)
 800bdfc:	dec00204 	addi	sp,sp,8
 800be00:	f800283a 	ret

0800be04 <altera_avalon_jtag_uart_init>:
 * Return 1 on sucessful IRQ register and 0 on failure.
 */

void altera_avalon_jtag_uart_init(altera_avalon_jtag_uart_state* sp, 
                                  int irq_controller_id, int irq)
{
 800be04:	defffa04 	addi	sp,sp,-24
 800be08:	dfc00515 	stw	ra,20(sp)
 800be0c:	df000415 	stw	fp,16(sp)
 800be10:	df000404 	addi	fp,sp,16
 800be14:	e13fff15 	stw	r4,-4(fp)
 800be18:	e17ffe15 	stw	r5,-8(fp)
 800be1c:	e1bffd15 	stw	r6,-12(fp)
  ALT_FLAG_CREATE(&sp->events, 0);
  ALT_SEM_CREATE(&sp->read_lock, 1);
  ALT_SEM_CREATE(&sp->write_lock, 1);

  /* enable read interrupts at the device */
  sp->irq_enable = ALTERA_AVALON_JTAG_UART_CONTROL_RE_MSK;
 800be20:	e0bfff17 	ldw	r2,-4(fp)
 800be24:	00c00044 	movi	r3,1
 800be28:	10c00815 	stw	r3,32(r2)

  IOWR_ALTERA_AVALON_JTAG_UART_CONTROL(sp->base, sp->irq_enable); 
 800be2c:	e0bfff17 	ldw	r2,-4(fp)
 800be30:	10800017 	ldw	r2,0(r2)
 800be34:	10800104 	addi	r2,r2,4
 800be38:	1007883a 	mov	r3,r2
 800be3c:	e0bfff17 	ldw	r2,-4(fp)
 800be40:	10800817 	ldw	r2,32(r2)
 800be44:	18800035 	stwio	r2,0(r3)
  
  /* register the interrupt handler */
#ifdef ALT_ENHANCED_INTERRUPT_API_PRESENT
  alt_ic_isr_register(irq_controller_id, irq, altera_avalon_jtag_uart_irq, 
 800be48:	e0bffe17 	ldw	r2,-8(fp)
 800be4c:	e0fffd17 	ldw	r3,-12(fp)
 800be50:	d8000015 	stw	zero,0(sp)
 800be54:	e1ffff17 	ldw	r7,-4(fp)
 800be58:	01820074 	movhi	r6,2049
 800be5c:	31afb104 	addi	r6,r6,-16700
 800be60:	180b883a 	mov	r5,r3
 800be64:	1009883a 	mov	r4,r2
 800be68:	800cda00 	call	800cda0 <alt_ic_isr_register>
#else
  alt_irq_register(irq, sp, altera_avalon_jtag_uart_irq);
#endif  

  /* Register an alarm to go off every second to check for presence of host */
  sp->host_inactive = 0;
 800be6c:	e0bfff17 	ldw	r2,-4(fp)
 800be70:	10000915 	stw	zero,36(r2)

  if (alt_alarm_start(&sp->alarm, alt_ticks_per_second(), 
 800be74:	e0bfff17 	ldw	r2,-4(fp)
 800be78:	10800204 	addi	r2,r2,8
 * Obtain the system clock rate in ticks/s. 
 */

static ALT_INLINE alt_u32 ALT_ALWAYS_INLINE alt_ticks_per_second (void)
{
  return _alt_tick_rate;
 800be7c:	d0e82717 	ldw	r3,-24420(gp)
 800be80:	e1ffff17 	ldw	r7,-4(fp)
 800be84:	01820074 	movhi	r6,2049
 800be88:	31b03204 	addi	r6,r6,-16184
 800be8c:	180b883a 	mov	r5,r3
 800be90:	1009883a 	mov	r4,r2
 800be94:	800c7f80 	call	800c7f8 <alt_alarm_start>
 800be98:	1000040e 	bge	r2,zero,800beac <altera_avalon_jtag_uart_init+0xa8>
    &altera_avalon_jtag_uart_timeout, sp) < 0)
  {
    /* If we can't set the alarm then record "don't know if host present" 
     * and behave as though the host is present.
     */
    sp->timeout = INT_MAX;
 800be9c:	e0ffff17 	ldw	r3,-4(fp)
 800bea0:	00a00034 	movhi	r2,32768
 800bea4:	10bfffc4 	addi	r2,r2,-1
 800bea8:	18800115 	stw	r2,4(r3)
  }

  /* ALT_LOG - see altera_hal/HAL/inc/sys/alt_log_printf.h */ 
  ALT_LOG_JTAG_UART_ALARM_REGISTER(sp, sp->base);
}
 800beac:	0001883a 	nop
 800beb0:	e037883a 	mov	sp,fp
 800beb4:	dfc00117 	ldw	ra,4(sp)
 800beb8:	df000017 	ldw	fp,0(sp)
 800bebc:	dec00204 	addi	sp,sp,8
 800bec0:	f800283a 	ret

0800bec4 <altera_avalon_jtag_uart_irq>:
#ifdef ALT_ENHANCED_INTERRUPT_API_PRESENT
static void altera_avalon_jtag_uart_irq(void* context)
#else
static void altera_avalon_jtag_uart_irq(void* context, alt_u32 id)
#endif
{
 800bec4:	defff804 	addi	sp,sp,-32
 800bec8:	df000715 	stw	fp,28(sp)
 800becc:	df000704 	addi	fp,sp,28
 800bed0:	e13ff915 	stw	r4,-28(fp)
  altera_avalon_jtag_uart_state* sp = (altera_avalon_jtag_uart_state*) context;
 800bed4:	e0bff917 	ldw	r2,-28(fp)
 800bed8:	e0bffd15 	stw	r2,-12(fp)
  unsigned int base = sp->base;
 800bedc:	e0bffd17 	ldw	r2,-12(fp)
 800bee0:	10800017 	ldw	r2,0(r2)
 800bee4:	e0bffc15 	stw	r2,-16(fp)
  /* ALT_LOG - see altera_hal/HAL/inc/sys/alt_log_printf.h */ 
  ALT_LOG_JTAG_UART_ISR_FUNCTION(base, sp);

  for ( ; ; )
  {
    unsigned int control = IORD_ALTERA_AVALON_JTAG_UART_CONTROL(base);
 800bee8:	e0bffc17 	ldw	r2,-16(fp)
 800beec:	10800104 	addi	r2,r2,4
 800bef0:	10800037 	ldwio	r2,0(r2)
 800bef4:	e0bffb15 	stw	r2,-20(fp)

    /* Return once nothing more to do */
    if ((control & (ALTERA_AVALON_JTAG_UART_CONTROL_RI_MSK | ALTERA_AVALON_JTAG_UART_CONTROL_WI_MSK)) == 0)
 800bef8:	e0bffb17 	ldw	r2,-20(fp)
 800befc:	1080c00c 	andi	r2,r2,768
 800bf00:	10006b26 	beq	r2,zero,800c0b0 <altera_avalon_jtag_uart_irq+0x1ec>
      break;

    if (control & ALTERA_AVALON_JTAG_UART_CONTROL_RI_MSK)
 800bf04:	e0bffb17 	ldw	r2,-20(fp)
 800bf08:	1080400c 	andi	r2,r2,256
 800bf0c:	10003426 	beq	r2,zero,800bfe0 <altera_avalon_jtag_uart_irq+0x11c>
    {
      /* process a read irq.  Start by assuming that there is data in the
       * receive FIFO (otherwise why would we have been interrupted?)
       */
      unsigned int data = 1 << ALTERA_AVALON_JTAG_UART_DATA_RAVAIL_OFST;
 800bf10:	00800074 	movhi	r2,1
 800bf14:	e0bfff15 	stw	r2,-4(fp)
      for ( ; ; )
      {
        /* Check whether there is space in the buffer.  If not then we must not
         * read any characters from the buffer as they will be lost.
         */
        unsigned int next = (sp->rx_in + 1) % ALTERA_AVALON_JTAG_UART_BUF_LEN;
 800bf18:	e0bffd17 	ldw	r2,-12(fp)
 800bf1c:	10800a17 	ldw	r2,40(r2)
 800bf20:	10800044 	addi	r2,r2,1
 800bf24:	1081ffcc 	andi	r2,r2,2047
 800bf28:	e0bffa15 	stw	r2,-24(fp)
        if (next == sp->rx_out)
 800bf2c:	e0bffd17 	ldw	r2,-12(fp)
 800bf30:	10800b17 	ldw	r2,44(r2)
 800bf34:	e0fffa17 	ldw	r3,-24(fp)
 800bf38:	18801426 	beq	r3,r2,800bf8c <altera_avalon_jtag_uart_irq+0xc8>
          break;

        /* Try to remove a character from the FIFO and find out whether there
         * are any more characters remaining.
         */
        data = IORD_ALTERA_AVALON_JTAG_UART_DATA(base);
 800bf3c:	e0bffc17 	ldw	r2,-16(fp)
 800bf40:	10800037 	ldwio	r2,0(r2)
 800bf44:	e0bfff15 	stw	r2,-4(fp)
        
        if ((data & ALTERA_AVALON_JTAG_UART_DATA_RVALID_MSK) == 0)
 800bf48:	e0bfff17 	ldw	r2,-4(fp)
 800bf4c:	10a0000c 	andi	r2,r2,32768
 800bf50:	10001026 	beq	r2,zero,800bf94 <altera_avalon_jtag_uart_irq+0xd0>
          break;

        sp->rx_buf[sp->rx_in] = (data & ALTERA_AVALON_JTAG_UART_DATA_DATA_MSK) >> ALTERA_AVALON_JTAG_UART_DATA_DATA_OFST;
 800bf54:	e0bffd17 	ldw	r2,-12(fp)
 800bf58:	10800a17 	ldw	r2,40(r2)
 800bf5c:	e0ffff17 	ldw	r3,-4(fp)
 800bf60:	1809883a 	mov	r4,r3
 800bf64:	e0fffd17 	ldw	r3,-12(fp)
 800bf68:	1885883a 	add	r2,r3,r2
 800bf6c:	11000e05 	stb	r4,56(r2)
        sp->rx_in = (sp->rx_in + 1) % ALTERA_AVALON_JTAG_UART_BUF_LEN;
 800bf70:	e0bffd17 	ldw	r2,-12(fp)
 800bf74:	10800a17 	ldw	r2,40(r2)
 800bf78:	10800044 	addi	r2,r2,1
 800bf7c:	10c1ffcc 	andi	r3,r2,2047
 800bf80:	e0bffd17 	ldw	r2,-12(fp)
 800bf84:	10c00a15 	stw	r3,40(r2)
      {
 800bf88:	003fe306 	br	800bf18 <altera_avalon_jtag_uart_irq+0x54>
          break;
 800bf8c:	0001883a 	nop
 800bf90:	00000106 	br	800bf98 <altera_avalon_jtag_uart_irq+0xd4>
          break;
 800bf94:	0001883a 	nop

        /* Post an event to notify jtag_uart_read that a character has been read */
        ALT_FLAG_POST (sp->events, ALT_JTAG_UART_READ_RDY, OS_FLAG_SET);
      }

      if (data & ALTERA_AVALON_JTAG_UART_DATA_RAVAIL_MSK)
 800bf98:	e0bfff17 	ldw	r2,-4(fp)
 800bf9c:	10bfffec 	andhi	r2,r2,65535
 800bfa0:	10000f26 	beq	r2,zero,800bfe0 <altera_avalon_jtag_uart_irq+0x11c>
      {
        /* If there is still data available here then the buffer is full 
         * so turn off receive interrupts until some space becomes available.
         */
        sp->irq_enable &= ~ALTERA_AVALON_JTAG_UART_CONTROL_RE_MSK;
 800bfa4:	e0bffd17 	ldw	r2,-12(fp)
 800bfa8:	10c00817 	ldw	r3,32(r2)
 800bfac:	00bfff84 	movi	r2,-2
 800bfb0:	1886703a 	and	r3,r3,r2
 800bfb4:	e0bffd17 	ldw	r2,-12(fp)
 800bfb8:	10c00815 	stw	r3,32(r2)
        IOWR_ALTERA_AVALON_JTAG_UART_CONTROL(base, sp->irq_enable);
 800bfbc:	e0bffc17 	ldw	r2,-16(fp)
 800bfc0:	10800104 	addi	r2,r2,4
 800bfc4:	1007883a 	mov	r3,r2
 800bfc8:	e0bffd17 	ldw	r2,-12(fp)
 800bfcc:	10800817 	ldw	r2,32(r2)
 800bfd0:	18800035 	stwio	r2,0(r3)
        
        /* Dummy read to ensure IRQ is cleared prior to ISR completion */
        IORD_ALTERA_AVALON_JTAG_UART_CONTROL(base);
 800bfd4:	e0bffc17 	ldw	r2,-16(fp)
 800bfd8:	10800104 	addi	r2,r2,4
 800bfdc:	10800037 	ldwio	r2,0(r2)
      }
    }

    if (control & ALTERA_AVALON_JTAG_UART_CONTROL_WI_MSK)
 800bfe0:	e0bffb17 	ldw	r2,-20(fp)
 800bfe4:	1080800c 	andi	r2,r2,512
 800bfe8:	103fbf26 	beq	r2,zero,800bee8 <altera_avalon_jtag_uart_irq+0x24>
    {
      /* process a write irq */
      unsigned int space = (control & ALTERA_AVALON_JTAG_UART_CONTROL_WSPACE_MSK) >> ALTERA_AVALON_JTAG_UART_CONTROL_WSPACE_OFST;
 800bfec:	e0bffb17 	ldw	r2,-20(fp)
 800bff0:	1004d43a 	srli	r2,r2,16
 800bff4:	e0bffe15 	stw	r2,-8(fp)

      while (space > 0 && sp->tx_out != sp->tx_in)
 800bff8:	00001306 	br	800c048 <altera_avalon_jtag_uart_irq+0x184>
      {
        IOWR_ALTERA_AVALON_JTAG_UART_DATA(base, sp->tx_buf[sp->tx_out]);
 800bffc:	e0bffc17 	ldw	r2,-16(fp)
 800c000:	e0fffd17 	ldw	r3,-12(fp)
 800c004:	18c00d17 	ldw	r3,52(r3)
 800c008:	e13ffd17 	ldw	r4,-12(fp)
 800c00c:	20c7883a 	add	r3,r4,r3
 800c010:	18c20e03 	ldbu	r3,2104(r3)
 800c014:	18c03fcc 	andi	r3,r3,255
 800c018:	18c0201c 	xori	r3,r3,128
 800c01c:	18ffe004 	addi	r3,r3,-128
 800c020:	10c00035 	stwio	r3,0(r2)

        sp->tx_out = (sp->tx_out + 1) % ALTERA_AVALON_JTAG_UART_BUF_LEN;
 800c024:	e0bffd17 	ldw	r2,-12(fp)
 800c028:	10800d17 	ldw	r2,52(r2)
 800c02c:	10800044 	addi	r2,r2,1
 800c030:	10c1ffcc 	andi	r3,r2,2047
 800c034:	e0bffd17 	ldw	r2,-12(fp)
 800c038:	10c00d15 	stw	r3,52(r2)

        /* Post an event to notify jtag_uart_write that a character has been written */
        ALT_FLAG_POST (sp->events, ALT_JTAG_UART_WRITE_RDY, OS_FLAG_SET);

        space--;
 800c03c:	e0bffe17 	ldw	r2,-8(fp)
 800c040:	10bfffc4 	addi	r2,r2,-1
 800c044:	e0bffe15 	stw	r2,-8(fp)
      while (space > 0 && sp->tx_out != sp->tx_in)
 800c048:	e0bffe17 	ldw	r2,-8(fp)
 800c04c:	10000526 	beq	r2,zero,800c064 <altera_avalon_jtag_uart_irq+0x1a0>
 800c050:	e0bffd17 	ldw	r2,-12(fp)
 800c054:	10c00d17 	ldw	r3,52(r2)
 800c058:	e0bffd17 	ldw	r2,-12(fp)
 800c05c:	10800c17 	ldw	r2,48(r2)
 800c060:	18bfe61e 	bne	r3,r2,800bffc <altera_avalon_jtag_uart_irq+0x138>
      }

      if (space > 0)
 800c064:	e0bffe17 	ldw	r2,-8(fp)
 800c068:	103f9f26 	beq	r2,zero,800bee8 <altera_avalon_jtag_uart_irq+0x24>
      {
        /* If we don't have any more data available then turn off the TX interrupt */
        sp->irq_enable &= ~ALTERA_AVALON_JTAG_UART_CONTROL_WE_MSK;
 800c06c:	e0bffd17 	ldw	r2,-12(fp)
 800c070:	10c00817 	ldw	r3,32(r2)
 800c074:	00bfff44 	movi	r2,-3
 800c078:	1886703a 	and	r3,r3,r2
 800c07c:	e0bffd17 	ldw	r2,-12(fp)
 800c080:	10c00815 	stw	r3,32(r2)
        IOWR_ALTERA_AVALON_JTAG_UART_CONTROL(sp->base, sp->irq_enable);
 800c084:	e0bffd17 	ldw	r2,-12(fp)
 800c088:	10800017 	ldw	r2,0(r2)
 800c08c:	10800104 	addi	r2,r2,4
 800c090:	1007883a 	mov	r3,r2
 800c094:	e0bffd17 	ldw	r2,-12(fp)
 800c098:	10800817 	ldw	r2,32(r2)
 800c09c:	18800035 	stwio	r2,0(r3)
        
        /* Dummy read to ensure IRQ is cleared prior to ISR completion */
        IORD_ALTERA_AVALON_JTAG_UART_CONTROL(base);
 800c0a0:	e0bffc17 	ldw	r2,-16(fp)
 800c0a4:	10800104 	addi	r2,r2,4
 800c0a8:	10800037 	ldwio	r2,0(r2)
  {
 800c0ac:	003f8e06 	br	800bee8 <altera_avalon_jtag_uart_irq+0x24>
      break;
 800c0b0:	0001883a 	nop
      }
    }
  }
}
 800c0b4:	0001883a 	nop
 800c0b8:	e037883a 	mov	sp,fp
 800c0bc:	df000017 	ldw	fp,0(sp)
 800c0c0:	dec00104 	addi	sp,sp,4
 800c0c4:	f800283a 	ret

0800c0c8 <altera_avalon_jtag_uart_timeout>:
 * Timeout routine is called every second
 */

static alt_u32 
altera_avalon_jtag_uart_timeout(void* context) 
{
 800c0c8:	defffc04 	addi	sp,sp,-16
 800c0cc:	df000315 	stw	fp,12(sp)
 800c0d0:	df000304 	addi	fp,sp,12
 800c0d4:	e13ffd15 	stw	r4,-12(fp)
  altera_avalon_jtag_uart_state* sp = (altera_avalon_jtag_uart_state *) context;
 800c0d8:	e0bffd17 	ldw	r2,-12(fp)
 800c0dc:	e0bfff15 	stw	r2,-4(fp)

  unsigned int control = IORD_ALTERA_AVALON_JTAG_UART_CONTROL(sp->base);
 800c0e0:	e0bfff17 	ldw	r2,-4(fp)
 800c0e4:	10800017 	ldw	r2,0(r2)
 800c0e8:	10800104 	addi	r2,r2,4
 800c0ec:	10800037 	ldwio	r2,0(r2)
 800c0f0:	e0bffe15 	stw	r2,-8(fp)

  if (control & ALTERA_AVALON_JTAG_UART_CONTROL_AC_MSK)
 800c0f4:	e0bffe17 	ldw	r2,-8(fp)
 800c0f8:	1081000c 	andi	r2,r2,1024
 800c0fc:	10000b26 	beq	r2,zero,800c12c <altera_avalon_jtag_uart_timeout+0x64>
  {
    IOWR_ALTERA_AVALON_JTAG_UART_CONTROL(sp->base, sp->irq_enable | ALTERA_AVALON_JTAG_UART_CONTROL_AC_MSK);
 800c100:	e0bfff17 	ldw	r2,-4(fp)
 800c104:	10800017 	ldw	r2,0(r2)
 800c108:	10800104 	addi	r2,r2,4
 800c10c:	1007883a 	mov	r3,r2
 800c110:	e0bfff17 	ldw	r2,-4(fp)
 800c114:	10800817 	ldw	r2,32(r2)
 800c118:	10810014 	ori	r2,r2,1024
 800c11c:	18800035 	stwio	r2,0(r3)
    sp->host_inactive = 0;
 800c120:	e0bfff17 	ldw	r2,-4(fp)
 800c124:	10000915 	stw	zero,36(r2)
 800c128:	00000a06 	br	800c154 <altera_avalon_jtag_uart_timeout+0x8c>
  }
  else if (sp->host_inactive < INT_MAX - 2) {
 800c12c:	e0bfff17 	ldw	r2,-4(fp)
 800c130:	10c00917 	ldw	r3,36(r2)
 800c134:	00a00034 	movhi	r2,32768
 800c138:	10bfff04 	addi	r2,r2,-4
 800c13c:	10c00536 	bltu	r2,r3,800c154 <altera_avalon_jtag_uart_timeout+0x8c>
    sp->host_inactive++;
 800c140:	e0bfff17 	ldw	r2,-4(fp)
 800c144:	10800917 	ldw	r2,36(r2)
 800c148:	10c00044 	addi	r3,r2,1
 800c14c:	e0bfff17 	ldw	r2,-4(fp)
 800c150:	10c00915 	stw	r3,36(r2)
 800c154:	d0a82717 	ldw	r2,-24420(gp)
      ALT_FLAG_POST (sp->events, ALT_JTAG_UART_TIMEOUT, OS_FLAG_SET);
    }
  }

  return alt_ticks_per_second();
}
 800c158:	e037883a 	mov	sp,fp
 800c15c:	df000017 	ldw	fp,0(sp)
 800c160:	dec00104 	addi	sp,sp,4
 800c164:	f800283a 	ret

0800c168 <altera_avalon_jtag_uart_close>:
 * The close routine is not implemented for the small driver; instead it will
 * map to null. This is because the small driver simply waits while characters
 * are transmitted; there is no interrupt-serviced buffer to empty 
 */
int altera_avalon_jtag_uart_close(altera_avalon_jtag_uart_state* sp, int flags)
{
 800c168:	defffd04 	addi	sp,sp,-12
 800c16c:	df000215 	stw	fp,8(sp)
 800c170:	df000204 	addi	fp,sp,8
 800c174:	e13fff15 	stw	r4,-4(fp)
 800c178:	e17ffe15 	stw	r5,-8(fp)
  /* 
   * Wait for all transmit data to be emptied by the JTAG UART ISR, or
   * for a host-inactivity timeout, in which case transmit data will be lost
   */
  while ( (sp->tx_out != sp->tx_in) && (sp->host_inactive < sp->timeout) ) {
 800c17c:	00000506 	br	800c194 <altera_avalon_jtag_uart_close+0x2c>
    if (flags & O_NONBLOCK) {
 800c180:	e0bffe17 	ldw	r2,-8(fp)
 800c184:	1090000c 	andi	r2,r2,16384
 800c188:	10000226 	beq	r2,zero,800c194 <altera_avalon_jtag_uart_close+0x2c>
      return -EWOULDBLOCK; 
 800c18c:	00bffd44 	movi	r2,-11
 800c190:	00000b06 	br	800c1c0 <altera_avalon_jtag_uart_close+0x58>
  while ( (sp->tx_out != sp->tx_in) && (sp->host_inactive < sp->timeout) ) {
 800c194:	e0bfff17 	ldw	r2,-4(fp)
 800c198:	10c00d17 	ldw	r3,52(r2)
 800c19c:	e0bfff17 	ldw	r2,-4(fp)
 800c1a0:	10800c17 	ldw	r2,48(r2)
 800c1a4:	18800526 	beq	r3,r2,800c1bc <altera_avalon_jtag_uart_close+0x54>
 800c1a8:	e0bfff17 	ldw	r2,-4(fp)
 800c1ac:	10c00917 	ldw	r3,36(r2)
 800c1b0:	e0bfff17 	ldw	r2,-4(fp)
 800c1b4:	10800117 	ldw	r2,4(r2)
 800c1b8:	18bff136 	bltu	r3,r2,800c180 <altera_avalon_jtag_uart_close+0x18>
    }
  }

  return 0;
 800c1bc:	0005883a 	mov	r2,zero
}
 800c1c0:	e037883a 	mov	sp,fp
 800c1c4:	df000017 	ldw	fp,0(sp)
 800c1c8:	dec00104 	addi	sp,sp,4
 800c1cc:	f800283a 	ret

0800c1d0 <altera_avalon_jtag_uart_ioctl>:
/* ----------------------------------------------------------- */

int 
altera_avalon_jtag_uart_ioctl(altera_avalon_jtag_uart_state* sp, int req,
  void* arg)
{
 800c1d0:	defffa04 	addi	sp,sp,-24
 800c1d4:	df000515 	stw	fp,20(sp)
 800c1d8:	df000504 	addi	fp,sp,20
 800c1dc:	e13ffd15 	stw	r4,-12(fp)
 800c1e0:	e17ffc15 	stw	r5,-16(fp)
 800c1e4:	e1bffb15 	stw	r6,-20(fp)
  int rc = -ENOTTY;
 800c1e8:	00bff9c4 	movi	r2,-25
 800c1ec:	e0bfff15 	stw	r2,-4(fp)

  switch (req)
 800c1f0:	e0bffc17 	ldw	r2,-16(fp)
 800c1f4:	109a8060 	cmpeqi	r2,r2,27137
 800c1f8:	1000041e 	bne	r2,zero,800c20c <altera_avalon_jtag_uart_ioctl+0x3c>
 800c1fc:	e0bffc17 	ldw	r2,-16(fp)
 800c200:	109a80a0 	cmpeqi	r2,r2,27138
 800c204:	1000181e 	bne	r2,zero,800c268 <altera_avalon_jtag_uart_ioctl+0x98>
      rc = 0;
    }
    break;

  default:
    break;
 800c208:	00002906 	br	800c2b0 <altera_avalon_jtag_uart_ioctl+0xe0>
    if (sp->timeout != INT_MAX)
 800c20c:	e0bffd17 	ldw	r2,-12(fp)
 800c210:	10c00117 	ldw	r3,4(r2)
 800c214:	00a00034 	movhi	r2,32768
 800c218:	10bfffc4 	addi	r2,r2,-1
 800c21c:	18802126 	beq	r3,r2,800c2a4 <altera_avalon_jtag_uart_ioctl+0xd4>
      int timeout = *((int *)arg);
 800c220:	e0bffb17 	ldw	r2,-20(fp)
 800c224:	10800017 	ldw	r2,0(r2)
 800c228:	e0bffe15 	stw	r2,-8(fp)
      sp->timeout = (timeout >= 2 && timeout < INT_MAX) ? timeout : INT_MAX - 1;
 800c22c:	e0bffe17 	ldw	r2,-8(fp)
 800c230:	10800090 	cmplti	r2,r2,2
 800c234:	1000061e 	bne	r2,zero,800c250 <altera_avalon_jtag_uart_ioctl+0x80>
 800c238:	e0fffe17 	ldw	r3,-8(fp)
 800c23c:	00a00034 	movhi	r2,32768
 800c240:	10bfffc4 	addi	r2,r2,-1
 800c244:	18800226 	beq	r3,r2,800c250 <altera_avalon_jtag_uart_ioctl+0x80>
 800c248:	e0bffe17 	ldw	r2,-8(fp)
 800c24c:	00000206 	br	800c258 <altera_avalon_jtag_uart_ioctl+0x88>
 800c250:	00a00034 	movhi	r2,32768
 800c254:	10bfff84 	addi	r2,r2,-2
 800c258:	e0fffd17 	ldw	r3,-12(fp)
 800c25c:	18800115 	stw	r2,4(r3)
      rc = 0;
 800c260:	e03fff15 	stw	zero,-4(fp)
    break;
 800c264:	00000f06 	br	800c2a4 <altera_avalon_jtag_uart_ioctl+0xd4>
    if (sp->timeout != INT_MAX)
 800c268:	e0bffd17 	ldw	r2,-12(fp)
 800c26c:	10c00117 	ldw	r3,4(r2)
 800c270:	00a00034 	movhi	r2,32768
 800c274:	10bfffc4 	addi	r2,r2,-1
 800c278:	18800c26 	beq	r3,r2,800c2ac <altera_avalon_jtag_uart_ioctl+0xdc>
      *((int *)arg) = (sp->host_inactive < sp->timeout) ? 1 : 0;
 800c27c:	e0bffd17 	ldw	r2,-12(fp)
 800c280:	10c00917 	ldw	r3,36(r2)
 800c284:	e0bffd17 	ldw	r2,-12(fp)
 800c288:	10800117 	ldw	r2,4(r2)
 800c28c:	1885803a 	cmpltu	r2,r3,r2
 800c290:	10c03fcc 	andi	r3,r2,255
 800c294:	e0bffb17 	ldw	r2,-20(fp)
 800c298:	10c00015 	stw	r3,0(r2)
      rc = 0;
 800c29c:	e03fff15 	stw	zero,-4(fp)
    break;
 800c2a0:	00000206 	br	800c2ac <altera_avalon_jtag_uart_ioctl+0xdc>
    break;
 800c2a4:	0001883a 	nop
 800c2a8:	00000106 	br	800c2b0 <altera_avalon_jtag_uart_ioctl+0xe0>
    break;
 800c2ac:	0001883a 	nop
  }

  return rc;
 800c2b0:	e0bfff17 	ldw	r2,-4(fp)
}
 800c2b4:	e037883a 	mov	sp,fp
 800c2b8:	df000017 	ldw	fp,0(sp)
 800c2bc:	dec00104 	addi	sp,sp,4
 800c2c0:	f800283a 	ret

0800c2c4 <altera_avalon_jtag_uart_read>:
/* ----------------------------------------------------------- */

int 
altera_avalon_jtag_uart_read(altera_avalon_jtag_uart_state* sp, 
  char * buffer, int space, int flags)
{
 800c2c4:	defff304 	addi	sp,sp,-52
 800c2c8:	dfc00c15 	stw	ra,48(sp)
 800c2cc:	df000b15 	stw	fp,44(sp)
 800c2d0:	df000b04 	addi	fp,sp,44
 800c2d4:	e13ff815 	stw	r4,-32(fp)
 800c2d8:	e17ff715 	stw	r5,-36(fp)
 800c2dc:	e1bff615 	stw	r6,-40(fp)
 800c2e0:	e1fff515 	stw	r7,-44(fp)
  char * ptr = buffer;
 800c2e4:	e0bff717 	ldw	r2,-36(fp)
 800c2e8:	e0bfff15 	stw	r2,-4(fp)
   * When running in a multi threaded environment, obtain the "read_lock"
   * semaphore. This ensures that reading from the device is thread-safe.
   */
  ALT_SEM_PEND (sp->read_lock, 0);

  while (space > 0)
 800c2ec:	00004706 	br	800c40c <altera_avalon_jtag_uart_read+0x148>
    unsigned int in, out;

    /* Read as much data as possible */
    do
    {
      in  = sp->rx_in;
 800c2f0:	e0bff817 	ldw	r2,-32(fp)
 800c2f4:	10800a17 	ldw	r2,40(r2)
 800c2f8:	e0bffd15 	stw	r2,-12(fp)
      out = sp->rx_out;
 800c2fc:	e0bff817 	ldw	r2,-32(fp)
 800c300:	10800b17 	ldw	r2,44(r2)
 800c304:	e0bffc15 	stw	r2,-16(fp)

      if (in >= out)
 800c308:	e0fffd17 	ldw	r3,-12(fp)
 800c30c:	e0bffc17 	ldw	r2,-16(fp)
 800c310:	18800536 	bltu	r3,r2,800c328 <altera_avalon_jtag_uart_read+0x64>
        n = in - out;
 800c314:	e0fffd17 	ldw	r3,-12(fp)
 800c318:	e0bffc17 	ldw	r2,-16(fp)
 800c31c:	1885c83a 	sub	r2,r3,r2
 800c320:	e0bffe15 	stw	r2,-8(fp)
 800c324:	00000406 	br	800c338 <altera_avalon_jtag_uart_read+0x74>
      else
        n = ALTERA_AVALON_JTAG_UART_BUF_LEN - out;
 800c328:	00c20004 	movi	r3,2048
 800c32c:	e0bffc17 	ldw	r2,-16(fp)
 800c330:	1885c83a 	sub	r2,r3,r2
 800c334:	e0bffe15 	stw	r2,-8(fp)

      if (n == 0)
 800c338:	e0bffe17 	ldw	r2,-8(fp)
 800c33c:	10001e26 	beq	r2,zero,800c3b8 <altera_avalon_jtag_uart_read+0xf4>
        break; /* No more data available */

      if (n > space)
 800c340:	e0fff617 	ldw	r3,-40(fp)
 800c344:	e0bffe17 	ldw	r2,-8(fp)
 800c348:	1880022e 	bgeu	r3,r2,800c354 <altera_avalon_jtag_uart_read+0x90>
        n = space;
 800c34c:	e0bff617 	ldw	r2,-40(fp)
 800c350:	e0bffe15 	stw	r2,-8(fp)

      memcpy(ptr, sp->rx_buf + out, n);
 800c354:	e0bff817 	ldw	r2,-32(fp)
 800c358:	10c00e04 	addi	r3,r2,56
 800c35c:	e0bffc17 	ldw	r2,-16(fp)
 800c360:	1885883a 	add	r2,r3,r2
 800c364:	e1bffe17 	ldw	r6,-8(fp)
 800c368:	100b883a 	mov	r5,r2
 800c36c:	e13fff17 	ldw	r4,-4(fp)
 800c370:	8004ff00 	call	8004ff0 <memcpy>
      ptr   += n;
 800c374:	e0ffff17 	ldw	r3,-4(fp)
 800c378:	e0bffe17 	ldw	r2,-8(fp)
 800c37c:	1885883a 	add	r2,r3,r2
 800c380:	e0bfff15 	stw	r2,-4(fp)
      space -= n;
 800c384:	e0fff617 	ldw	r3,-40(fp)
 800c388:	e0bffe17 	ldw	r2,-8(fp)
 800c38c:	1885c83a 	sub	r2,r3,r2
 800c390:	e0bff615 	stw	r2,-40(fp)

      sp->rx_out = (out + n) % ALTERA_AVALON_JTAG_UART_BUF_LEN;
 800c394:	e0fffc17 	ldw	r3,-16(fp)
 800c398:	e0bffe17 	ldw	r2,-8(fp)
 800c39c:	1885883a 	add	r2,r3,r2
 800c3a0:	10c1ffcc 	andi	r3,r2,2047
 800c3a4:	e0bff817 	ldw	r2,-32(fp)
 800c3a8:	10c00b15 	stw	r3,44(r2)
    }
    while (space > 0);
 800c3ac:	e0bff617 	ldw	r2,-40(fp)
 800c3b0:	00bfcf16 	blt	zero,r2,800c2f0 <altera_avalon_jtag_uart_read+0x2c>
 800c3b4:	00000106 	br	800c3bc <altera_avalon_jtag_uart_read+0xf8>
        break; /* No more data available */
 800c3b8:	0001883a 	nop

    /* If we read any data then return it */
    if (ptr != buffer)
 800c3bc:	e0ffff17 	ldw	r3,-4(fp)
 800c3c0:	e0bff717 	ldw	r2,-36(fp)
 800c3c4:	1880141e 	bne	r3,r2,800c418 <altera_avalon_jtag_uart_read+0x154>
      break;

    /* If in non-blocking mode then return error */
    if (flags & O_NONBLOCK)
 800c3c8:	e0bff517 	ldw	r2,-44(fp)
 800c3cc:	1090000c 	andi	r2,r2,16384
 800c3d0:	1000131e 	bne	r2,zero,800c420 <altera_avalon_jtag_uart_read+0x15c>
      while (in == sp->rx_in && sp->host_inactive < sp->timeout)
        ;
    }
#else
    /* No OS: Always spin */
    while (in == sp->rx_in && sp->host_inactive < sp->timeout)
 800c3d4:	0001883a 	nop
 800c3d8:	e0bff817 	ldw	r2,-32(fp)
 800c3dc:	10800a17 	ldw	r2,40(r2)
 800c3e0:	e0fffd17 	ldw	r3,-12(fp)
 800c3e4:	1880051e 	bne	r3,r2,800c3fc <altera_avalon_jtag_uart_read+0x138>
 800c3e8:	e0bff817 	ldw	r2,-32(fp)
 800c3ec:	10c00917 	ldw	r3,36(r2)
 800c3f0:	e0bff817 	ldw	r2,-32(fp)
 800c3f4:	10800117 	ldw	r2,4(r2)
 800c3f8:	18bff736 	bltu	r3,r2,800c3d8 <altera_avalon_jtag_uart_read+0x114>
      ;
#endif /* __ucosii__ */

    if (in == sp->rx_in)
 800c3fc:	e0bff817 	ldw	r2,-32(fp)
 800c400:	10800a17 	ldw	r2,40(r2)
 800c404:	e0fffd17 	ldw	r3,-12(fp)
 800c408:	18800726 	beq	r3,r2,800c428 <altera_avalon_jtag_uart_read+0x164>
  while (space > 0)
 800c40c:	e0bff617 	ldw	r2,-40(fp)
 800c410:	00bfb716 	blt	zero,r2,800c2f0 <altera_avalon_jtag_uart_read+0x2c>
 800c414:	00000506 	br	800c42c <altera_avalon_jtag_uart_read+0x168>
      break;
 800c418:	0001883a 	nop
 800c41c:	00000306 	br	800c42c <altera_avalon_jtag_uart_read+0x168>
      break;
 800c420:	0001883a 	nop
 800c424:	00000106 	br	800c42c <altera_avalon_jtag_uart_read+0x168>
      break;
 800c428:	0001883a 	nop
   * semaphore so that other threads can access the buffer.
   */

  ALT_SEM_POST (sp->read_lock);

  if (ptr != buffer)
 800c42c:	e0ffff17 	ldw	r3,-4(fp)
 800c430:	e0bff717 	ldw	r2,-36(fp)
 800c434:	18801826 	beq	r3,r2,800c498 <altera_avalon_jtag_uart_read+0x1d4>
  NIOS2_READ_STATUS (context);
 800c438:	0005303a 	rdctl	r2,status
 800c43c:	e0bff915 	stw	r2,-28(fp)
  NIOS2_WRITE_STATUS (context & ~NIOS2_STATUS_PIE_MSK);
 800c440:	e0fff917 	ldw	r3,-28(fp)
 800c444:	00bfff84 	movi	r2,-2
 800c448:	1884703a 	and	r2,r3,r2
 800c44c:	1001703a 	wrctl	status,r2
  return context;
 800c450:	e0bff917 	ldw	r2,-28(fp)
  {
    /* If we read any data then there is space in the buffer so enable interrupts */
    context = alt_irq_disable_all();
 800c454:	e0bffb15 	stw	r2,-20(fp)
    sp->irq_enable |= ALTERA_AVALON_JTAG_UART_CONTROL_RE_MSK;
 800c458:	e0bff817 	ldw	r2,-32(fp)
 800c45c:	10800817 	ldw	r2,32(r2)
 800c460:	10c00054 	ori	r3,r2,1
 800c464:	e0bff817 	ldw	r2,-32(fp)
 800c468:	10c00815 	stw	r3,32(r2)
    IOWR_ALTERA_AVALON_JTAG_UART_CONTROL(sp->base, sp->irq_enable);
 800c46c:	e0bff817 	ldw	r2,-32(fp)
 800c470:	10800017 	ldw	r2,0(r2)
 800c474:	10800104 	addi	r2,r2,4
 800c478:	1007883a 	mov	r3,r2
 800c47c:	e0bff817 	ldw	r2,-32(fp)
 800c480:	10800817 	ldw	r2,32(r2)
 800c484:	18800035 	stwio	r2,0(r3)
 800c488:	e0bffb17 	ldw	r2,-20(fp)
 800c48c:	e0bffa15 	stw	r2,-24(fp)
  NIOS2_WRITE_STATUS (context);
 800c490:	e0bffa17 	ldw	r2,-24(fp)
 800c494:	1001703a 	wrctl	status,r2
    alt_irq_enable_all(context);
  }

  if (ptr != buffer)
 800c498:	e0ffff17 	ldw	r3,-4(fp)
 800c49c:	e0bff717 	ldw	r2,-36(fp)
 800c4a0:	18800426 	beq	r3,r2,800c4b4 <altera_avalon_jtag_uart_read+0x1f0>
    return ptr - buffer;
 800c4a4:	e0ffff17 	ldw	r3,-4(fp)
 800c4a8:	e0bff717 	ldw	r2,-36(fp)
 800c4ac:	1885c83a 	sub	r2,r3,r2
 800c4b0:	00000606 	br	800c4cc <altera_avalon_jtag_uart_read+0x208>
  else if (flags & O_NONBLOCK)
 800c4b4:	e0bff517 	ldw	r2,-44(fp)
 800c4b8:	1090000c 	andi	r2,r2,16384
 800c4bc:	10000226 	beq	r2,zero,800c4c8 <altera_avalon_jtag_uart_read+0x204>
    return -EWOULDBLOCK;
 800c4c0:	00bffd44 	movi	r2,-11
 800c4c4:	00000106 	br	800c4cc <altera_avalon_jtag_uart_read+0x208>
  else
    return -EIO;
 800c4c8:	00bffec4 	movi	r2,-5
}
 800c4cc:	e037883a 	mov	sp,fp
 800c4d0:	dfc00117 	ldw	ra,4(sp)
 800c4d4:	df000017 	ldw	fp,0(sp)
 800c4d8:	dec00204 	addi	sp,sp,8
 800c4dc:	f800283a 	ret

0800c4e0 <altera_avalon_jtag_uart_write>:
/* ----------------------------------------------------------- */

int 
altera_avalon_jtag_uart_write(altera_avalon_jtag_uart_state* sp, 
  const char * ptr, int count, int flags)
{
 800c4e0:	defff304 	addi	sp,sp,-52
 800c4e4:	dfc00c15 	stw	ra,48(sp)
 800c4e8:	df000b15 	stw	fp,44(sp)
 800c4ec:	df000b04 	addi	fp,sp,44
 800c4f0:	e13ff815 	stw	r4,-32(fp)
 800c4f4:	e17ff715 	stw	r5,-36(fp)
 800c4f8:	e1bff615 	stw	r6,-40(fp)
 800c4fc:	e1fff515 	stw	r7,-44(fp)
  /* Remove warning at optimisation level 03 by seting out to 0 */
  unsigned int in, out=0;
 800c500:	e03fff15 	stw	zero,-4(fp)
  unsigned int n;
  alt_irq_context context;

  const char * start = ptr;
 800c504:	e0bff717 	ldw	r2,-36(fp)
 800c508:	e0bffd15 	stw	r2,-12(fp)
  ALT_SEM_PEND (sp->write_lock, 0);

  do
  {
    /* Copy as much as we can into the transmit buffer */
    while (count > 0)
 800c50c:	00003706 	br	800c5ec <altera_avalon_jtag_uart_write+0x10c>
    {
      /* We need a stable value of the out pointer to calculate the space available */
      in  = sp->tx_in;
 800c510:	e0bff817 	ldw	r2,-32(fp)
 800c514:	10800c17 	ldw	r2,48(r2)
 800c518:	e0bffc15 	stw	r2,-16(fp)
      out = sp->tx_out;
 800c51c:	e0bff817 	ldw	r2,-32(fp)
 800c520:	10800d17 	ldw	r2,52(r2)
 800c524:	e0bfff15 	stw	r2,-4(fp)

      if (in < out)
 800c528:	e0fffc17 	ldw	r3,-16(fp)
 800c52c:	e0bfff17 	ldw	r2,-4(fp)
 800c530:	1880062e 	bgeu	r3,r2,800c54c <altera_avalon_jtag_uart_write+0x6c>
        n = out - 1 - in;
 800c534:	e0ffff17 	ldw	r3,-4(fp)
 800c538:	e0bffc17 	ldw	r2,-16(fp)
 800c53c:	1885c83a 	sub	r2,r3,r2
 800c540:	10bfffc4 	addi	r2,r2,-1
 800c544:	e0bffe15 	stw	r2,-8(fp)
 800c548:	00000b06 	br	800c578 <altera_avalon_jtag_uart_write+0x98>
      else if (out > 0)
 800c54c:	e0bfff17 	ldw	r2,-4(fp)
 800c550:	10000526 	beq	r2,zero,800c568 <altera_avalon_jtag_uart_write+0x88>
        n = ALTERA_AVALON_JTAG_UART_BUF_LEN - in;
 800c554:	00c20004 	movi	r3,2048
 800c558:	e0bffc17 	ldw	r2,-16(fp)
 800c55c:	1885c83a 	sub	r2,r3,r2
 800c560:	e0bffe15 	stw	r2,-8(fp)
 800c564:	00000406 	br	800c578 <altera_avalon_jtag_uart_write+0x98>
      else
        n = ALTERA_AVALON_JTAG_UART_BUF_LEN - 1 - in;
 800c568:	00c1ffc4 	movi	r3,2047
 800c56c:	e0bffc17 	ldw	r2,-16(fp)
 800c570:	1885c83a 	sub	r2,r3,r2
 800c574:	e0bffe15 	stw	r2,-8(fp)

      if (n == 0)
 800c578:	e0bffe17 	ldw	r2,-8(fp)
 800c57c:	10001e26 	beq	r2,zero,800c5f8 <altera_avalon_jtag_uart_write+0x118>
        break;

      if (n > count)
 800c580:	e0fff617 	ldw	r3,-40(fp)
 800c584:	e0bffe17 	ldw	r2,-8(fp)
 800c588:	1880022e 	bgeu	r3,r2,800c594 <altera_avalon_jtag_uart_write+0xb4>
        n = count;
 800c58c:	e0bff617 	ldw	r2,-40(fp)
 800c590:	e0bffe15 	stw	r2,-8(fp)

      memcpy(sp->tx_buf + in, ptr, n);
 800c594:	e0bff817 	ldw	r2,-32(fp)
 800c598:	10c20e04 	addi	r3,r2,2104
 800c59c:	e0bffc17 	ldw	r2,-16(fp)
 800c5a0:	1885883a 	add	r2,r3,r2
 800c5a4:	e1bffe17 	ldw	r6,-8(fp)
 800c5a8:	e17ff717 	ldw	r5,-36(fp)
 800c5ac:	1009883a 	mov	r4,r2
 800c5b0:	8004ff00 	call	8004ff0 <memcpy>
      ptr   += n;
 800c5b4:	e0fff717 	ldw	r3,-36(fp)
 800c5b8:	e0bffe17 	ldw	r2,-8(fp)
 800c5bc:	1885883a 	add	r2,r3,r2
 800c5c0:	e0bff715 	stw	r2,-36(fp)
      count -= n;
 800c5c4:	e0fff617 	ldw	r3,-40(fp)
 800c5c8:	e0bffe17 	ldw	r2,-8(fp)
 800c5cc:	1885c83a 	sub	r2,r3,r2
 800c5d0:	e0bff615 	stw	r2,-40(fp)

      sp->tx_in = (in + n) % ALTERA_AVALON_JTAG_UART_BUF_LEN;
 800c5d4:	e0fffc17 	ldw	r3,-16(fp)
 800c5d8:	e0bffe17 	ldw	r2,-8(fp)
 800c5dc:	1885883a 	add	r2,r3,r2
 800c5e0:	10c1ffcc 	andi	r3,r2,2047
 800c5e4:	e0bff817 	ldw	r2,-32(fp)
 800c5e8:	10c00c15 	stw	r3,48(r2)
    while (count > 0)
 800c5ec:	e0bff617 	ldw	r2,-40(fp)
 800c5f0:	00bfc716 	blt	zero,r2,800c510 <altera_avalon_jtag_uart_write+0x30>
 800c5f4:	00000106 	br	800c5fc <altera_avalon_jtag_uart_write+0x11c>
        break;
 800c5f8:	0001883a 	nop
  NIOS2_READ_STATUS (context);
 800c5fc:	0005303a 	rdctl	r2,status
 800c600:	e0bff915 	stw	r2,-28(fp)
  NIOS2_WRITE_STATUS (context & ~NIOS2_STATUS_PIE_MSK);
 800c604:	e0fff917 	ldw	r3,-28(fp)
 800c608:	00bfff84 	movi	r2,-2
 800c60c:	1884703a 	and	r2,r3,r2
 800c610:	1001703a 	wrctl	status,r2
  return context;
 800c614:	e0bff917 	ldw	r2,-28(fp)
     * to enable interrupts if there is no space left in the FIFO
     *
     * For now kick the interrupt routine every time to make it transmit 
     * the data 
     */
    context = alt_irq_disable_all();
 800c618:	e0bffb15 	stw	r2,-20(fp)
    sp->irq_enable |= ALTERA_AVALON_JTAG_UART_CONTROL_WE_MSK;
 800c61c:	e0bff817 	ldw	r2,-32(fp)
 800c620:	10800817 	ldw	r2,32(r2)
 800c624:	10c00094 	ori	r3,r2,2
 800c628:	e0bff817 	ldw	r2,-32(fp)
 800c62c:	10c00815 	stw	r3,32(r2)
    IOWR_ALTERA_AVALON_JTAG_UART_CONTROL(sp->base, sp->irq_enable);
 800c630:	e0bff817 	ldw	r2,-32(fp)
 800c634:	10800017 	ldw	r2,0(r2)
 800c638:	10800104 	addi	r2,r2,4
 800c63c:	1007883a 	mov	r3,r2
 800c640:	e0bff817 	ldw	r2,-32(fp)
 800c644:	10800817 	ldw	r2,32(r2)
 800c648:	18800035 	stwio	r2,0(r3)
 800c64c:	e0bffb17 	ldw	r2,-20(fp)
 800c650:	e0bffa15 	stw	r2,-24(fp)
  NIOS2_WRITE_STATUS (context);
 800c654:	e0bffa17 	ldw	r2,-24(fp)
 800c658:	1001703a 	wrctl	status,r2
    /* 
     * If there is any data left then either return now or block until 
     * some has been sent 
     */
    /* consider: test whether there is anything there while doing this and delay for at most 2s. */
    if (count > 0)
 800c65c:	e0bff617 	ldw	r2,-40(fp)
 800c660:	0080100e 	bge	zero,r2,800c6a4 <altera_avalon_jtag_uart_write+0x1c4>
    {
      if (flags & O_NONBLOCK)
 800c664:	e0bff517 	ldw	r2,-44(fp)
 800c668:	1090000c 	andi	r2,r2,16384
 800c66c:	1000101e 	bne	r2,zero,800c6b0 <altera_avalon_jtag_uart_write+0x1d0>
      /*
       * No OS present: Always wait for data to be removed from buffer.  Once
       * the interrupt routine has removed some data then we will be able to
       * insert some more.
       */
      while (out == sp->tx_out && sp->host_inactive < sp->timeout)
 800c670:	0001883a 	nop
 800c674:	e0bff817 	ldw	r2,-32(fp)
 800c678:	10800d17 	ldw	r2,52(r2)
 800c67c:	e0ffff17 	ldw	r3,-4(fp)
 800c680:	1880051e 	bne	r3,r2,800c698 <altera_avalon_jtag_uart_write+0x1b8>
 800c684:	e0bff817 	ldw	r2,-32(fp)
 800c688:	10c00917 	ldw	r3,36(r2)
 800c68c:	e0bff817 	ldw	r2,-32(fp)
 800c690:	10800117 	ldw	r2,4(r2)
 800c694:	18bff736 	bltu	r3,r2,800c674 <altera_avalon_jtag_uart_write+0x194>
        ;
#endif /* __ucosii__ */

      if  (sp->host_inactive)
 800c698:	e0bff817 	ldw	r2,-32(fp)
 800c69c:	10800917 	ldw	r2,36(r2)
 800c6a0:	1000051e 	bne	r2,zero,800c6b8 <altera_avalon_jtag_uart_write+0x1d8>
         break;
    }
  }
  while (count > 0);
 800c6a4:	e0bff617 	ldw	r2,-40(fp)
 800c6a8:	00bfd016 	blt	zero,r2,800c5ec <altera_avalon_jtag_uart_write+0x10c>
 800c6ac:	00000306 	br	800c6bc <altera_avalon_jtag_uart_write+0x1dc>
        break;
 800c6b0:	0001883a 	nop
 800c6b4:	00000106 	br	800c6bc <altera_avalon_jtag_uart_write+0x1dc>
         break;
 800c6b8:	0001883a 	nop
   * Now that access to the circular buffer is complete, release the write
   * semaphore so that other threads can access the buffer.
   */
  ALT_SEM_POST (sp->write_lock);

  if (ptr != start)
 800c6bc:	e0fff717 	ldw	r3,-36(fp)
 800c6c0:	e0bffd17 	ldw	r2,-12(fp)
 800c6c4:	18800426 	beq	r3,r2,800c6d8 <altera_avalon_jtag_uart_write+0x1f8>
    return ptr - start;
 800c6c8:	e0fff717 	ldw	r3,-36(fp)
 800c6cc:	e0bffd17 	ldw	r2,-12(fp)
 800c6d0:	1885c83a 	sub	r2,r3,r2
 800c6d4:	00000606 	br	800c6f0 <altera_avalon_jtag_uart_write+0x210>
  else if (flags & O_NONBLOCK)
 800c6d8:	e0bff517 	ldw	r2,-44(fp)
 800c6dc:	1090000c 	andi	r2,r2,16384
 800c6e0:	10000226 	beq	r2,zero,800c6ec <altera_avalon_jtag_uart_write+0x20c>
    return -EWOULDBLOCK;
 800c6e4:	00bffd44 	movi	r2,-11
 800c6e8:	00000106 	br	800c6f0 <altera_avalon_jtag_uart_write+0x210>
    sp->tx_out = sp->tx_in = 0;
    return ptr - start + count;
  }
#endif
  else
    return -EIO; /* Host not connected */
 800c6ec:	00bffec4 	movi	r2,-5
}
 800c6f0:	e037883a 	mov	sp,fp
 800c6f4:	dfc00117 	ldw	ra,4(sp)
 800c6f8:	df000017 	ldw	fp,0(sp)
 800c6fc:	dec00204 	addi	sp,sp,8
 800c700:	f800283a 	ret

0800c704 <alt_avalon_timer_sc_irq>:
#ifdef ALT_ENHANCED_INTERRUPT_API_PRESENT
static void alt_avalon_timer_sc_irq (void* base)
#else
static void alt_avalon_timer_sc_irq (void* base, alt_u32 id)
#endif
{
 800c704:	defffa04 	addi	sp,sp,-24
 800c708:	dfc00515 	stw	ra,20(sp)
 800c70c:	df000415 	stw	fp,16(sp)
 800c710:	df000404 	addi	fp,sp,16
 800c714:	e13ffc15 	stw	r4,-16(fp)
  alt_irq_context cpu_sr;
  
  /* clear the interrupt */
  IOWR_ALTERA_AVALON_TIMER_STATUS (base, 0);
 800c718:	0007883a 	mov	r3,zero
 800c71c:	e0bffc17 	ldw	r2,-16(fp)
 800c720:	10c00035 	stwio	r3,0(r2)
  /* 
   * Dummy read to ensure IRQ is negated before the ISR returns.
   * The control register is read because reading the status
   * register has side-effects per the register map documentation.
   */
  IORD_ALTERA_AVALON_TIMER_CONTROL (base);
 800c724:	e0bffc17 	ldw	r2,-16(fp)
 800c728:	10800104 	addi	r2,r2,4
 800c72c:	10800037 	ldwio	r2,0(r2)
  NIOS2_READ_STATUS (context);
 800c730:	0005303a 	rdctl	r2,status
 800c734:	e0bffd15 	stw	r2,-12(fp)
  NIOS2_WRITE_STATUS (context & ~NIOS2_STATUS_PIE_MSK);
 800c738:	e0fffd17 	ldw	r3,-12(fp)
 800c73c:	00bfff84 	movi	r2,-2
 800c740:	1884703a 	and	r2,r3,r2
 800c744:	1001703a 	wrctl	status,r2
  return context;
 800c748:	e0bffd17 	ldw	r2,-12(fp)

  /* 
   * Notify the system of a clock tick. disable interrupts 
   * during this time to safely support ISR preemption
   */
  cpu_sr = alt_irq_disable_all();
 800c74c:	e0bfff15 	stw	r2,-4(fp)
  alt_tick ();
 800c750:	800d5080 	call	800d508 <alt_tick>
 800c754:	e0bfff17 	ldw	r2,-4(fp)
 800c758:	e0bffe15 	stw	r2,-8(fp)
  NIOS2_WRITE_STATUS (context);
 800c75c:	e0bffe17 	ldw	r2,-8(fp)
 800c760:	1001703a 	wrctl	status,r2
  alt_irq_enable_all(cpu_sr);
}
 800c764:	0001883a 	nop
 800c768:	e037883a 	mov	sp,fp
 800c76c:	dfc00117 	ldw	ra,4(sp)
 800c770:	df000017 	ldw	fp,0(sp)
 800c774:	dec00204 	addi	sp,sp,8
 800c778:	f800283a 	ret

0800c77c <alt_avalon_timer_sc_init>:
 * auto-generated alt_sys_init() function.
 */

void alt_avalon_timer_sc_init (void* base, alt_u32 irq_controller_id, 
                                alt_u32 irq, alt_u32 freq)
{
 800c77c:	defff804 	addi	sp,sp,-32
 800c780:	dfc00715 	stw	ra,28(sp)
 800c784:	df000615 	stw	fp,24(sp)
 800c788:	df000604 	addi	fp,sp,24
 800c78c:	e13ffe15 	stw	r4,-8(fp)
 800c790:	e17ffd15 	stw	r5,-12(fp)
 800c794:	e1bffc15 	stw	r6,-16(fp)
 800c798:	e1fffb15 	stw	r7,-20(fp)
 800c79c:	e0bffb17 	ldw	r2,-20(fp)
 800c7a0:	e0bfff15 	stw	r2,-4(fp)
 * in order to initialise the value of the clock frequency.
 */

static ALT_INLINE int ALT_ALWAYS_INLINE alt_sysclk_init (alt_u32 nticks)
{
  if (! _alt_tick_rate)
 800c7a4:	d0a82717 	ldw	r2,-24420(gp)
 800c7a8:	1000021e 	bne	r2,zero,800c7b4 <alt_avalon_timer_sc_init+0x38>
  {
    _alt_tick_rate = nticks;
 800c7ac:	e0bfff17 	ldw	r2,-4(fp)
 800c7b0:	d0a82715 	stw	r2,-24420(gp)
  
  alt_sysclk_init (freq);
  
  /* set to free running mode */
  
  IOWR_ALTERA_AVALON_TIMER_CONTROL (base, 
 800c7b4:	e0bffe17 	ldw	r2,-8(fp)
 800c7b8:	10800104 	addi	r2,r2,4
 800c7bc:	00c001c4 	movi	r3,7
 800c7c0:	10c00035 	stwio	r3,0(r2)
            ALTERA_AVALON_TIMER_CONTROL_CONT_MSK |
            ALTERA_AVALON_TIMER_CONTROL_START_MSK);

  /* register the interrupt handler, and enable the interrupt */
#ifdef ALT_ENHANCED_INTERRUPT_API_PRESENT
  alt_ic_isr_register(irq_controller_id, irq, alt_avalon_timer_sc_irq, 
 800c7c4:	d8000015 	stw	zero,0(sp)
 800c7c8:	e1fffe17 	ldw	r7,-8(fp)
 800c7cc:	01820074 	movhi	r6,2049
 800c7d0:	31b1c104 	addi	r6,r6,-14588
 800c7d4:	e17ffc17 	ldw	r5,-16(fp)
 800c7d8:	e13ffd17 	ldw	r4,-12(fp)
 800c7dc:	800cda00 	call	800cda0 <alt_ic_isr_register>
                      base, NULL);
#else
  alt_irq_register (irq, base, alt_avalon_timer_sc_irq);
#endif  
}
 800c7e0:	0001883a 	nop
 800c7e4:	e037883a 	mov	sp,fp
 800c7e8:	dfc00117 	ldw	ra,4(sp)
 800c7ec:	df000017 	ldw	fp,0(sp)
 800c7f0:	dec00204 	addi	sp,sp,8
 800c7f4:	f800283a 	ret

0800c7f8 <alt_alarm_start>:
 */ 

int alt_alarm_start (alt_alarm* alarm, alt_u32 nticks,
                     alt_u32 (*callback) (void* context),
                     void* context)
{
 800c7f8:	defff504 	addi	sp,sp,-44
 800c7fc:	df000a15 	stw	fp,40(sp)
 800c800:	df000a04 	addi	fp,sp,40
 800c804:	e13ff915 	stw	r4,-28(fp)
 800c808:	e17ff815 	stw	r5,-32(fp)
 800c80c:	e1bff715 	stw	r6,-36(fp)
 800c810:	e1fff615 	stw	r7,-40(fp)
  alt_irq_context irq_context;
  alt_u32 current_nticks = 0;
 800c814:	e03fff15 	stw	zero,-4(fp)
  return _alt_tick_rate;
 800c818:	d0a82717 	ldw	r2,-24420(gp)
  
  if (alt_ticks_per_second ())
 800c81c:	10003c26 	beq	r2,zero,800c910 <alt_alarm_start+0x118>
  {
    if (alarm)
 800c820:	e0bff917 	ldw	r2,-28(fp)
 800c824:	10003826 	beq	r2,zero,800c908 <alt_alarm_start+0x110>
    {
      alarm->callback = callback;
 800c828:	e0bff917 	ldw	r2,-28(fp)
 800c82c:	e0fff717 	ldw	r3,-36(fp)
 800c830:	10c00315 	stw	r3,12(r2)
      alarm->context  = context;
 800c834:	e0bff917 	ldw	r2,-28(fp)
 800c838:	e0fff617 	ldw	r3,-40(fp)
 800c83c:	10c00515 	stw	r3,20(r2)
  NIOS2_READ_STATUS (context);
 800c840:	0005303a 	rdctl	r2,status
 800c844:	e0bffd15 	stw	r2,-12(fp)
  NIOS2_WRITE_STATUS (context & ~NIOS2_STATUS_PIE_MSK);
 800c848:	e0fffd17 	ldw	r3,-12(fp)
 800c84c:	00bfff84 	movi	r2,-2
 800c850:	1884703a 	and	r2,r3,r2
 800c854:	1001703a 	wrctl	status,r2
  return context;
 800c858:	e0bffd17 	ldw	r2,-12(fp)
 
      irq_context = alt_irq_disable_all ();
 800c85c:	e0bffe15 	stw	r2,-8(fp)
 * alt_nticks() returns the elapsed number of system clock ticks since reset.
 */

static ALT_INLINE alt_u32 ALT_ALWAYS_INLINE alt_nticks (void)
{
  return _alt_nticks;
 800c860:	d0a82817 	ldw	r2,-24416(gp)
      
      current_nticks = alt_nticks();
 800c864:	e0bfff15 	stw	r2,-4(fp)
      
      alarm->time = nticks + current_nticks + 1; 
 800c868:	e0fff817 	ldw	r3,-32(fp)
 800c86c:	e0bfff17 	ldw	r2,-4(fp)
 800c870:	1885883a 	add	r2,r3,r2
 800c874:	10c00044 	addi	r3,r2,1
 800c878:	e0bff917 	ldw	r2,-28(fp)
 800c87c:	10c00215 	stw	r3,8(r2)
      /* 
       * If the desired alarm time causes a roll-over, set the rollover
       * flag. This will prevent the subsequent tick event from causing
       * an alarm too early.
       */
      if(alarm->time < current_nticks)
 800c880:	e0bff917 	ldw	r2,-28(fp)
 800c884:	10c00217 	ldw	r3,8(r2)
 800c888:	e0bfff17 	ldw	r2,-4(fp)
 800c88c:	1880042e 	bgeu	r3,r2,800c8a0 <alt_alarm_start+0xa8>
      {
        alarm->rollover = 1;
 800c890:	e0bff917 	ldw	r2,-28(fp)
 800c894:	00c00044 	movi	r3,1
 800c898:	10c00405 	stb	r3,16(r2)
 800c89c:	00000206 	br	800c8a8 <alt_alarm_start+0xb0>
      }
      else
      {
        alarm->rollover = 0;
 800c8a0:	e0bff917 	ldw	r2,-28(fp)
 800c8a4:	10000405 	stb	zero,16(r2)
      }
    
      alt_llist_insert (&alt_alarm_list, &alarm->llist);
 800c8a8:	e0bff917 	ldw	r2,-28(fp)
 800c8ac:	d0e00f04 	addi	r3,gp,-32708
 800c8b0:	e0fffb15 	stw	r3,-20(fp)
 800c8b4:	e0bffa15 	stw	r2,-24(fp)
 */

static ALT_INLINE void ALT_ALWAYS_INLINE alt_llist_insert(alt_llist* list, 
                alt_llist* entry)
{
  entry->previous = list;
 800c8b8:	e0bffa17 	ldw	r2,-24(fp)
 800c8bc:	e0fffb17 	ldw	r3,-20(fp)
 800c8c0:	10c00115 	stw	r3,4(r2)
  entry->next     = list->next;
 800c8c4:	e0bffb17 	ldw	r2,-20(fp)
 800c8c8:	10c00017 	ldw	r3,0(r2)
 800c8cc:	e0bffa17 	ldw	r2,-24(fp)
 800c8d0:	10c00015 	stw	r3,0(r2)

  list->next->previous = entry;
 800c8d4:	e0bffb17 	ldw	r2,-20(fp)
 800c8d8:	10800017 	ldw	r2,0(r2)
 800c8dc:	e0fffa17 	ldw	r3,-24(fp)
 800c8e0:	10c00115 	stw	r3,4(r2)
  list->next           = entry;
 800c8e4:	e0bffb17 	ldw	r2,-20(fp)
 800c8e8:	e0fffa17 	ldw	r3,-24(fp)
 800c8ec:	10c00015 	stw	r3,0(r2)
 800c8f0:	e0bffe17 	ldw	r2,-8(fp)
 800c8f4:	e0bffc15 	stw	r2,-16(fp)
  NIOS2_WRITE_STATUS (context);
 800c8f8:	e0bffc17 	ldw	r2,-16(fp)
 800c8fc:	1001703a 	wrctl	status,r2
      alt_irq_enable_all (irq_context);

      return 0;
 800c900:	0005883a 	mov	r2,zero
 800c904:	00000306 	br	800c914 <alt_alarm_start+0x11c>
    }
    else
    {
      return -EINVAL;
 800c908:	00bffa84 	movi	r2,-22
 800c90c:	00000106 	br	800c914 <alt_alarm_start+0x11c>
    }
  }
  else
  {
    return -ENOTSUP;
 800c910:	00bfde84 	movi	r2,-134
  }
}
 800c914:	e037883a 	mov	sp,fp
 800c918:	df000017 	ldw	fp,0(sp)
 800c91c:	dec00104 	addi	sp,sp,4
 800c920:	f800283a 	ret

0800c924 <alt_busy_sleep>:
#include "alt_types.h"

#include "priv/alt_busy_sleep.h"

unsigned int alt_busy_sleep (unsigned int us)
{
 800c924:	defffa04 	addi	sp,sp,-24
 800c928:	dfc00515 	stw	ra,20(sp)
 800c92c:	df000415 	stw	fp,16(sp)
 800c930:	df000404 	addi	fp,sp,16
 800c934:	e13ffc15 	stw	r4,-16(fp)
  int big_loops;
  alt_u32 cycles_per_loop;
  
  if (!strcmp(NIOS2_CPU_IMPLEMENTATION,"tiny"))
  {
    cycles_per_loop = 9;
 800c938:	00800244 	movi	r2,9
 800c93c:	e0bffe15 	stw	r2,-8(fp)
    cycles_per_loop = 3;
  }
  

  big_loops = us / (INT_MAX/
  (ALT_CPU_FREQ/(cycles_per_loop * 1000000)));
 800c940:	014003f4 	movhi	r5,15
 800c944:	29509004 	addi	r5,r5,16960
 800c948:	e13ffe17 	ldw	r4,-8(fp)
 800c94c:	8000acc0 	call	8000acc <__mulsi3>
 800c950:	100b883a 	mov	r5,r2
 800c954:	0100bef4 	movhi	r4,763
 800c958:	213c2004 	addi	r4,r4,-3968
 800c95c:	8000a0c0 	call	8000a0c <__udivsi3>
  big_loops = us / (INT_MAX/
 800c960:	100b883a 	mov	r5,r2
 800c964:	01200034 	movhi	r4,32768
 800c968:	213fffc4 	addi	r4,r4,-1
 800c96c:	8000a0c0 	call	8000a0c <__udivsi3>
 800c970:	100b883a 	mov	r5,r2
 800c974:	e13ffc17 	ldw	r4,-16(fp)
 800c978:	8000a0c0 	call	8000a0c <__udivsi3>
 800c97c:	e0bffd15 	stw	r2,-12(fp)

  if (big_loops)
 800c980:	e0bffd17 	ldw	r2,-12(fp)
 800c984:	10002a26 	beq	r2,zero,800ca30 <alt_busy_sleep+0x10c>
  {
    for(i=0;i<big_loops;i++)
 800c988:	e03fff15 	stw	zero,-4(fp)
 800c98c:	00001706 	br	800c9ec <alt_busy_sleep+0xc8>
      /*
      * Do NOT Try to single step the asm statement below 
      * (single step will never return)
      * Step out of this function or set a breakpoint after the asm statements
      */
      __asm__ volatile (
 800c990:	00a00034 	movhi	r2,32768
 800c994:	10bfffc4 	addi	r2,r2,-1
 800c998:	10bfffc4 	addi	r2,r2,-1
 800c99c:	103ffe1e 	bne	r2,zero,800c998 <alt_busy_sleep+0x74>
        "\n\t.pushsection .debug_alt_sim_info"
        "\n\t.int 4, 0, 0b, 1b"
        "\n\t.popsection"
        :: "r" (INT_MAX));
      us -= (INT_MAX/(ALT_CPU_FREQ/
      (cycles_per_loop * 1000000)));
 800c9a0:	014003f4 	movhi	r5,15
 800c9a4:	29509004 	addi	r5,r5,16960
 800c9a8:	e13ffe17 	ldw	r4,-8(fp)
 800c9ac:	8000acc0 	call	8000acc <__mulsi3>
      us -= (INT_MAX/(ALT_CPU_FREQ/
 800c9b0:	100b883a 	mov	r5,r2
 800c9b4:	0100bef4 	movhi	r4,763
 800c9b8:	213c2004 	addi	r4,r4,-3968
 800c9bc:	8000a0c0 	call	8000a0c <__udivsi3>
 800c9c0:	100b883a 	mov	r5,r2
 800c9c4:	01200034 	movhi	r4,32768
 800c9c8:	213fffc4 	addi	r4,r4,-1
 800c9cc:	8000a0c0 	call	8000a0c <__udivsi3>
 800c9d0:	1007883a 	mov	r3,r2
 800c9d4:	e0bffc17 	ldw	r2,-16(fp)
 800c9d8:	10c5c83a 	sub	r2,r2,r3
 800c9dc:	e0bffc15 	stw	r2,-16(fp)
    for(i=0;i<big_loops;i++)
 800c9e0:	e0bfff17 	ldw	r2,-4(fp)
 800c9e4:	10800044 	addi	r2,r2,1
 800c9e8:	e0bfff15 	stw	r2,-4(fp)
 800c9ec:	e0ffff17 	ldw	r3,-4(fp)
 800c9f0:	e0bffd17 	ldw	r2,-12(fp)
 800c9f4:	18bfe616 	blt	r3,r2,800c990 <alt_busy_sleep+0x6c>
      "\n\tbne %0,zero,0b"
      "\n1:"
      "\n\t.pushsection .debug_alt_sim_info"
      "\n\t.int 4, 0, 0b, 1b"
      "\n\t.popsection"
      :: "r" (us*(ALT_CPU_FREQ/(cycles_per_loop * 1000000))));
 800c9f8:	014003f4 	movhi	r5,15
 800c9fc:	29509004 	addi	r5,r5,16960
 800ca00:	e13ffe17 	ldw	r4,-8(fp)
 800ca04:	8000acc0 	call	8000acc <__mulsi3>
 800ca08:	100b883a 	mov	r5,r2
 800ca0c:	0100bef4 	movhi	r4,763
 800ca10:	213c2004 	addi	r4,r4,-3968
 800ca14:	8000a0c0 	call	8000a0c <__udivsi3>
 800ca18:	e17ffc17 	ldw	r5,-16(fp)
 800ca1c:	1009883a 	mov	r4,r2
 800ca20:	8000acc0 	call	8000acc <__mulsi3>
    __asm__ volatile (
 800ca24:	10bfffc4 	addi	r2,r2,-1
 800ca28:	103ffe1e 	bne	r2,zero,800ca24 <alt_busy_sleep+0x100>
 800ca2c:	00000d06 	br	800ca64 <alt_busy_sleep+0x140>
      "\n\tbgt %0,zero,0b"
      "\n1:"
      "\n\t.pushsection .debug_alt_sim_info"
      "\n\t.int 4, 0, 0b, 1b"
      "\n\t.popsection"
      :: "r" (us*(ALT_CPU_FREQ/(cycles_per_loop * 1000000))));
 800ca30:	014003f4 	movhi	r5,15
 800ca34:	29509004 	addi	r5,r5,16960
 800ca38:	e13ffe17 	ldw	r4,-8(fp)
 800ca3c:	8000acc0 	call	8000acc <__mulsi3>
 800ca40:	100b883a 	mov	r5,r2
 800ca44:	0100bef4 	movhi	r4,763
 800ca48:	213c2004 	addi	r4,r4,-3968
 800ca4c:	8000a0c0 	call	8000a0c <__udivsi3>
 800ca50:	e17ffc17 	ldw	r5,-16(fp)
 800ca54:	1009883a 	mov	r4,r2
 800ca58:	8000acc0 	call	8000acc <__mulsi3>
    __asm__ volatile (
 800ca5c:	10bfffc4 	addi	r2,r2,-1
 800ca60:	00bffe16 	blt	zero,r2,800ca5c <alt_busy_sleep+0x138>
  }
#endif /* #ifndef ALT_SIM_OPTIMIZE */
  return 0;
 800ca64:	0005883a 	mov	r2,zero
}
 800ca68:	e037883a 	mov	sp,fp
 800ca6c:	dfc00117 	ldw	ra,4(sp)
 800ca70:	df000017 	ldw	fp,0(sp)
 800ca74:	dec00204 	addi	sp,sp,8
 800ca78:	f800283a 	ret

0800ca7c <alt_get_errno>:
#undef errno

extern int errno;

static ALT_INLINE int* alt_get_errno(void)
{
 800ca7c:	defffe04 	addi	sp,sp,-8
 800ca80:	dfc00115 	stw	ra,4(sp)
 800ca84:	df000015 	stw	fp,0(sp)
 800ca88:	d839883a 	mov	fp,sp
  return ((alt_errno) ? alt_errno() : &errno);
 800ca8c:	d0a00d17 	ldw	r2,-32716(gp)
 800ca90:	10000326 	beq	r2,zero,800caa0 <alt_get_errno+0x24>
 800ca94:	d0a00d17 	ldw	r2,-32716(gp)
 800ca98:	103ee83a 	callr	r2
 800ca9c:	00000106 	br	800caa4 <alt_get_errno+0x28>
 800caa0:	d0a82104 	addi	r2,gp,-24444
}
 800caa4:	e037883a 	mov	sp,fp
 800caa8:	dfc00117 	ldw	ra,4(sp)
 800caac:	df000017 	ldw	fp,0(sp)
 800cab0:	dec00204 	addi	sp,sp,8
 800cab4:	f800283a 	ret

0800cab8 <close>:
 *
 * ALT_CLOSE is mapped onto the close() system call in alt_syscall.h
 */
 
int ALT_CLOSE (int fildes)
{
 800cab8:	defffb04 	addi	sp,sp,-20
 800cabc:	dfc00415 	stw	ra,16(sp)
 800cac0:	df000315 	stw	fp,12(sp)
 800cac4:	df000304 	addi	fp,sp,12
 800cac8:	e13ffd15 	stw	r4,-12(fp)
   * A common error case is that when the file descriptor was created, the call
   * to open() failed resulting in a negative file descriptor. This is trapped
   * below so that we don't try and process an invalid file descriptor.
   */

  fd = (fildes < 0) ? NULL : &alt_fd_list[fildes];
 800cacc:	e0bffd17 	ldw	r2,-12(fp)
 800cad0:	10000916 	blt	r2,zero,800caf8 <close+0x40>
 800cad4:	e0fffd17 	ldw	r3,-12(fp)
 800cad8:	1805883a 	mov	r2,r3
 800cadc:	1085883a 	add	r2,r2,r2
 800cae0:	10c5883a 	add	r2,r2,r3
 800cae4:	100490ba 	slli	r2,r2,2
 800cae8:	00c20074 	movhi	r3,2049
 800caec:	18c00404 	addi	r3,r3,16
 800caf0:	10c5883a 	add	r2,r2,r3
 800caf4:	00000106 	br	800cafc <close+0x44>
 800caf8:	0005883a 	mov	r2,zero
 800cafc:	e0bfff15 	stw	r2,-4(fp)

  if (fd)
 800cb00:	e0bfff17 	ldw	r2,-4(fp)
 800cb04:	10001926 	beq	r2,zero,800cb6c <close+0xb4>
    /*
     * If the associated file system/device has a close function, call it so 
     * that any necessary cleanup code can run.
     */

    rval = (fd->dev->close) ? fd->dev->close(fd) : 0;
 800cb08:	e0bfff17 	ldw	r2,-4(fp)
 800cb0c:	10800017 	ldw	r2,0(r2)
 800cb10:	10800417 	ldw	r2,16(r2)
 800cb14:	10000626 	beq	r2,zero,800cb30 <close+0x78>
 800cb18:	e0bfff17 	ldw	r2,-4(fp)
 800cb1c:	10800017 	ldw	r2,0(r2)
 800cb20:	10800417 	ldw	r2,16(r2)
 800cb24:	e13fff17 	ldw	r4,-4(fp)
 800cb28:	103ee83a 	callr	r2
 800cb2c:	00000106 	br	800cb34 <close+0x7c>
 800cb30:	0005883a 	mov	r2,zero
 800cb34:	e0bffe15 	stw	r2,-8(fp)

    /* Free the file descriptor structure and return. */

    alt_release_fd (fildes);
 800cb38:	e13ffd17 	ldw	r4,-12(fp)
 800cb3c:	800d3fc0 	call	800d3fc <alt_release_fd>
    if (rval < 0)
 800cb40:	e0bffe17 	ldw	r2,-8(fp)
 800cb44:	1000070e 	bge	r2,zero,800cb64 <close+0xac>
    {
      ALT_ERRNO = -rval;
 800cb48:	800ca7c0 	call	800ca7c <alt_get_errno>
 800cb4c:	1007883a 	mov	r3,r2
 800cb50:	e0bffe17 	ldw	r2,-8(fp)
 800cb54:	0085c83a 	sub	r2,zero,r2
 800cb58:	18800015 	stw	r2,0(r3)
      return -1;
 800cb5c:	00bfffc4 	movi	r2,-1
 800cb60:	00000706 	br	800cb80 <close+0xc8>
    }
    return 0;
 800cb64:	0005883a 	mov	r2,zero
 800cb68:	00000506 	br	800cb80 <close+0xc8>
  }
  else
  {
    ALT_ERRNO = EBADFD;
 800cb6c:	800ca7c0 	call	800ca7c <alt_get_errno>
 800cb70:	1007883a 	mov	r3,r2
 800cb74:	00801444 	movi	r2,81
 800cb78:	18800015 	stw	r2,0(r3)
    return -1;
 800cb7c:	00bfffc4 	movi	r2,-1
  }
}
 800cb80:	e037883a 	mov	sp,fp
 800cb84:	dfc00117 	ldw	ra,4(sp)
 800cb88:	df000017 	ldw	fp,0(sp)
 800cb8c:	dec00204 	addi	sp,sp,8
 800cb90:	f800283a 	ret

0800cb94 <alt_dcache_flush_all>:
/*
 * alt_dcache_flush_all() is called to flush the entire data cache.
 */

void alt_dcache_flush_all (void)
{
 800cb94:	deffff04 	addi	sp,sp,-4
 800cb98:	df000015 	stw	fp,0(sp)
 800cb9c:	d839883a 	mov	fp,sp
  for (i = (char*) 0; i < (char*) NIOS2_DCACHE_SIZE; i+= NIOS2_DCACHE_LINE_SIZE)
  { 
    __asm__ volatile ("flushd (%0)" :: "r" (i));
  }
#endif /* NIOS2_DCACHE_SIZE > 0 */
}
 800cba0:	0001883a 	nop
 800cba4:	e037883a 	mov	sp,fp
 800cba8:	df000017 	ldw	fp,0(sp)
 800cbac:	dec00104 	addi	sp,sp,4
 800cbb0:	f800283a 	ret

0800cbb4 <alt_dev_null_write>:
 * by the alt_dev_null device. It simple discards all data passed to it, and
 * indicates that the data has been successfully transmitted.
 */

static int alt_dev_null_write (alt_fd* fd, const char* ptr, int len)
{
 800cbb4:	defffc04 	addi	sp,sp,-16
 800cbb8:	df000315 	stw	fp,12(sp)
 800cbbc:	df000304 	addi	fp,sp,12
 800cbc0:	e13fff15 	stw	r4,-4(fp)
 800cbc4:	e17ffe15 	stw	r5,-8(fp)
 800cbc8:	e1bffd15 	stw	r6,-12(fp)
  return len;
 800cbcc:	e0bffd17 	ldw	r2,-12(fp)
}
 800cbd0:	e037883a 	mov	sp,fp
 800cbd4:	df000017 	ldw	fp,0(sp)
 800cbd8:	dec00104 	addi	sp,sp,4
 800cbdc:	f800283a 	ret

0800cbe0 <alt_get_errno>:
{
 800cbe0:	defffe04 	addi	sp,sp,-8
 800cbe4:	dfc00115 	stw	ra,4(sp)
 800cbe8:	df000015 	stw	fp,0(sp)
 800cbec:	d839883a 	mov	fp,sp
  return ((alt_errno) ? alt_errno() : &errno);
 800cbf0:	d0a00d17 	ldw	r2,-32716(gp)
 800cbf4:	10000326 	beq	r2,zero,800cc04 <alt_get_errno+0x24>
 800cbf8:	d0a00d17 	ldw	r2,-32716(gp)
 800cbfc:	103ee83a 	callr	r2
 800cc00:	00000106 	br	800cc08 <alt_get_errno+0x28>
 800cc04:	d0a82104 	addi	r2,gp,-24444
}
 800cc08:	e037883a 	mov	sp,fp
 800cc0c:	dfc00117 	ldw	ra,4(sp)
 800cc10:	df000017 	ldw	fp,0(sp)
 800cc14:	dec00204 	addi	sp,sp,8
 800cc18:	f800283a 	ret

0800cc1c <alt_dev_llist_insert>:
/*
 *
 */

int alt_dev_llist_insert (alt_dev_llist* dev, alt_llist* list)
{
 800cc1c:	defffa04 	addi	sp,sp,-24
 800cc20:	dfc00515 	stw	ra,20(sp)
 800cc24:	df000415 	stw	fp,16(sp)
 800cc28:	df000404 	addi	fp,sp,16
 800cc2c:	e13ffd15 	stw	r4,-12(fp)
 800cc30:	e17ffc15 	stw	r5,-16(fp)
  /*
   * check that the device exists, and that it has a valid name.
   */

  if (!dev || !dev->name)
 800cc34:	e0bffd17 	ldw	r2,-12(fp)
 800cc38:	10000326 	beq	r2,zero,800cc48 <alt_dev_llist_insert+0x2c>
 800cc3c:	e0bffd17 	ldw	r2,-12(fp)
 800cc40:	10800217 	ldw	r2,8(r2)
 800cc44:	1000061e 	bne	r2,zero,800cc60 <alt_dev_llist_insert+0x44>
  {
    ALT_ERRNO = EINVAL;
 800cc48:	800cbe00 	call	800cbe0 <alt_get_errno>
 800cc4c:	1007883a 	mov	r3,r2
 800cc50:	00800584 	movi	r2,22
 800cc54:	18800015 	stw	r2,0(r3)
    return -EINVAL;
 800cc58:	00bffa84 	movi	r2,-22
 800cc5c:	00001306 	br	800ccac <alt_dev_llist_insert+0x90>
  
  /*
   * register the device.
   */
  
  alt_llist_insert(list, &dev->llist);
 800cc60:	e0bffd17 	ldw	r2,-12(fp)
 800cc64:	e0fffc17 	ldw	r3,-16(fp)
 800cc68:	e0ffff15 	stw	r3,-4(fp)
 800cc6c:	e0bffe15 	stw	r2,-8(fp)
  entry->previous = list;
 800cc70:	e0bffe17 	ldw	r2,-8(fp)
 800cc74:	e0ffff17 	ldw	r3,-4(fp)
 800cc78:	10c00115 	stw	r3,4(r2)
  entry->next     = list->next;
 800cc7c:	e0bfff17 	ldw	r2,-4(fp)
 800cc80:	10c00017 	ldw	r3,0(r2)
 800cc84:	e0bffe17 	ldw	r2,-8(fp)
 800cc88:	10c00015 	stw	r3,0(r2)
  list->next->previous = entry;
 800cc8c:	e0bfff17 	ldw	r2,-4(fp)
 800cc90:	10800017 	ldw	r2,0(r2)
 800cc94:	e0fffe17 	ldw	r3,-8(fp)
 800cc98:	10c00115 	stw	r3,4(r2)
  list->next           = entry;
 800cc9c:	e0bfff17 	ldw	r2,-4(fp)
 800cca0:	e0fffe17 	ldw	r3,-8(fp)
 800cca4:	10c00015 	stw	r3,0(r2)

  return 0;  
 800cca8:	0005883a 	mov	r2,zero
}
 800ccac:	e037883a 	mov	sp,fp
 800ccb0:	dfc00117 	ldw	ra,4(sp)
 800ccb4:	df000017 	ldw	fp,0(sp)
 800ccb8:	dec00204 	addi	sp,sp,8
 800ccbc:	f800283a 	ret

0800ccc0 <_do_ctors>:
/*
 * Run the C++ static constructors.
 */

void _do_ctors(void)
{
 800ccc0:	defffd04 	addi	sp,sp,-12
 800ccc4:	dfc00215 	stw	ra,8(sp)
 800ccc8:	df000115 	stw	fp,4(sp)
 800cccc:	df000104 	addi	fp,sp,4
  constructor* ctor;

  for (ctor = &__CTOR_END__[-1]; ctor >= __CTOR_LIST__; ctor--)
 800ccd0:	00820074 	movhi	r2,2049
 800ccd4:	10b6f204 	addi	r2,r2,-9272
 800ccd8:	e0bfff15 	stw	r2,-4(fp)
 800ccdc:	00000606 	br	800ccf8 <_do_ctors+0x38>
        (*ctor) (); 
 800cce0:	e0bfff17 	ldw	r2,-4(fp)
 800cce4:	10800017 	ldw	r2,0(r2)
 800cce8:	103ee83a 	callr	r2
  for (ctor = &__CTOR_END__[-1]; ctor >= __CTOR_LIST__; ctor--)
 800ccec:	e0bfff17 	ldw	r2,-4(fp)
 800ccf0:	10bfff04 	addi	r2,r2,-4
 800ccf4:	e0bfff15 	stw	r2,-4(fp)
 800ccf8:	e0ffff17 	ldw	r3,-4(fp)
 800ccfc:	00820074 	movhi	r2,2049
 800cd00:	10b6f304 	addi	r2,r2,-9268
 800cd04:	18bff62e 	bgeu	r3,r2,800cce0 <_do_ctors+0x20>
}
 800cd08:	0001883a 	nop
 800cd0c:	e037883a 	mov	sp,fp
 800cd10:	dfc00117 	ldw	ra,4(sp)
 800cd14:	df000017 	ldw	fp,0(sp)
 800cd18:	dec00204 	addi	sp,sp,8
 800cd1c:	f800283a 	ret

0800cd20 <_do_dtors>:
/*
 * Run the C++ static destructors.
 */

void _do_dtors(void)
{
 800cd20:	defffd04 	addi	sp,sp,-12
 800cd24:	dfc00215 	stw	ra,8(sp)
 800cd28:	df000115 	stw	fp,4(sp)
 800cd2c:	df000104 	addi	fp,sp,4
  destructor* dtor;

  for (dtor = &__DTOR_END__[-1]; dtor >= __DTOR_LIST__; dtor--)
 800cd30:	00820074 	movhi	r2,2049
 800cd34:	10b6f204 	addi	r2,r2,-9272
 800cd38:	e0bfff15 	stw	r2,-4(fp)
 800cd3c:	00000606 	br	800cd58 <_do_dtors+0x38>
        (*dtor) (); 
 800cd40:	e0bfff17 	ldw	r2,-4(fp)
 800cd44:	10800017 	ldw	r2,0(r2)
 800cd48:	103ee83a 	callr	r2
  for (dtor = &__DTOR_END__[-1]; dtor >= __DTOR_LIST__; dtor--)
 800cd4c:	e0bfff17 	ldw	r2,-4(fp)
 800cd50:	10bfff04 	addi	r2,r2,-4
 800cd54:	e0bfff15 	stw	r2,-4(fp)
 800cd58:	e0ffff17 	ldw	r3,-4(fp)
 800cd5c:	00820074 	movhi	r2,2049
 800cd60:	10b6f304 	addi	r2,r2,-9268
 800cd64:	18bff62e 	bgeu	r3,r2,800cd40 <_do_dtors+0x20>
}
 800cd68:	0001883a 	nop
 800cd6c:	e037883a 	mov	sp,fp
 800cd70:	dfc00117 	ldw	ra,4(sp)
 800cd74:	df000017 	ldw	fp,0(sp)
 800cd78:	dec00204 	addi	sp,sp,8
 800cd7c:	f800283a 	ret

0800cd80 <alt_icache_flush_all>:
/*
 * alt_icache_flush_all() is called to flush the entire instruction cache.
 */

void alt_icache_flush_all (void)
{
 800cd80:	deffff04 	addi	sp,sp,-4
 800cd84:	df000015 	stw	fp,0(sp)
 800cd88:	d839883a 	mov	fp,sp
#if NIOS2_ICACHE_SIZE > 0
  alt_icache_flush (0, NIOS2_ICACHE_SIZE);
#endif
}
 800cd8c:	0001883a 	nop
 800cd90:	e037883a 	mov	sp,fp
 800cd94:	df000017 	ldw	fp,0(sp)
 800cd98:	dec00104 	addi	sp,sp,4
 800cd9c:	f800283a 	ret

0800cda0 <alt_ic_isr_register>:
  * @param irq              IRQ number
  * @return                 0 if successful, else error (-1)
  */
int alt_ic_isr_register(alt_u32 ic_id, alt_u32 irq, alt_isr_func isr, 
  void *isr_context, void *flags)
{
 800cda0:	defff904 	addi	sp,sp,-28
 800cda4:	dfc00615 	stw	ra,24(sp)
 800cda8:	df000515 	stw	fp,20(sp)
 800cdac:	df000504 	addi	fp,sp,20
 800cdb0:	e13fff15 	stw	r4,-4(fp)
 800cdb4:	e17ffe15 	stw	r5,-8(fp)
 800cdb8:	e1bffd15 	stw	r6,-12(fp)
 800cdbc:	e1fffc15 	stw	r7,-16(fp)
    return alt_iic_isr_register(ic_id, irq, isr, isr_context, flags);
 800cdc0:	e0800217 	ldw	r2,8(fp)
 800cdc4:	d8800015 	stw	r2,0(sp)
 800cdc8:	e1fffc17 	ldw	r7,-16(fp)
 800cdcc:	e1bffd17 	ldw	r6,-12(fp)
 800cdd0:	e17ffe17 	ldw	r5,-8(fp)
 800cdd4:	e13fff17 	ldw	r4,-4(fp)
 800cdd8:	800cf500 	call	800cf50 <alt_iic_isr_register>
}  
 800cddc:	e037883a 	mov	sp,fp
 800cde0:	dfc00117 	ldw	ra,4(sp)
 800cde4:	df000017 	ldw	fp,0(sp)
 800cde8:	dec00204 	addi	sp,sp,8
 800cdec:	f800283a 	ret

0800cdf0 <alt_ic_irq_enable>:
  * @param ic_id            Ignored.
  * @param irq              IRQ number
  * @return                 0 if successful, else error (-1)
  */
int alt_ic_irq_enable (alt_u32 ic_id, alt_u32 irq)
{
 800cdf0:	defff904 	addi	sp,sp,-28
 800cdf4:	df000615 	stw	fp,24(sp)
 800cdf8:	df000604 	addi	fp,sp,24
 800cdfc:	e13ffb15 	stw	r4,-20(fp)
 800ce00:	e17ffa15 	stw	r5,-24(fp)
 800ce04:	e0bffa17 	ldw	r2,-24(fp)
 800ce08:	e0bfff15 	stw	r2,-4(fp)
  NIOS2_READ_STATUS (context);
 800ce0c:	0005303a 	rdctl	r2,status
 800ce10:	e0bffe15 	stw	r2,-8(fp)
  NIOS2_WRITE_STATUS (context & ~NIOS2_STATUS_PIE_MSK);
 800ce14:	e0fffe17 	ldw	r3,-8(fp)
 800ce18:	00bfff84 	movi	r2,-2
 800ce1c:	1884703a 	and	r2,r3,r2
 800ce20:	1001703a 	wrctl	status,r2
  return context;
 800ce24:	e0bffe17 	ldw	r2,-8(fp)
static ALT_INLINE int ALT_ALWAYS_INLINE alt_irq_enable (alt_u32 id)
{
  alt_irq_context  status;
  extern volatile alt_u32 alt_irq_active;

  status = alt_irq_disable_all ();
 800ce28:	e0bffd15 	stw	r2,-12(fp)

  alt_irq_active |= (1 << id);
 800ce2c:	00c00044 	movi	r3,1
 800ce30:	e0bfff17 	ldw	r2,-4(fp)
 800ce34:	1884983a 	sll	r2,r3,r2
 800ce38:	1007883a 	mov	r3,r2
 800ce3c:	d0a82617 	ldw	r2,-24424(gp)
 800ce40:	1884b03a 	or	r2,r3,r2
 800ce44:	d0a82615 	stw	r2,-24424(gp)
  NIOS2_WRITE_IENABLE (alt_irq_active);
 800ce48:	d0a82617 	ldw	r2,-24424(gp)
 800ce4c:	100170fa 	wrctl	ienable,r2
 800ce50:	e0bffd17 	ldw	r2,-12(fp)
 800ce54:	e0bffc15 	stw	r2,-16(fp)
  NIOS2_WRITE_STATUS (context);
 800ce58:	e0bffc17 	ldw	r2,-16(fp)
 800ce5c:	1001703a 	wrctl	status,r2

  alt_irq_enable_all(status);

  return 0;
 800ce60:	0005883a 	mov	r2,zero
    return alt_irq_enable(irq);
 800ce64:	0001883a 	nop
}
 800ce68:	e037883a 	mov	sp,fp
 800ce6c:	df000017 	ldw	fp,0(sp)
 800ce70:	dec00104 	addi	sp,sp,4
 800ce74:	f800283a 	ret

0800ce78 <alt_ic_irq_disable>:
  * @param ic_id            Ignored.
  * @param irq              IRQ number
  * @return                 0 if successful, else error (-1)
  */
int alt_ic_irq_disable(alt_u32 ic_id, alt_u32 irq)
{
 800ce78:	defff904 	addi	sp,sp,-28
 800ce7c:	df000615 	stw	fp,24(sp)
 800ce80:	df000604 	addi	fp,sp,24
 800ce84:	e13ffb15 	stw	r4,-20(fp)
 800ce88:	e17ffa15 	stw	r5,-24(fp)
 800ce8c:	e0bffa17 	ldw	r2,-24(fp)
 800ce90:	e0bfff15 	stw	r2,-4(fp)
  NIOS2_READ_STATUS (context);
 800ce94:	0005303a 	rdctl	r2,status
 800ce98:	e0bffe15 	stw	r2,-8(fp)
  NIOS2_WRITE_STATUS (context & ~NIOS2_STATUS_PIE_MSK);
 800ce9c:	e0fffe17 	ldw	r3,-8(fp)
 800cea0:	00bfff84 	movi	r2,-2
 800cea4:	1884703a 	and	r2,r3,r2
 800cea8:	1001703a 	wrctl	status,r2
  return context;
 800ceac:	e0bffe17 	ldw	r2,-8(fp)
  status = alt_irq_disable_all ();
 800ceb0:	e0bffd15 	stw	r2,-12(fp)
  alt_irq_active &= ~(1 << id);
 800ceb4:	00c00044 	movi	r3,1
 800ceb8:	e0bfff17 	ldw	r2,-4(fp)
 800cebc:	1884983a 	sll	r2,r3,r2
 800cec0:	0084303a 	nor	r2,zero,r2
 800cec4:	1007883a 	mov	r3,r2
 800cec8:	d0a82617 	ldw	r2,-24424(gp)
 800cecc:	1884703a 	and	r2,r3,r2
 800ced0:	d0a82615 	stw	r2,-24424(gp)
  NIOS2_WRITE_IENABLE (alt_irq_active);
 800ced4:	d0a82617 	ldw	r2,-24424(gp)
 800ced8:	100170fa 	wrctl	ienable,r2
 800cedc:	e0bffd17 	ldw	r2,-12(fp)
 800cee0:	e0bffc15 	stw	r2,-16(fp)
  NIOS2_WRITE_STATUS (context);
 800cee4:	e0bffc17 	ldw	r2,-16(fp)
 800cee8:	1001703a 	wrctl	status,r2
  return 0;
 800ceec:	0005883a 	mov	r2,zero
    return alt_irq_disable(irq);
 800cef0:	0001883a 	nop
}
 800cef4:	e037883a 	mov	sp,fp
 800cef8:	df000017 	ldw	fp,0(sp)
 800cefc:	dec00104 	addi	sp,sp,4
 800cf00:	f800283a 	ret

0800cf04 <alt_ic_irq_enabled>:
  * @param irq              IRQ number
  * @return                 Zero if corresponding interrupt is disabled and
  *                         non-zero otherwise.
  */
alt_u32 alt_ic_irq_enabled(alt_u32 ic_id, alt_u32 irq)
{
 800cf04:	defffc04 	addi	sp,sp,-16
 800cf08:	df000315 	stw	fp,12(sp)
 800cf0c:	df000304 	addi	fp,sp,12
 800cf10:	e13ffe15 	stw	r4,-8(fp)
 800cf14:	e17ffd15 	stw	r5,-12(fp)
    alt_u32 irq_enabled;

    NIOS2_READ_IENABLE(irq_enabled);
 800cf18:	000530fa 	rdctl	r2,ienable
 800cf1c:	e0bfff15 	stw	r2,-4(fp)

    return (irq_enabled & (1 << irq)) ? 1: 0;
 800cf20:	00c00044 	movi	r3,1
 800cf24:	e0bffd17 	ldw	r2,-12(fp)
 800cf28:	1884983a 	sll	r2,r3,r2
 800cf2c:	1007883a 	mov	r3,r2
 800cf30:	e0bfff17 	ldw	r2,-4(fp)
 800cf34:	1884703a 	and	r2,r3,r2
 800cf38:	1004c03a 	cmpne	r2,r2,zero
 800cf3c:	10803fcc 	andi	r2,r2,255
}
 800cf40:	e037883a 	mov	sp,fp
 800cf44:	df000017 	ldw	fp,0(sp)
 800cf48:	dec00104 	addi	sp,sp,4
 800cf4c:	f800283a 	ret

0800cf50 <alt_iic_isr_register>:
  * @param flags            
  * @return                 0 if successful, else error (-1)
  */
int alt_iic_isr_register(alt_u32 ic_id, alt_u32 irq, alt_isr_func isr, 
  void *isr_context, void *flags)
{
 800cf50:	defff504 	addi	sp,sp,-44
 800cf54:	dfc00a15 	stw	ra,40(sp)
 800cf58:	df000915 	stw	fp,36(sp)
 800cf5c:	df000904 	addi	fp,sp,36
 800cf60:	e13ffa15 	stw	r4,-24(fp)
 800cf64:	e17ff915 	stw	r5,-28(fp)
 800cf68:	e1bff815 	stw	r6,-32(fp)
 800cf6c:	e1fff715 	stw	r7,-36(fp)
  int rc = -EINVAL;  
 800cf70:	00bffa84 	movi	r2,-22
 800cf74:	e0bfff15 	stw	r2,-4(fp)
  int id = irq;             /* IRQ interpreted as the interrupt ID. */
 800cf78:	e0bff917 	ldw	r2,-28(fp)
 800cf7c:	e0bffe15 	stw	r2,-8(fp)
  alt_irq_context status;

  if (id < ALT_NIRQ)
 800cf80:	e0bffe17 	ldw	r2,-8(fp)
 800cf84:	10800808 	cmpgei	r2,r2,32
 800cf88:	1000241e 	bne	r2,zero,800d01c <alt_iic_isr_register+0xcc>
  NIOS2_READ_STATUS (context);
 800cf8c:	0005303a 	rdctl	r2,status
 800cf90:	e0bffc15 	stw	r2,-16(fp)
  NIOS2_WRITE_STATUS (context & ~NIOS2_STATUS_PIE_MSK);
 800cf94:	e0fffc17 	ldw	r3,-16(fp)
 800cf98:	00bfff84 	movi	r2,-2
 800cf9c:	1884703a 	and	r2,r3,r2
 800cfa0:	1001703a 	wrctl	status,r2
  return context;
 800cfa4:	e0bffc17 	ldw	r2,-16(fp)
     * interrupts are disabled while the handler tables are updated to ensure
     * that an interrupt doesn't occur while the tables are in an inconsistant
     * state.
     */

    status = alt_irq_disable_all();
 800cfa8:	e0bffd15 	stw	r2,-12(fp)

    alt_irq[id].handler = isr;
 800cfac:	e0bffe17 	ldw	r2,-8(fp)
 800cfb0:	100890fa 	slli	r4,r2,3
 800cfb4:	e0fff817 	ldw	r3,-32(fp)
 800cfb8:	00820074 	movhi	r2,2049
 800cfbc:	2085883a 	add	r2,r4,r2
 800cfc0:	10c89815 	stw	r3,8800(r2)
    alt_irq[id].context = isr_context;
 800cfc4:	e0bffe17 	ldw	r2,-8(fp)
 800cfc8:	100890fa 	slli	r4,r2,3
 800cfcc:	e0fff717 	ldw	r3,-36(fp)
 800cfd0:	00820074 	movhi	r2,2049
 800cfd4:	2085883a 	add	r2,r4,r2
 800cfd8:	10c89915 	stw	r3,8804(r2)

    rc = (isr) ? alt_ic_irq_enable(ic_id, id) : alt_ic_irq_disable(ic_id, id);
 800cfdc:	e0bff817 	ldw	r2,-32(fp)
 800cfe0:	10000526 	beq	r2,zero,800cff8 <alt_iic_isr_register+0xa8>
 800cfe4:	e0bffe17 	ldw	r2,-8(fp)
 800cfe8:	100b883a 	mov	r5,r2
 800cfec:	e13ffa17 	ldw	r4,-24(fp)
 800cff0:	800cdf00 	call	800cdf0 <alt_ic_irq_enable>
 800cff4:	00000406 	br	800d008 <alt_iic_isr_register+0xb8>
 800cff8:	e0bffe17 	ldw	r2,-8(fp)
 800cffc:	100b883a 	mov	r5,r2
 800d000:	e13ffa17 	ldw	r4,-24(fp)
 800d004:	800ce780 	call	800ce78 <alt_ic_irq_disable>
 800d008:	e0bfff15 	stw	r2,-4(fp)
 800d00c:	e0bffd17 	ldw	r2,-12(fp)
 800d010:	e0bffb15 	stw	r2,-20(fp)
  NIOS2_WRITE_STATUS (context);
 800d014:	e0bffb17 	ldw	r2,-20(fp)
 800d018:	1001703a 	wrctl	status,r2

    alt_irq_enable_all(status);
  }

  return rc; 
 800d01c:	e0bfff17 	ldw	r2,-4(fp)
}
 800d020:	e037883a 	mov	sp,fp
 800d024:	dfc00117 	ldw	ra,4(sp)
 800d028:	df000017 	ldw	fp,0(sp)
 800d02c:	dec00204 	addi	sp,sp,8
 800d030:	f800283a 	ret

0800d034 <alt_open_fd>:
 * If the device can not be succesfully opened, then the input file descriptor
 * remains unchanged.
 */

static void alt_open_fd(alt_fd* fd, const char* name, int flags, int mode)
{
 800d034:	defff904 	addi	sp,sp,-28
 800d038:	dfc00615 	stw	ra,24(sp)
 800d03c:	df000515 	stw	fp,20(sp)
 800d040:	df000504 	addi	fp,sp,20
 800d044:	e13ffe15 	stw	r4,-8(fp)
 800d048:	e17ffd15 	stw	r5,-12(fp)
 800d04c:	e1bffc15 	stw	r6,-16(fp)
 800d050:	e1fffb15 	stw	r7,-20(fp)
  int old;

  old = open (name, flags, mode);
 800d054:	e1bffb17 	ldw	r6,-20(fp)
 800d058:	e17ffc17 	ldw	r5,-16(fp)
 800d05c:	e13ffd17 	ldw	r4,-12(fp)
 800d060:	800d29c0 	call	800d29c <open>
 800d064:	e0bfff15 	stw	r2,-4(fp)

  if (old >= 0)
 800d068:	e0bfff17 	ldw	r2,-4(fp)
 800d06c:	10002016 	blt	r2,zero,800d0f0 <alt_open_fd+0xbc>
  {
    fd->dev      = alt_fd_list[old].dev;
 800d070:	e0ffff17 	ldw	r3,-4(fp)
 800d074:	1805883a 	mov	r2,r3
 800d078:	1085883a 	add	r2,r2,r2
 800d07c:	10c5883a 	add	r2,r2,r3
 800d080:	100490ba 	slli	r2,r2,2
 800d084:	00c20074 	movhi	r3,2049
 800d088:	10c7883a 	add	r3,r2,r3
 800d08c:	18c00417 	ldw	r3,16(r3)
 800d090:	e0bffe17 	ldw	r2,-8(fp)
 800d094:	10c00015 	stw	r3,0(r2)
    fd->priv     = alt_fd_list[old].priv;
 800d098:	e0ffff17 	ldw	r3,-4(fp)
 800d09c:	1805883a 	mov	r2,r3
 800d0a0:	1085883a 	add	r2,r2,r2
 800d0a4:	10c5883a 	add	r2,r2,r3
 800d0a8:	100490ba 	slli	r2,r2,2
 800d0ac:	00c20074 	movhi	r3,2049
 800d0b0:	10c7883a 	add	r3,r2,r3
 800d0b4:	18c00517 	ldw	r3,20(r3)
 800d0b8:	e0bffe17 	ldw	r2,-8(fp)
 800d0bc:	10c00115 	stw	r3,4(r2)
    fd->fd_flags = alt_fd_list[old].fd_flags;
 800d0c0:	e0ffff17 	ldw	r3,-4(fp)
 800d0c4:	1805883a 	mov	r2,r3
 800d0c8:	1085883a 	add	r2,r2,r2
 800d0cc:	10c5883a 	add	r2,r2,r3
 800d0d0:	100490ba 	slli	r2,r2,2
 800d0d4:	00c20074 	movhi	r3,2049
 800d0d8:	10c7883a 	add	r3,r2,r3
 800d0dc:	18c00617 	ldw	r3,24(r3)
 800d0e0:	e0bffe17 	ldw	r2,-8(fp)
 800d0e4:	10c00215 	stw	r3,8(r2)

    alt_release_fd (old);
 800d0e8:	e13fff17 	ldw	r4,-4(fp)
 800d0ec:	800d3fc0 	call	800d3fc <alt_release_fd>
  }
} 
 800d0f0:	0001883a 	nop
 800d0f4:	e037883a 	mov	sp,fp
 800d0f8:	dfc00117 	ldw	ra,4(sp)
 800d0fc:	df000017 	ldw	fp,0(sp)
 800d100:	dec00204 	addi	sp,sp,8
 800d104:	f800283a 	ret

0800d108 <alt_io_redirect>:
 */
 
void alt_io_redirect(const char* stdout_dev, 
                     const char* stdin_dev, 
                     const char* stderr_dev)
{
 800d108:	defffb04 	addi	sp,sp,-20
 800d10c:	dfc00415 	stw	ra,16(sp)
 800d110:	df000315 	stw	fp,12(sp)
 800d114:	df000304 	addi	fp,sp,12
 800d118:	e13fff15 	stw	r4,-4(fp)
 800d11c:	e17ffe15 	stw	r5,-8(fp)
 800d120:	e1bffd15 	stw	r6,-12(fp)
  /* Redirect the channels */

  alt_open_fd (&alt_fd_list[STDOUT_FILENO], stdout_dev, O_WRONLY, 0777);
 800d124:	01c07fc4 	movi	r7,511
 800d128:	01800044 	movi	r6,1
 800d12c:	e17fff17 	ldw	r5,-4(fp)
 800d130:	01020074 	movhi	r4,2049
 800d134:	21000704 	addi	r4,r4,28
 800d138:	800d0340 	call	800d034 <alt_open_fd>
  alt_open_fd (&alt_fd_list[STDIN_FILENO], stdin_dev, O_RDONLY, 0777);
 800d13c:	01c07fc4 	movi	r7,511
 800d140:	000d883a 	mov	r6,zero
 800d144:	e17ffe17 	ldw	r5,-8(fp)
 800d148:	01020074 	movhi	r4,2049
 800d14c:	21000404 	addi	r4,r4,16
 800d150:	800d0340 	call	800d034 <alt_open_fd>
  alt_open_fd (&alt_fd_list[STDERR_FILENO], stderr_dev, O_WRONLY, 0777);
 800d154:	01c07fc4 	movi	r7,511
 800d158:	01800044 	movi	r6,1
 800d15c:	e17ffd17 	ldw	r5,-12(fp)
 800d160:	01020074 	movhi	r4,2049
 800d164:	21000a04 	addi	r4,r4,40
 800d168:	800d0340 	call	800d034 <alt_open_fd>
}  
 800d16c:	0001883a 	nop
 800d170:	e037883a 	mov	sp,fp
 800d174:	dfc00117 	ldw	ra,4(sp)
 800d178:	df000017 	ldw	fp,0(sp)
 800d17c:	dec00204 	addi	sp,sp,8
 800d180:	f800283a 	ret

0800d184 <alt_get_errno>:
{
 800d184:	defffe04 	addi	sp,sp,-8
 800d188:	dfc00115 	stw	ra,4(sp)
 800d18c:	df000015 	stw	fp,0(sp)
 800d190:	d839883a 	mov	fp,sp
  return ((alt_errno) ? alt_errno() : &errno);
 800d194:	d0a00d17 	ldw	r2,-32716(gp)
 800d198:	10000326 	beq	r2,zero,800d1a8 <alt_get_errno+0x24>
 800d19c:	d0a00d17 	ldw	r2,-32716(gp)
 800d1a0:	103ee83a 	callr	r2
 800d1a4:	00000106 	br	800d1ac <alt_get_errno+0x28>
 800d1a8:	d0a82104 	addi	r2,gp,-24444
}
 800d1ac:	e037883a 	mov	sp,fp
 800d1b0:	dfc00117 	ldw	ra,4(sp)
 800d1b4:	df000017 	ldw	fp,0(sp)
 800d1b8:	dec00204 	addi	sp,sp,8
 800d1bc:	f800283a 	ret

0800d1c0 <alt_file_locked>:
 * performed for devices. Filesystems are required to handle the ioctl() call
 * themselves, and report the error from the filesystems open() function. 
 */ 

static int alt_file_locked (alt_fd* fd)
{
 800d1c0:	defffd04 	addi	sp,sp,-12
 800d1c4:	df000215 	stw	fp,8(sp)
 800d1c8:	df000204 	addi	fp,sp,8
 800d1cc:	e13ffe15 	stw	r4,-8(fp)

  /*
   * Mark the file descriptor as belonging to a device.
   */

  fd->fd_flags |= ALT_FD_DEV;
 800d1d0:	e0bffe17 	ldw	r2,-8(fp)
 800d1d4:	10800217 	ldw	r2,8(r2)
 800d1d8:	10d00034 	orhi	r3,r2,16384
 800d1dc:	e0bffe17 	ldw	r2,-8(fp)
 800d1e0:	10c00215 	stw	r3,8(r2)
  /*
   * Loop through all current file descriptors searching for one that's locked
   * for exclusive access. If a match is found, generate an error.
   */

  for (i = 0; i <= alt_max_fd; i++)
 800d1e4:	e03fff15 	stw	zero,-4(fp)
 800d1e8:	00002306 	br	800d278 <alt_file_locked+0xb8>
  {
    if ((alt_fd_list[i].dev == fd->dev) &&
 800d1ec:	e0ffff17 	ldw	r3,-4(fp)
 800d1f0:	1805883a 	mov	r2,r3
 800d1f4:	1085883a 	add	r2,r2,r2
 800d1f8:	10c5883a 	add	r2,r2,r3
 800d1fc:	100490ba 	slli	r2,r2,2
 800d200:	00c20074 	movhi	r3,2049
 800d204:	10c7883a 	add	r3,r2,r3
 800d208:	18c00417 	ldw	r3,16(r3)
 800d20c:	e0bffe17 	ldw	r2,-8(fp)
 800d210:	10800017 	ldw	r2,0(r2)
 800d214:	1880151e 	bne	r3,r2,800d26c <alt_file_locked+0xac>
        (alt_fd_list[i].fd_flags & ALT_FD_EXCL) &&
 800d218:	e0ffff17 	ldw	r3,-4(fp)
 800d21c:	1805883a 	mov	r2,r3
 800d220:	1085883a 	add	r2,r2,r2
 800d224:	10c5883a 	add	r2,r2,r3
 800d228:	100490ba 	slli	r2,r2,2
 800d22c:	00c20074 	movhi	r3,2049
 800d230:	10c7883a 	add	r3,r2,r3
 800d234:	18800617 	ldw	r2,24(r3)
    if ((alt_fd_list[i].dev == fd->dev) &&
 800d238:	10000c0e 	bge	r2,zero,800d26c <alt_file_locked+0xac>
        (&alt_fd_list[i] != fd))
 800d23c:	e0ffff17 	ldw	r3,-4(fp)
 800d240:	1805883a 	mov	r2,r3
 800d244:	1085883a 	add	r2,r2,r2
 800d248:	10c5883a 	add	r2,r2,r3
 800d24c:	100490ba 	slli	r2,r2,2
 800d250:	00c20074 	movhi	r3,2049
 800d254:	18c00404 	addi	r3,r3,16
 800d258:	10c5883a 	add	r2,r2,r3
        (alt_fd_list[i].fd_flags & ALT_FD_EXCL) &&
 800d25c:	e0fffe17 	ldw	r3,-8(fp)
 800d260:	18800226 	beq	r3,r2,800d26c <alt_file_locked+0xac>
    {
      return -EACCES;
 800d264:	00bffcc4 	movi	r2,-13
 800d268:	00000806 	br	800d28c <alt_file_locked+0xcc>
  for (i = 0; i <= alt_max_fd; i++)
 800d26c:	e0bfff17 	ldw	r2,-4(fp)
 800d270:	10800044 	addi	r2,r2,1
 800d274:	e0bfff15 	stw	r2,-4(fp)
 800d278:	d0a00c17 	ldw	r2,-32720(gp)
 800d27c:	1007883a 	mov	r3,r2
 800d280:	e0bfff17 	ldw	r2,-4(fp)
 800d284:	18bfd92e 	bgeu	r3,r2,800d1ec <alt_file_locked+0x2c>
    }
  }
  
  /* The device is not locked */
 
  return 0;
 800d288:	0005883a 	mov	r2,zero
}
 800d28c:	e037883a 	mov	sp,fp
 800d290:	df000017 	ldw	fp,0(sp)
 800d294:	dec00104 	addi	sp,sp,4
 800d298:	f800283a 	ret

0800d29c <open>:
 *
 * ALT_OPEN is mapped onto the open() system call in alt_syscall.h
 */
 
int ALT_OPEN (const char* file, int flags, int mode)
{ 
 800d29c:	defff604 	addi	sp,sp,-40
 800d2a0:	dfc00915 	stw	ra,36(sp)
 800d2a4:	df000815 	stw	fp,32(sp)
 800d2a8:	df000804 	addi	fp,sp,32
 800d2ac:	e13ffa15 	stw	r4,-24(fp)
 800d2b0:	e17ff915 	stw	r5,-28(fp)
 800d2b4:	e1bff815 	stw	r6,-32(fp)
  alt_dev* dev;
  alt_fd*  fd;
  int index  = -1;
 800d2b8:	00bfffc4 	movi	r2,-1
 800d2bc:	e0bffe15 	stw	r2,-8(fp)
  int status = -ENODEV;
 800d2c0:	00bffb44 	movi	r2,-19
 800d2c4:	e0bffd15 	stw	r2,-12(fp)
  int isafs = 0;
 800d2c8:	e03ffc15 	stw	zero,-16(fp)
  /* 
   * Check the device list, to see if a device with a matching name is 
   * registered.
   */
  
  if (!(dev = alt_find_dev (file, &alt_dev_list)))
 800d2cc:	d1600a04 	addi	r5,gp,-32728
 800d2d0:	e13ffa17 	ldw	r4,-24(fp)
 800d2d4:	800d6340 	call	800d634 <alt_find_dev>
 800d2d8:	e0bfff15 	stw	r2,-4(fp)
 800d2dc:	e0bfff17 	ldw	r2,-4(fp)
 800d2e0:	1000051e 	bne	r2,zero,800d2f8 <open+0x5c>
  {
    /* No matching device, so try the filesystem list */

    dev   = alt_find_file (file);
 800d2e4:	e13ffa17 	ldw	r4,-24(fp)
 800d2e8:	800d6c40 	call	800d6c4 <alt_find_file>
 800d2ec:	e0bfff15 	stw	r2,-4(fp)
    isafs = 1;
 800d2f0:	00800044 	movi	r2,1
 800d2f4:	e0bffc15 	stw	r2,-16(fp)

  /* 
   * If a matching device or filesystem is found, allocate a file descriptor. 
   */

  if (dev)
 800d2f8:	e0bfff17 	ldw	r2,-4(fp)
 800d2fc:	10002c26 	beq	r2,zero,800d3b0 <open+0x114>
  {
    if ((index = alt_get_fd (dev)) < 0)
 800d300:	e13fff17 	ldw	r4,-4(fp)
 800d304:	800d7cc0 	call	800d7cc <alt_get_fd>
 800d308:	e0bffe15 	stw	r2,-8(fp)
 800d30c:	e0bffe17 	ldw	r2,-8(fp)
 800d310:	1000030e 	bge	r2,zero,800d320 <open+0x84>
    {
      status = index;
 800d314:	e0bffe17 	ldw	r2,-8(fp)
 800d318:	e0bffd15 	stw	r2,-12(fp)
 800d31c:	00002606 	br	800d3b8 <open+0x11c>
    }
    else
    {
      fd = &alt_fd_list[index];
 800d320:	e0fffe17 	ldw	r3,-8(fp)
 800d324:	1805883a 	mov	r2,r3
 800d328:	1085883a 	add	r2,r2,r2
 800d32c:	10c5883a 	add	r2,r2,r3
 800d330:	100490ba 	slli	r2,r2,2
 800d334:	00c20074 	movhi	r3,2049
 800d338:	18c00404 	addi	r3,r3,16
 800d33c:	10c5883a 	add	r2,r2,r3
 800d340:	e0bffb15 	stw	r2,-20(fp)
      fd->fd_flags = (flags & ~ALT_FD_FLAGS_MASK);
 800d344:	e0fff917 	ldw	r3,-28(fp)
 800d348:	00900034 	movhi	r2,16384
 800d34c:	10bfffc4 	addi	r2,r2,-1
 800d350:	1886703a 	and	r3,r3,r2
 800d354:	e0bffb17 	ldw	r2,-20(fp)
 800d358:	10c00215 	stw	r3,8(r2)
      
      /* If this is a device, ensure it isn't already locked */

      if (isafs || ((status = alt_file_locked (fd)) >= 0))
 800d35c:	e0bffc17 	ldw	r2,-16(fp)
 800d360:	1000051e 	bne	r2,zero,800d378 <open+0xdc>
 800d364:	e13ffb17 	ldw	r4,-20(fp)
 800d368:	800d1c00 	call	800d1c0 <alt_file_locked>
 800d36c:	e0bffd15 	stw	r2,-12(fp)
 800d370:	e0bffd17 	ldw	r2,-12(fp)
 800d374:	10001016 	blt	r2,zero,800d3b8 <open+0x11c>
        /* 
         * If the device or filesystem provides an open() callback function,
         * call it now to perform any device/filesystem specific operations.
         */
    
        status = (dev->open) ? dev->open(fd, file, flags, mode): 0;
 800d378:	e0bfff17 	ldw	r2,-4(fp)
 800d37c:	10800317 	ldw	r2,12(r2)
 800d380:	10000826 	beq	r2,zero,800d3a4 <open+0x108>
 800d384:	e0bfff17 	ldw	r2,-4(fp)
 800d388:	10800317 	ldw	r2,12(r2)
 800d38c:	e1fff817 	ldw	r7,-32(fp)
 800d390:	e1bff917 	ldw	r6,-28(fp)
 800d394:	e17ffa17 	ldw	r5,-24(fp)
 800d398:	e13ffb17 	ldw	r4,-20(fp)
 800d39c:	103ee83a 	callr	r2
 800d3a0:	00000106 	br	800d3a8 <open+0x10c>
 800d3a4:	0005883a 	mov	r2,zero
 800d3a8:	e0bffd15 	stw	r2,-12(fp)
 800d3ac:	00000206 	br	800d3b8 <open+0x11c>
      }
    }
  }
  else
  {
    status = -ENODEV;
 800d3b0:	00bffb44 	movi	r2,-19
 800d3b4:	e0bffd15 	stw	r2,-12(fp)
  }

  /* Allocation failed, so clean up and return an error */ 

  if (status < 0)
 800d3b8:	e0bffd17 	ldw	r2,-12(fp)
 800d3bc:	1000090e 	bge	r2,zero,800d3e4 <open+0x148>
  {
    alt_release_fd (index);  
 800d3c0:	e13ffe17 	ldw	r4,-8(fp)
 800d3c4:	800d3fc0 	call	800d3fc <alt_release_fd>
    ALT_ERRNO = -status;
 800d3c8:	800d1840 	call	800d184 <alt_get_errno>
 800d3cc:	1007883a 	mov	r3,r2
 800d3d0:	e0bffd17 	ldw	r2,-12(fp)
 800d3d4:	0085c83a 	sub	r2,zero,r2
 800d3d8:	18800015 	stw	r2,0(r3)
    return -1;
 800d3dc:	00bfffc4 	movi	r2,-1
 800d3e0:	00000106 	br	800d3e8 <open+0x14c>
  }
  
  /* return the reference upon success */

  return index;
 800d3e4:	e0bffe17 	ldw	r2,-8(fp)
}
 800d3e8:	e037883a 	mov	sp,fp
 800d3ec:	dfc00117 	ldw	ra,4(sp)
 800d3f0:	df000017 	ldw	fp,0(sp)
 800d3f4:	dec00204 	addi	sp,sp,8
 800d3f8:	f800283a 	ret

0800d3fc <alt_release_fd>:
 * File descriptors correcponding to standard in, standard out and standard 
 * error cannont be released backed to the pool. They are always reserved.
 */

void alt_release_fd (int fd)
{
 800d3fc:	defffe04 	addi	sp,sp,-8
 800d400:	df000115 	stw	fp,4(sp)
 800d404:	df000104 	addi	fp,sp,4
 800d408:	e13fff15 	stw	r4,-4(fp)
  if (fd > 2)
 800d40c:	e0bfff17 	ldw	r2,-4(fp)
 800d410:	108000d0 	cmplti	r2,r2,3
 800d414:	1000101e 	bne	r2,zero,800d458 <alt_release_fd+0x5c>
  {
    alt_fd_list[fd].fd_flags = 0;
 800d418:	e0ffff17 	ldw	r3,-4(fp)
 800d41c:	1805883a 	mov	r2,r3
 800d420:	1085883a 	add	r2,r2,r2
 800d424:	10c5883a 	add	r2,r2,r3
 800d428:	100490ba 	slli	r2,r2,2
 800d42c:	00c20074 	movhi	r3,2049
 800d430:	10c7883a 	add	r3,r2,r3
 800d434:	18000615 	stw	zero,24(r3)
    alt_fd_list[fd].dev      = 0;
 800d438:	e0ffff17 	ldw	r3,-4(fp)
 800d43c:	1805883a 	mov	r2,r3
 800d440:	1085883a 	add	r2,r2,r2
 800d444:	10c5883a 	add	r2,r2,r3
 800d448:	100490ba 	slli	r2,r2,2
 800d44c:	00c20074 	movhi	r3,2049
 800d450:	10c7883a 	add	r3,r2,r3
 800d454:	18000415 	stw	zero,16(r3)
  }
}
 800d458:	0001883a 	nop
 800d45c:	e037883a 	mov	sp,fp
 800d460:	df000017 	ldw	fp,0(sp)
 800d464:	dec00104 	addi	sp,sp,4
 800d468:	f800283a 	ret

0800d46c <alt_alarm_stop>:
 * alarms. Alternatively an alarm can unregister itself by returning zero when 
 * the alarm executes.
 */

void alt_alarm_stop (alt_alarm* alarm)
{
 800d46c:	defffa04 	addi	sp,sp,-24
 800d470:	df000515 	stw	fp,20(sp)
 800d474:	df000504 	addi	fp,sp,20
 800d478:	e13ffb15 	stw	r4,-20(fp)
  NIOS2_READ_STATUS (context);
 800d47c:	0005303a 	rdctl	r2,status
 800d480:	e0bffc15 	stw	r2,-16(fp)
  NIOS2_WRITE_STATUS (context & ~NIOS2_STATUS_PIE_MSK);
 800d484:	e0fffc17 	ldw	r3,-16(fp)
 800d488:	00bfff84 	movi	r2,-2
 800d48c:	1884703a 	and	r2,r3,r2
 800d490:	1001703a 	wrctl	status,r2
  return context;
 800d494:	e0bffc17 	ldw	r2,-16(fp)
  alt_irq_context irq_context;

  irq_context = alt_irq_disable_all();
 800d498:	e0bfff15 	stw	r2,-4(fp)
  alt_llist_remove (&alarm->llist);
 800d49c:	e0bffb17 	ldw	r2,-20(fp)
 800d4a0:	e0bffd15 	stw	r2,-12(fp)
 * input argument is the element to remove.
 */
     
static ALT_INLINE void ALT_ALWAYS_INLINE alt_llist_remove(alt_llist* entry)
{
  entry->next->previous = entry->previous;
 800d4a4:	e0bffd17 	ldw	r2,-12(fp)
 800d4a8:	10800017 	ldw	r2,0(r2)
 800d4ac:	e0fffd17 	ldw	r3,-12(fp)
 800d4b0:	18c00117 	ldw	r3,4(r3)
 800d4b4:	10c00115 	stw	r3,4(r2)
  entry->previous->next = entry->next;
 800d4b8:	e0bffd17 	ldw	r2,-12(fp)
 800d4bc:	10800117 	ldw	r2,4(r2)
 800d4c0:	e0fffd17 	ldw	r3,-12(fp)
 800d4c4:	18c00017 	ldw	r3,0(r3)
 800d4c8:	10c00015 	stw	r3,0(r2)
  /* 
   * Set the entry to point to itself, so that any further calls to
   * alt_llist_remove() are harmless.
   */

  entry->previous = entry;
 800d4cc:	e0bffd17 	ldw	r2,-12(fp)
 800d4d0:	e0fffd17 	ldw	r3,-12(fp)
 800d4d4:	10c00115 	stw	r3,4(r2)
  entry->next     = entry;
 800d4d8:	e0bffd17 	ldw	r2,-12(fp)
 800d4dc:	e0fffd17 	ldw	r3,-12(fp)
 800d4e0:	10c00015 	stw	r3,0(r2)
 800d4e4:	e0bfff17 	ldw	r2,-4(fp)
 800d4e8:	e0bffe15 	stw	r2,-8(fp)
  NIOS2_WRITE_STATUS (context);
 800d4ec:	e0bffe17 	ldw	r2,-8(fp)
 800d4f0:	1001703a 	wrctl	status,r2
  alt_irq_enable_all (irq_context);
}
 800d4f4:	0001883a 	nop
 800d4f8:	e037883a 	mov	sp,fp
 800d4fc:	df000017 	ldw	fp,0(sp)
 800d500:	dec00104 	addi	sp,sp,4
 800d504:	f800283a 	ret

0800d508 <alt_tick>:
 * 
 * alt_tick() is expected to run at interrupt level.
 */

void alt_tick (void)
{
 800d508:	defffb04 	addi	sp,sp,-20
 800d50c:	dfc00415 	stw	ra,16(sp)
 800d510:	df000315 	stw	fp,12(sp)
 800d514:	df000304 	addi	fp,sp,12
  alt_alarm* next;
  alt_alarm* alarm = (alt_alarm*) alt_alarm_list.next;
 800d518:	d0a00f17 	ldw	r2,-32708(gp)
 800d51c:	e0bfff15 	stw	r2,-4(fp)

  alt_u32    next_callback;

  /* update the tick counter */

  _alt_nticks++;
 800d520:	d0a82817 	ldw	r2,-24416(gp)
 800d524:	10800044 	addi	r2,r2,1
 800d528:	d0a82815 	stw	r2,-24416(gp)

  /* process the registered callbacks */

  while (alarm != (alt_alarm*) &alt_alarm_list)
 800d52c:	00002e06 	br	800d5e8 <alt_tick+0xe0>
  {
    next = (alt_alarm*) alarm->llist.next;
 800d530:	e0bfff17 	ldw	r2,-4(fp)
 800d534:	10800017 	ldw	r2,0(r2)
 800d538:	e0bffe15 	stw	r2,-8(fp)
    /* 
     * Upon the tick-counter rolling over it is safe to clear the 
     * roll-over flag; once the flag is cleared this (or subsequnt)
     * tick events are enabled to generate an alarm event. 
     */
    if ((alarm->rollover) && (_alt_nticks == 0))
 800d53c:	e0bfff17 	ldw	r2,-4(fp)
 800d540:	10800403 	ldbu	r2,16(r2)
 800d544:	10803fcc 	andi	r2,r2,255
 800d548:	10000426 	beq	r2,zero,800d55c <alt_tick+0x54>
 800d54c:	d0a82817 	ldw	r2,-24416(gp)
 800d550:	1000021e 	bne	r2,zero,800d55c <alt_tick+0x54>
    {
      alarm->rollover = 0;
 800d554:	e0bfff17 	ldw	r2,-4(fp)
 800d558:	10000405 	stb	zero,16(r2)
    }
    
    /* if the alarm period has expired, make the callback */    
    if ((alarm->time <= _alt_nticks) && (alarm->rollover == 0))
 800d55c:	e0bfff17 	ldw	r2,-4(fp)
 800d560:	10800217 	ldw	r2,8(r2)
 800d564:	d0e82817 	ldw	r3,-24416(gp)
 800d568:	18801d36 	bltu	r3,r2,800d5e0 <alt_tick+0xd8>
 800d56c:	e0bfff17 	ldw	r2,-4(fp)
 800d570:	10800403 	ldbu	r2,16(r2)
 800d574:	10803fcc 	andi	r2,r2,255
 800d578:	1000191e 	bne	r2,zero,800d5e0 <alt_tick+0xd8>
    {
      next_callback = alarm->callback (alarm->context);
 800d57c:	e0bfff17 	ldw	r2,-4(fp)
 800d580:	10800317 	ldw	r2,12(r2)
 800d584:	e0ffff17 	ldw	r3,-4(fp)
 800d588:	18c00517 	ldw	r3,20(r3)
 800d58c:	1809883a 	mov	r4,r3
 800d590:	103ee83a 	callr	r2
 800d594:	e0bffd15 	stw	r2,-12(fp)

      /* deactivate the alarm if the return value is zero */

      if (next_callback == 0)
 800d598:	e0bffd17 	ldw	r2,-12(fp)
 800d59c:	1000031e 	bne	r2,zero,800d5ac <alt_tick+0xa4>
      {
        alt_alarm_stop (alarm);
 800d5a0:	e13fff17 	ldw	r4,-4(fp)
 800d5a4:	800d46c0 	call	800d46c <alt_alarm_stop>
 800d5a8:	00000d06 	br	800d5e0 <alt_tick+0xd8>
      }
      else
      {
        alarm->time += next_callback;
 800d5ac:	e0bfff17 	ldw	r2,-4(fp)
 800d5b0:	10c00217 	ldw	r3,8(r2)
 800d5b4:	e0bffd17 	ldw	r2,-12(fp)
 800d5b8:	1887883a 	add	r3,r3,r2
 800d5bc:	e0bfff17 	ldw	r2,-4(fp)
 800d5c0:	10c00215 	stw	r3,8(r2)
        /* 
         * If the desired alarm time causes a roll-over, set the rollover
         * flag. This will prevent the subsequent tick event from causing
         * an alarm too early.
         */
        if(alarm->time < _alt_nticks)
 800d5c4:	e0bfff17 	ldw	r2,-4(fp)
 800d5c8:	10c00217 	ldw	r3,8(r2)
 800d5cc:	d0a82817 	ldw	r2,-24416(gp)
 800d5d0:	1880032e 	bgeu	r3,r2,800d5e0 <alt_tick+0xd8>
        {
          alarm->rollover = 1;
 800d5d4:	e0bfff17 	ldw	r2,-4(fp)
 800d5d8:	00c00044 	movi	r3,1
 800d5dc:	10c00405 	stb	r3,16(r2)
        }
      }
    }
    alarm = next;
 800d5e0:	e0bffe17 	ldw	r2,-8(fp)
 800d5e4:	e0bfff15 	stw	r2,-4(fp)
  while (alarm != (alt_alarm*) &alt_alarm_list)
 800d5e8:	e0ffff17 	ldw	r3,-4(fp)
 800d5ec:	d0a00f04 	addi	r2,gp,-32708
 800d5f0:	18bfcf1e 	bne	r3,r2,800d530 <alt_tick+0x28>

  /* 
   * Update the operating system specific timer facilities.
   */

  ALT_OS_TIME_TICK();
 800d5f4:	0001883a 	nop
}
 800d5f8:	0001883a 	nop
 800d5fc:	e037883a 	mov	sp,fp
 800d600:	dfc00117 	ldw	ra,4(sp)
 800d604:	df000017 	ldw	fp,0(sp)
 800d608:	dec00204 	addi	sp,sp,8
 800d60c:	f800283a 	ret

0800d610 <altera_nios2_gen2_irq_init>:
/*
 * To initialize the internal interrupt controller, just clear the IENABLE
 * register so that all possible IRQs are disabled.
 */
void altera_nios2_gen2_irq_init(void) 
{
 800d610:	deffff04 	addi	sp,sp,-4
 800d614:	df000015 	stw	fp,0(sp)
 800d618:	d839883a 	mov	fp,sp
    NIOS2_WRITE_IENABLE(0);
 800d61c:	000170fa 	wrctl	ienable,zero
}
 800d620:	0001883a 	nop
 800d624:	e037883a 	mov	sp,fp
 800d628:	df000017 	ldw	fp,0(sp)
 800d62c:	dec00104 	addi	sp,sp,4
 800d630:	f800283a 	ret

0800d634 <alt_find_dev>:
 * "name" must be an exact match for the devices registered name for a match to
 * be found.
 */
 
alt_dev* alt_find_dev(const char* name, alt_llist* llist)
{
 800d634:	defffa04 	addi	sp,sp,-24
 800d638:	dfc00515 	stw	ra,20(sp)
 800d63c:	df000415 	stw	fp,16(sp)
 800d640:	df000404 	addi	fp,sp,16
 800d644:	e13ffd15 	stw	r4,-12(fp)
 800d648:	e17ffc15 	stw	r5,-16(fp)
  alt_dev* next = (alt_dev*) llist->next;
 800d64c:	e0bffc17 	ldw	r2,-16(fp)
 800d650:	10800017 	ldw	r2,0(r2)
 800d654:	e0bfff15 	stw	r2,-4(fp)
  alt_32 len;

  len  = strlen(name) + 1;
 800d658:	e13ffd17 	ldw	r4,-12(fp)
 800d65c:	8000c200 	call	8000c20 <strlen>
 800d660:	10800044 	addi	r2,r2,1
 800d664:	e0bffe15 	stw	r2,-8(fp)
  /*
   * Check each list entry in turn, until a match is found, or we reach the
   * end of the list (i.e. next winds up pointing back to the list head).
   */ 

  while (next != (alt_dev*) llist)
 800d668:	00000d06 	br	800d6a0 <alt_find_dev+0x6c>
    /* 
     * memcmp() is used here rather than strcmp() in order to reduce the size
     * of the executable.
     */

    if (!memcmp (next->name, name, len))
 800d66c:	e0bfff17 	ldw	r2,-4(fp)
 800d670:	10800217 	ldw	r2,8(r2)
 800d674:	e0fffe17 	ldw	r3,-8(fp)
 800d678:	180d883a 	mov	r6,r3
 800d67c:	e17ffd17 	ldw	r5,-12(fp)
 800d680:	1009883a 	mov	r4,r2
 800d684:	800d9640 	call	800d964 <memcmp>
 800d688:	1000021e 	bne	r2,zero,800d694 <alt_find_dev+0x60>
    {
      /* match found */

      return next;
 800d68c:	e0bfff17 	ldw	r2,-4(fp)
 800d690:	00000706 	br	800d6b0 <alt_find_dev+0x7c>
    }
    next = (alt_dev*) next->llist.next;
 800d694:	e0bfff17 	ldw	r2,-4(fp)
 800d698:	10800017 	ldw	r2,0(r2)
 800d69c:	e0bfff15 	stw	r2,-4(fp)
  while (next != (alt_dev*) llist)
 800d6a0:	e0ffff17 	ldw	r3,-4(fp)
 800d6a4:	e0bffc17 	ldw	r2,-16(fp)
 800d6a8:	18bff01e 	bne	r3,r2,800d66c <alt_find_dev+0x38>
  }
  
  /* No match found */
  
  return NULL;
 800d6ac:	0005883a 	mov	r2,zero
}
 800d6b0:	e037883a 	mov	sp,fp
 800d6b4:	dfc00117 	ldw	ra,4(sp)
 800d6b8:	df000017 	ldw	fp,0(sp)
 800d6bc:	dec00204 	addi	sp,sp,8
 800d6c0:	f800283a 	ret

0800d6c4 <alt_find_file>:
 * either '/' or '\0' is the prefix of the filename. For example the filename:
 * "/myfilesystem/junk.txt" would match: "/myfilesystem", but not: "/myfile". 
 */
 
alt_dev* alt_find_file (const char* name)
{
 800d6c4:	defffb04 	addi	sp,sp,-20
 800d6c8:	dfc00415 	stw	ra,16(sp)
 800d6cc:	df000315 	stw	fp,12(sp)
 800d6d0:	df000304 	addi	fp,sp,12
 800d6d4:	e13ffd15 	stw	r4,-12(fp)
  alt_dev* next = (alt_dev*) alt_fs_list.next;   
 800d6d8:	d0a00817 	ldw	r2,-32736(gp)
 800d6dc:	e0bfff15 	stw	r2,-4(fp)
  /*
   * Check each list entry in turn, until a match is found, or we reach the
   * end of the list (i.e. next winds up pointing back to the list head).
   */ 
 
  while (next != (alt_dev*) &alt_fs_list)
 800d6e0:	00003106 	br	800d7a8 <alt_find_file+0xe4>
  {
    len = strlen(next->name);
 800d6e4:	e0bfff17 	ldw	r2,-4(fp)
 800d6e8:	10800217 	ldw	r2,8(r2)
 800d6ec:	1009883a 	mov	r4,r2
 800d6f0:	8000c200 	call	8000c20 <strlen>
 800d6f4:	e0bffe15 	stw	r2,-8(fp)
    
    if (next->name[len-1] == '/')
 800d6f8:	e0bfff17 	ldw	r2,-4(fp)
 800d6fc:	10c00217 	ldw	r3,8(r2)
 800d700:	e0bffe17 	ldw	r2,-8(fp)
 800d704:	10bfffc4 	addi	r2,r2,-1
 800d708:	1885883a 	add	r2,r3,r2
 800d70c:	10800003 	ldbu	r2,0(r2)
 800d710:	10803fcc 	andi	r2,r2,255
 800d714:	1080201c 	xori	r2,r2,128
 800d718:	10bfe004 	addi	r2,r2,-128
 800d71c:	10800bd8 	cmpnei	r2,r2,47
 800d720:	1000031e 	bne	r2,zero,800d730 <alt_find_file+0x6c>
    {
      len -= 1;
 800d724:	e0bffe17 	ldw	r2,-8(fp)
 800d728:	10bfffc4 	addi	r2,r2,-1
 800d72c:	e0bffe15 	stw	r2,-8(fp)
    }

    if (((name[len] == '/') || (name[len] == '\0')) && 
 800d730:	e0bffe17 	ldw	r2,-8(fp)
 800d734:	e0fffd17 	ldw	r3,-12(fp)
 800d738:	1885883a 	add	r2,r3,r2
 800d73c:	10800003 	ldbu	r2,0(r2)
 800d740:	10803fcc 	andi	r2,r2,255
 800d744:	1080201c 	xori	r2,r2,128
 800d748:	10bfe004 	addi	r2,r2,-128
 800d74c:	10800be0 	cmpeqi	r2,r2,47
 800d750:	1000081e 	bne	r2,zero,800d774 <alt_find_file+0xb0>
 800d754:	e0bffe17 	ldw	r2,-8(fp)
 800d758:	e0fffd17 	ldw	r3,-12(fp)
 800d75c:	1885883a 	add	r2,r3,r2
 800d760:	10800003 	ldbu	r2,0(r2)
 800d764:	10803fcc 	andi	r2,r2,255
 800d768:	1080201c 	xori	r2,r2,128
 800d76c:	10bfe004 	addi	r2,r2,-128
 800d770:	10000a1e 	bne	r2,zero,800d79c <alt_find_file+0xd8>
        !memcmp (next->name, name, len))
 800d774:	e0bfff17 	ldw	r2,-4(fp)
 800d778:	10800217 	ldw	r2,8(r2)
 800d77c:	e0fffe17 	ldw	r3,-8(fp)
 800d780:	180d883a 	mov	r6,r3
 800d784:	e17ffd17 	ldw	r5,-12(fp)
 800d788:	1009883a 	mov	r4,r2
 800d78c:	800d9640 	call	800d964 <memcmp>
    if (((name[len] == '/') || (name[len] == '\0')) && 
 800d790:	1000021e 	bne	r2,zero,800d79c <alt_find_file+0xd8>
    {
      /* match found */

      return next;
 800d794:	e0bfff17 	ldw	r2,-4(fp)
 800d798:	00000706 	br	800d7b8 <alt_find_file+0xf4>
    }
    next = (alt_dev*) next->llist.next;
 800d79c:	e0bfff17 	ldw	r2,-4(fp)
 800d7a0:	10800017 	ldw	r2,0(r2)
 800d7a4:	e0bfff15 	stw	r2,-4(fp)
  while (next != (alt_dev*) &alt_fs_list)
 800d7a8:	e0ffff17 	ldw	r3,-4(fp)
 800d7ac:	d0a00804 	addi	r2,gp,-32736
 800d7b0:	18bfcc1e 	bne	r3,r2,800d6e4 <alt_find_file+0x20>
  }
  
  /* No match found */
  
  return NULL;     
 800d7b4:	0005883a 	mov	r2,zero
}
 800d7b8:	e037883a 	mov	sp,fp
 800d7bc:	dfc00117 	ldw	ra,4(sp)
 800d7c0:	df000017 	ldw	fp,0(sp)
 800d7c4:	dec00204 	addi	sp,sp,8
 800d7c8:	f800283a 	ret

0800d7cc <alt_get_fd>:
 * the offset of the file descriptor within the file descriptor array). A
 * negative value indicates failure.
 */

int alt_get_fd (alt_dev* dev)
{
 800d7cc:	defffc04 	addi	sp,sp,-16
 800d7d0:	df000315 	stw	fp,12(sp)
 800d7d4:	df000304 	addi	fp,sp,12
 800d7d8:	e13ffd15 	stw	r4,-12(fp)
  alt_32 i;
  int rc = -EMFILE;
 800d7dc:	00bffa04 	movi	r2,-24
 800d7e0:	e0bffe15 	stw	r2,-8(fp)
   * indicates the highest file descriptor ever allocated. This is used to
   * improve efficency when searching the file descriptor list, and 
   * therefore reduce contention on the alt_fd_list_lock semaphore. 
   */

  for (i = 0; i < ALT_MAX_FD; i++)
 800d7e4:	e03fff15 	stw	zero,-4(fp)
 800d7e8:	00001d06 	br	800d860 <alt_get_fd+0x94>
  {
    if (!alt_fd_list[i].dev)
 800d7ec:	e0ffff17 	ldw	r3,-4(fp)
 800d7f0:	1805883a 	mov	r2,r3
 800d7f4:	1085883a 	add	r2,r2,r2
 800d7f8:	10c5883a 	add	r2,r2,r3
 800d7fc:	100490ba 	slli	r2,r2,2
 800d800:	00c20074 	movhi	r3,2049
 800d804:	10c7883a 	add	r3,r2,r3
 800d808:	18800417 	ldw	r2,16(r3)
 800d80c:	1000111e 	bne	r2,zero,800d854 <alt_get_fd+0x88>
    {
      alt_fd_list[i].dev = dev;
 800d810:	e0ffff17 	ldw	r3,-4(fp)
 800d814:	1805883a 	mov	r2,r3
 800d818:	1085883a 	add	r2,r2,r2
 800d81c:	10c5883a 	add	r2,r2,r3
 800d820:	100490ba 	slli	r2,r2,2
 800d824:	e13ffd17 	ldw	r4,-12(fp)
 800d828:	00c20074 	movhi	r3,2049
 800d82c:	10c7883a 	add	r3,r2,r3
 800d830:	19000415 	stw	r4,16(r3)
      if (i > alt_max_fd)
 800d834:	d0e00c17 	ldw	r3,-32720(gp)
 800d838:	e0bfff17 	ldw	r2,-4(fp)
 800d83c:	1880020e 	bge	r3,r2,800d848 <alt_get_fd+0x7c>
      {
        alt_max_fd = i;
 800d840:	e0bfff17 	ldw	r2,-4(fp)
 800d844:	d0a00c15 	stw	r2,-32720(gp)
      }
      rc = i;
 800d848:	e0bfff17 	ldw	r2,-4(fp)
 800d84c:	e0bffe15 	stw	r2,-8(fp)
      goto alt_get_fd_exit;
 800d850:	00000706 	br	800d870 <alt_get_fd+0xa4>
  for (i = 0; i < ALT_MAX_FD; i++)
 800d854:	e0bfff17 	ldw	r2,-4(fp)
 800d858:	10800044 	addi	r2,r2,1
 800d85c:	e0bfff15 	stw	r2,-4(fp)
 800d860:	e0bfff17 	ldw	r2,-4(fp)
 800d864:	10800810 	cmplti	r2,r2,32
 800d868:	103fe01e 	bne	r2,zero,800d7ec <alt_get_fd+0x20>
    }
  }

 alt_get_fd_exit:
 800d86c:	0001883a 	nop
   * file descriptor pool.
   */

  ALT_SEM_POST(alt_fd_list_lock);

  return rc;
 800d870:	e0bffe17 	ldw	r2,-8(fp)
}
 800d874:	e037883a 	mov	sp,fp
 800d878:	df000017 	ldw	fp,0(sp)
 800d87c:	dec00104 	addi	sp,sp,4
 800d880:	f800283a 	ret

0800d884 <alt_exception_cause_generated_bad_addr>:
 * Return: 1: BADADDR (bad_addr argument to handler) is valid
 *         0: BADADDR is not valid
 */
int 
alt_exception_cause_generated_bad_addr(alt_exception_cause cause)
{
 800d884:	defffe04 	addi	sp,sp,-8
 800d888:	df000115 	stw	fp,4(sp)
 800d88c:	df000104 	addi	fp,sp,4
 800d890:	e13fff15 	stw	r4,-4(fp)
  switch (cause) {
 800d894:	e0bfff17 	ldw	r2,-4(fp)
 800d898:	10bffe84 	addi	r2,r2,-6
 800d89c:	10c00428 	cmpgeui	r3,r2,16
 800d8a0:	1800191e 	bne	r3,zero,800d908 <alt_exception_cause_generated_bad_addr+0x84>
 800d8a4:	100690ba 	slli	r3,r2,2
 800d8a8:	00820074 	movhi	r2,2049
 800d8ac:	1885883a 	add	r2,r3,r2
 800d8b0:	10b62e17 	ldw	r2,-10056(r2)
 800d8b4:	1000683a 	jmp	r2
 800d8b8:	0800d8f8 	rdprs	zero,at,867
 800d8bc:	0800d8f8 	rdprs	zero,at,867
 800d8c0:	0800d908 	cmpgei	zero,at,868
 800d8c4:	0800d908 	cmpgei	zero,at,868
 800d8c8:	0800d908 	cmpgei	zero,at,868
 800d8cc:	0800d8f8 	rdprs	zero,at,867
 800d8d0:	0800d900 	call	800d90 <__alt_mem_onchip_memory2_0+0x800d90>
 800d8d4:	0800d908 	cmpgei	zero,at,868
 800d8d8:	0800d8f8 	rdprs	zero,at,867
 800d8dc:	0800d8f8 	rdprs	zero,at,867
 800d8e0:	0800d908 	cmpgei	zero,at,868
 800d8e4:	0800d8f8 	rdprs	zero,at,867
 800d8e8:	0800d900 	call	800d90 <__alt_mem_onchip_memory2_0+0x800d90>
 800d8ec:	0800d908 	cmpgei	zero,at,868
 800d8f0:	0800d908 	cmpgei	zero,at,868
 800d8f4:	0800d8f8 	rdprs	zero,at,867
  case NIOS2_EXCEPTION_MISALIGNED_TARGET_PC:
  case NIOS2_EXCEPTION_TLB_READ_PERM_VIOLATION:
  case NIOS2_EXCEPTION_TLB_WRITE_PERM_VIOLATION:
  case NIOS2_EXCEPTION_MPU_DATA_REGION_VIOLATION:
  case NIOS2_EXCEPTION_ECC_DATA_ERR:
    return 1;
 800d8f8:	00800044 	movi	r2,1
 800d8fc:	00000306 	br	800d90c <alt_exception_cause_generated_bad_addr+0x88>

  case NIOS2_EXCEPTION_TLB_MISS:
  case NIOS2_EXCEPTION_ECC_TLB_ERR:
    return 0;
 800d900:	0005883a 	mov	r2,zero
 800d904:	00000106 	br	800d90c <alt_exception_cause_generated_bad_addr+0x88>

  default:
    return 0;
 800d908:	0005883a 	mov	r2,zero
  }
}
 800d90c:	e037883a 	mov	sp,fp
 800d910:	df000017 	ldw	fp,0(sp)
 800d914:	dec00104 	addi	sp,sp,4
 800d918:	f800283a 	ret

0800d91c <atexit>:
 800d91c:	200b883a 	mov	r5,r4
 800d920:	000f883a 	mov	r7,zero
 800d924:	000d883a 	mov	r6,zero
 800d928:	0009883a 	mov	r4,zero
 800d92c:	800d9f01 	jmpi	800d9f0 <__register_exitproc>

0800d930 <exit>:
 800d930:	defffe04 	addi	sp,sp,-8
 800d934:	000b883a 	mov	r5,zero
 800d938:	dc000015 	stw	r16,0(sp)
 800d93c:	dfc00115 	stw	ra,4(sp)
 800d940:	2021883a 	mov	r16,r4
 800d944:	800da800 	call	800da80 <__call_exitprocs>
 800d948:	00820074 	movhi	r2,2049
 800d94c:	11006717 	ldw	r4,412(r2)
 800d950:	20800f17 	ldw	r2,60(r4)
 800d954:	10000126 	beq	r2,zero,800d95c <exit+0x2c>
 800d958:	103ee83a 	callr	r2
 800d95c:	8009883a 	mov	r4,r16
 800d960:	800db980 	call	800db98 <_exit>

0800d964 <memcmp>:
 800d964:	30800130 	cmpltui	r2,r6,4
 800d968:	10000b1e 	bne	r2,zero,800d998 <memcmp+0x34>
 800d96c:	2144b03a 	or	r2,r4,r5
 800d970:	108000cc 	andi	r2,r2,3
 800d974:	10001a1e 	bne	r2,zero,800d9e0 <memcmp+0x7c>
 800d978:	20c00017 	ldw	r3,0(r4)
 800d97c:	28800017 	ldw	r2,0(r5)
 800d980:	1880171e 	bne	r3,r2,800d9e0 <memcmp+0x7c>
 800d984:	31bfff04 	addi	r6,r6,-4
 800d988:	30800128 	cmpgeui	r2,r6,4
 800d98c:	21000104 	addi	r4,r4,4
 800d990:	29400104 	addi	r5,r5,4
 800d994:	103ff81e 	bne	r2,zero,800d978 <memcmp+0x14>
 800d998:	30ffffc4 	addi	r3,r6,-1
 800d99c:	30000e26 	beq	r6,zero,800d9d8 <memcmp+0x74>
 800d9a0:	29800003 	ldbu	r6,0(r5)
 800d9a4:	20800003 	ldbu	r2,0(r4)
 800d9a8:	30800f1e 	bne	r6,r2,800d9e8 <memcmp+0x84>
 800d9ac:	18800044 	addi	r2,r3,1
 800d9b0:	20c00044 	addi	r3,r4,1
 800d9b4:	2089883a 	add	r4,r4,r2
 800d9b8:	00000506 	br	800d9d0 <memcmp+0x6c>
 800d9bc:	18800003 	ldbu	r2,0(r3)
 800d9c0:	29800003 	ldbu	r6,0(r5)
 800d9c4:	18c00044 	addi	r3,r3,1
 800d9c8:	10803fcc 	andi	r2,r2,255
 800d9cc:	1180061e 	bne	r2,r6,800d9e8 <memcmp+0x84>
 800d9d0:	29400044 	addi	r5,r5,1
 800d9d4:	193ff91e 	bne	r3,r4,800d9bc <memcmp+0x58>
 800d9d8:	0005883a 	mov	r2,zero
 800d9dc:	f800283a 	ret
 800d9e0:	30ffffc4 	addi	r3,r6,-1
 800d9e4:	003fee06 	br	800d9a0 <memcmp+0x3c>
 800d9e8:	1185c83a 	sub	r2,r2,r6
 800d9ec:	f800283a 	ret

0800d9f0 <__register_exitproc>:
 800d9f0:	00820074 	movhi	r2,2049
 800d9f4:	10c06717 	ldw	r3,412(r2)
 800d9f8:	18805217 	ldw	r2,328(r3)
 800d9fc:	10001726 	beq	r2,zero,800da5c <__register_exitproc+0x6c>
 800da00:	10c00117 	ldw	r3,4(r2)
 800da04:	1a000808 	cmpgei	r8,r3,32
 800da08:	40001b1e 	bne	r8,zero,800da78 <__register_exitproc+0x88>
 800da0c:	20000b26 	beq	r4,zero,800da3c <__register_exitproc+0x4c>
 800da10:	181090ba 	slli	r8,r3,2
 800da14:	02400044 	movi	r9,1
 800da18:	48d2983a 	sll	r9,r9,r3
 800da1c:	1211883a 	add	r8,r2,r8
 800da20:	41802215 	stw	r6,136(r8)
 800da24:	11806217 	ldw	r6,392(r2)
 800da28:	21000098 	cmpnei	r4,r4,2
 800da2c:	324cb03a 	or	r6,r6,r9
 800da30:	11806215 	stw	r6,392(r2)
 800da34:	41c04215 	stw	r7,264(r8)
 800da38:	20000b26 	beq	r4,zero,800da68 <__register_exitproc+0x78>
 800da3c:	19000084 	addi	r4,r3,2
 800da40:	200890ba 	slli	r4,r4,2
 800da44:	18c00044 	addi	r3,r3,1
 800da48:	10c00115 	stw	r3,4(r2)
 800da4c:	1105883a 	add	r2,r2,r4
 800da50:	11400015 	stw	r5,0(r2)
 800da54:	0005883a 	mov	r2,zero
 800da58:	f800283a 	ret
 800da5c:	18805304 	addi	r2,r3,332
 800da60:	18805215 	stw	r2,328(r3)
 800da64:	003fe606 	br	800da00 <__register_exitproc+0x10>
 800da68:	11006317 	ldw	r4,396(r2)
 800da6c:	2252b03a 	or	r9,r4,r9
 800da70:	12406315 	stw	r9,396(r2)
 800da74:	003ff106 	br	800da3c <__register_exitproc+0x4c>
 800da78:	00bfffc4 	movi	r2,-1
 800da7c:	f800283a 	ret

0800da80 <__call_exitprocs>:
 800da80:	defff704 	addi	sp,sp,-36
 800da84:	00820074 	movhi	r2,2049
 800da88:	ddc00715 	stw	r23,28(sp)
 800da8c:	15c06717 	ldw	r23,412(r2)
 800da90:	dd400515 	stw	r21,20(sp)
 800da94:	dd000415 	stw	r20,16(sp)
 800da98:	dcc00315 	stw	r19,12(sp)
 800da9c:	dfc00815 	stw	ra,32(sp)
 800daa0:	dd800615 	stw	r22,24(sp)
 800daa4:	dc800215 	stw	r18,8(sp)
 800daa8:	dc400115 	stw	r17,4(sp)
 800daac:	dc000015 	stw	r16,0(sp)
 800dab0:	2029883a 	mov	r20,r4
 800dab4:	282b883a 	mov	r21,r5
 800dab8:	04c00044 	movi	r19,1
 800dabc:	bc805217 	ldw	r18,328(r23)
 800dac0:	90000d26 	beq	r18,zero,800daf8 <__call_exitprocs+0x78>
 800dac4:	94000117 	ldw	r16,4(r18)
 800dac8:	847fffc4 	addi	r17,r16,-1
 800dacc:	88000a16 	blt	r17,zero,800daf8 <__call_exitprocs+0x78>
 800dad0:	84000044 	addi	r16,r16,1
 800dad4:	802090ba 	slli	r16,r16,2
 800dad8:	9421883a 	add	r16,r18,r16
 800dadc:	a8001126 	beq	r21,zero,800db24 <__call_exitprocs+0xa4>
 800dae0:	80804017 	ldw	r2,256(r16)
 800dae4:	15400f26 	beq	r2,r21,800db24 <__call_exitprocs+0xa4>
 800dae8:	8c7fffc4 	addi	r17,r17,-1
 800daec:	88bfffd8 	cmpnei	r2,r17,-1
 800daf0:	843fff04 	addi	r16,r16,-4
 800daf4:	103ff91e 	bne	r2,zero,800dadc <__call_exitprocs+0x5c>
 800daf8:	dfc00817 	ldw	ra,32(sp)
 800dafc:	ddc00717 	ldw	r23,28(sp)
 800db00:	dd800617 	ldw	r22,24(sp)
 800db04:	dd400517 	ldw	r21,20(sp)
 800db08:	dd000417 	ldw	r20,16(sp)
 800db0c:	dcc00317 	ldw	r19,12(sp)
 800db10:	dc800217 	ldw	r18,8(sp)
 800db14:	dc400117 	ldw	r17,4(sp)
 800db18:	dc000017 	ldw	r16,0(sp)
 800db1c:	dec00904 	addi	sp,sp,36
 800db20:	f800283a 	ret
 800db24:	90800117 	ldw	r2,4(r18)
 800db28:	81800017 	ldw	r6,0(r16)
 800db2c:	10bfffc4 	addi	r2,r2,-1
 800db30:	14401526 	beq	r2,r17,800db88 <__call_exitprocs+0x108>
 800db34:	80000015 	stw	zero,0(r16)
 800db38:	303feb26 	beq	r6,zero,800dae8 <__call_exitprocs+0x68>
 800db3c:	9c46983a 	sll	r3,r19,r17
 800db40:	90806217 	ldw	r2,392(r18)
 800db44:	95800117 	ldw	r22,4(r18)
 800db48:	1884703a 	and	r2,r3,r2
 800db4c:	1000061e 	bne	r2,zero,800db68 <__call_exitprocs+0xe8>
 800db50:	303ee83a 	callr	r6
 800db54:	90800117 	ldw	r2,4(r18)
 800db58:	15bfd81e 	bne	r2,r22,800dabc <__call_exitprocs+0x3c>
 800db5c:	b8805217 	ldw	r2,328(r23)
 800db60:	14bfe126 	beq	r2,r18,800dae8 <__call_exitprocs+0x68>
 800db64:	003fd506 	br	800dabc <__call_exitprocs+0x3c>
 800db68:	90806317 	ldw	r2,396(r18)
 800db6c:	81002017 	ldw	r4,128(r16)
 800db70:	1886703a 	and	r3,r3,r2
 800db74:	1800061e 	bne	r3,zero,800db90 <__call_exitprocs+0x110>
 800db78:	200b883a 	mov	r5,r4
 800db7c:	a009883a 	mov	r4,r20
 800db80:	303ee83a 	callr	r6
 800db84:	003ff306 	br	800db54 <__call_exitprocs+0xd4>
 800db88:	94400115 	stw	r17,4(r18)
 800db8c:	003fea06 	br	800db38 <__call_exitprocs+0xb8>
 800db90:	303ee83a 	callr	r6
 800db94:	003fef06 	br	800db54 <__call_exitprocs+0xd4>

0800db98 <_exit>:
 *
 * ALT_EXIT is mapped onto the _exit() system call in alt_syscall.h
 */

void ALT_EXIT (int exit_code)
{
 800db98:	defffd04 	addi	sp,sp,-12
 800db9c:	df000215 	stw	fp,8(sp)
 800dba0:	df000204 	addi	fp,sp,8
 800dba4:	e13ffe15 	stw	r4,-8(fp)
  ALT_LOG_PRINT_BOOT("[alt_exit.c] Entering _exit() function.\r\n");
  ALT_LOG_PRINT_BOOT("[alt_exit.c] Exit code from main was %d.\r\n",exit_code);
  /* Stop all other threads */

  ALT_LOG_PRINT_BOOT("[alt_exit.c] Calling ALT_OS_STOP().\r\n");
  ALT_OS_STOP();
 800dba8:	0001883a 	nop
 800dbac:	e0bffe17 	ldw	r2,-8(fp)
 800dbb0:	e0bfff15 	stw	r2,-4(fp)
/*
 * Routine called on exit.
 */
static ALT_INLINE ALT_ALWAYS_INLINE void alt_sim_halt(int exit_code)
{
  register int r2 asm ("r2") = exit_code;
 800dbb4:	e0bfff17 	ldw	r2,-4(fp)
  __asm__ volatile ("\n0:\n\taddi %0,%0, -1\n\tbgt %0,zero,0b" : : "r" (ALT_CPU_FREQ/100) ); /* Delay for >30ms */

  __asm__ volatile ("break 2" : : "r"(r2), "r"(r3) ALT_GMON_DATA );

#else /* !DEBUG_STUB */
  if (r2) {
 800dbb8:	10000226 	beq	r2,zero,800dbc4 <_exit+0x2c>
    ALT_SIM_FAIL();
 800dbbc:	002af070 	cmpltui	zero,zero,43969
 800dbc0:	00000106 	br	800dbc8 <_exit+0x30>
  } else {
    ALT_SIM_PASS();
 800dbc4:	002af0b0 	cmpltui	zero,zero,43970
  ALT_SIM_HALT(exit_code);

  /* spin forever, since there's no where to go back to */

  ALT_LOG_PRINT_BOOT("[alt_exit.c] Spinning forever.\r\n");
  while (1);
 800dbc8:	003fff06 	br	800dbc8 <_exit+0x30>
